 VIP Linker 7.4.
  Module 'Exe\lab1.exe' Map. Sat Jan 16 11:54:56 2016

Frame 001000   Size 0DF980.  Name=<   .text>, 	Chars=60000020h. [CER]
Frame 0E1000   Size 0B2190.  Name=<  .rdata>, 	Chars=40000040h. [IR]
Frame 194000   Size 0001C0.  Name=< .gcroot>, 	Chars=C0000040h. [IRW]
Frame 195000   Size 0004A0.  Name=<  PRODBG>, 	Chars=40000040h. [IR]
Frame 196000   Size 001070.  Name=<  VIPini>, 	Chars=40000040h. [IR]
Frame 198000   Size 000010.  Name=<  VIPsym>, 	Chars=40000040h. [IR]
Frame 199000   Size 0021A0.  Name=<  VIPtpl>, 	Chars=40000040h. [IR]
Frame 19C000   Size 000420.  Name=<   .data>, 	Chars=C0000040h. [IRW]

	--- S e g m e n t s : ---

Frame 001000   Size 0DF980.  Name=<   .text>, 	Chars=60000020h. [CER]
001000:000000 0DF980   .text::CODE::<no group> F=4
   001000   Module 'Obj\mapMSupport.0ECEFBBB.obj'
   001680   Module 'Obj\redBlackTree.61E65707.obj'
   003F70   Module 'Obj\queueM_fact.876A54BB.obj'
   0043F0   Module 'Obj\namedValue.F1E990DE.obj'
   005260   Module 'Obj\reflection.FC95C744.obj'
   0058D0   Module 'Obj\runTime_api.5DB52876.obj'
   006410   Module 'Obj\inputStreamSupport.8B7DC50C.obj'
   0066F0   Module 'Obj\outputStreamSupport.FDA10A7F.obj'
   006BE0   Module 'Obj\boolean.BCE69FAB.obj'
   006D10   Module 'Obj\std.BDD23075.obj'
   007700   Module 'Obj\string.6D4DA431.obj'
   00CC70   Module 'Obj\systemInformation_api.DBDD8999.obj'
   00D140   Module 'Obj\memory_api.02018A2B.obj'
   00D8A0   Module 'Obj\fileSystem.7C044605.obj'
   015350   Module 'Obj\exceptionDump.CAECE2A1.obj'
   0168B0   Module 'Obj\errorPresentationDialog.15C128A1.obj'
   01A540   Module 'Obj\list.AD480F98.obj'
   01DD20   Module 'Obj\math.2C2938E4.obj'
   01F580   Module 'Obj\binary.00AD4D8C.obj'
   0241B0   Module 'Obj\tooltipSupport.83DE8A73.obj'
   025C50   Module 'Obj\monitorQueue.008796C3.obj'
   026250   Module 'Obj\multiThread.B0EA2379.obj'
   027E50   Module 'Obj\setM_redBlack.0E86AC6B.obj'
   028390   Module 'Obj\uxTheme_api.9A919201.obj'
   0283E0   Module 'Obj\varM.B20C5C3C.obj'
   028A00   Module 'Obj\clipboard.110730D5.obj'
   029120   Module 'Obj\commonDialogs.C2E51EE2.obj'
   02BB10   Module 'Obj\templateExpander.BA7B80C5.obj'
   02BC70   Module 'Obj\controlSupport.376C23EE.obj'
   038350   Module 'Obj\string8_api.BA8033D7.obj'
   038580   Module 'Obj\string8.D6F68BA1.obj'
   038980   Module 'Obj\registry.41898AB3.obj'
   039820   Module 'Obj\regEx.0DEBB752.obj'
   039C40   Module 'Obj\mapM_redBlack.0FBEF488.obj'
   03A350   Module 'Obj\Shell_api.179771F5.obj'
   03A5D0   Module 'Obj\registry_api.2BAF66BB.obj'
   03B830   Module 'Obj\redBlackSet.CF7D536C.obj'
   03D850   Module 'Obj\collectionMsupport.F70BFF5E.obj'
   03DB60   Module 'Obj\locale_api.7AB46CAD.obj'
   03DDF0   Module 'Obj\stream.8B1D7847.obj'
   03EB20   Module 'Obj\fileSystem_api.E6C4835F.obj'
   0407E0   Module 'Obj\sciLexer_api.20CB027C.obj'
   0454E0   Module 'Obj\time_api.29E4C41C.obj'
   046790   Module 'Obj\sciLexer.ADC40A53.obj'
   0575A0   Module 'Obj\sciLexerSupport.FEC4A01D.obj'
   05FDA0   Module 'Obj\programControl.7530D49A.obj'
   05FDE0   Module 'Obj\exe_api.DA526B1E.obj'
   0601A0   Module 'Obj\exe.DC930661.obj'
   060640   Module 'Obj\multiThread_api.967EC9F4.obj'
   0615F0   Module 'Obj\memory.34E541C8.obj'
   062AF0   Module 'Obj\windowsAPI.BBE7373F.obj'
   062DB0   Module 'Obj\event.43AD3974.obj'
   066680   Module 'Obj\iStream_api.5B967311.obj'
   066720   Module 'Obj\gui_api.7E4A6614.obj'
   0693E0   Module 'Obj\Command.0BA5442E.obj'
   069D50   Module 'Obj\gdiplus.80149785.obj'
   081B00   Module 'Obj\guiSupport.F74ABA7D.obj'
   0834D0   Module 'Obj\ImageList.3CB6D429.obj'
   084670   Module 'Obj\toolTip.7F7B3527.obj'
   085920   Module 'Obj\vpiToolbar.E9E27E84.obj'
   08EC30   Module 'Obj\Toolbars.B027D95B.obj'
   08EC80   Module 'Obj\vpi.E4453945.obj'
   091D00   Module 'Obj\exception.1550E8BC.obj'
   093FC0   Module 'Obj\TaskWindow.3D15576A.obj'
   097410   Module 'Obj\gui.0D1EF882.obj'
   0B73E0   Module 'Obj\controls.5CEFAE16.obj'
   0D5AA0   Module 'Obj\messageControl.6297CBEC.obj'
   0E0200   Module 'Obj\main.A22FE9BF.obj'
   0E0240   Module 'Obj\core.8DAFDFE7.obj'
   0E0780   Module '..\..\..\_intermediate\sourceVS\vip7init\Win32\ReleasePE\VIPMain.obj'
   0E07F0   Module '..\..\..\_intermediate\sourceVS\vip7init\Win32\ReleasePE\VIPDll.obj'
   0E0960   Module '..\..\..\_intermediate\sourceVS\vip7init\Win32\ReleasePE\VIPPE.obj'

Frame 0E1000   Size 0B2190.  Name=<  .rdata>, 	Chars=40000040h. [IR]
0E1000:000000 00BE90   VIPConst::VIPConst::.rdata F=4
   0E1000   Module 'Obj\namedValue.F1E990DE.obj'
   0E1090   Module 'Obj\string.6D4DA431.obj'
   0E1290   Module 'Obj\fileSystem.7C044605.obj'
   0E1510   Module 'Obj\math.2C2938E4.obj'
   0E1870   Module 'Obj\binary.00AD4D8C.obj'
   0E1AC0   Module 'Obj\clipboard.110730D5.obj'
   0E1AD0   Module 'Obj\registry.41898AB3.obj'
   0E1C70   Module 'Obj\regEx.0DEBB752.obj'
   0E1D00   Module 'Obj\stream.8B1D7847.obj'
   0E2000   Module 'Obj\fileSystem_api.E6C4835F.obj'
   0E21B0   Module 'Obj\time_api.29E4C41C.obj'
   0E2300   Module 'Obj\gdiplus.80149785.obj'
   0E2360   Module 'Obj\guiSupport.F74ABA7D.obj'
   0E2720   Module 'Obj\vpi.E4453945.obj'
   0E6500   Module 'Obj\exception.1550E8BC.obj'
   0E9810   Module 'Obj\gui.0D1EF882.obj'
   0EC8B0   Module 'Obj\controls.5CEFAE16.obj'
0E1000:00BE90 07DBE0   VIPClass::VIPClass::.rdata F=4
   0ECE90   Module 'Obj\mapMSupport.0ECEFBBB.obj'
   0ED270   Module 'Obj\redBlackTree.61E65707.obj'
   0ED630   Module 'Obj\queueM_fact.876A54BB.obj'
   0EDA90   Module 'Obj\namedValue.F1E990DE.obj'
   0EDB00   Module 'Obj\reflection.FC95C744.obj'
   0EE620   Module 'Obj\runTime_api.5DB52876.obj'
   0EE760   Module 'Obj\inputStreamSupport.8B7DC50C.obj'
   0EE940   Module 'Obj\outputStreamSupport.FDA10A7F.obj'
   0EEBA0   Module 'Obj\boolean.BCE69FAB.obj'
   0EEC00   Module 'Obj\std.BDD23075.obj'
   0EEC50   Module 'Obj\string_api.2F672E98.obj'
   0EECE0   Module 'Obj\string.6D4DA431.obj'
   0EFCA0   Module 'Obj\systemInformation_api.DBDD8999.obj'
   0F0140   Module 'Obj\memory_api.02018A2B.obj'
   0F0370   Module 'Obj\fileSystem.7C044605.obj'
   0F15A0   Module 'Obj\exceptionDump.CAECE2A1.obj'
   0F1640   Module 'Obj\errorPresentationDialog.15C128A1.obj'
   0F49B0   Module 'Obj\list.AD480F98.obj'
   0F5080   Module 'Obj\math.2C2938E4.obj'
   0F51E0   Module 'Obj\binary.00AD4D8C.obj'
   0F5B60   Module 'Obj\tooltipSupport.83DE8A73.obj'
   0F6110   Module 'Obj\monitorQueue.008796C3.obj'
   0F63B0   Module 'Obj\multiThread.B0EA2379.obj'
   0F71C0   Module 'Obj\ImageList_api.6F906CED.obj'
   0F7260   Module 'Obj\setM_redBlack.0E86AC6B.obj'
   0F76F0   Module 'Obj\uxTheme_api.9A919201.obj'
   0F7780   Module 'Obj\varM.B20C5C3C.obj'
   0F7F30   Module 'Obj\clipboard.110730D5.obj'
   0F8020   Module 'Obj\commonDialogs.C2E51EE2.obj'
   0FB110   Module 'Obj\templateExpander.BA7B80C5.obj'
   0FB1E0   Module 'Obj\controlSupport.376C23EE.obj'
   107640   Module 'Obj\string8_api.BA8033D7.obj'
   107770   Module 'Obj\string8.D6F68BA1.obj'
   1077D0   Module 'Obj\registry.41898AB3.obj'
   107A40   Module 'Obj\regEx.0DEBB752.obj'
   107B80   Module 'Obj\mapM_redBlack.0FBEF488.obj'
   108330   Module 'Obj\Shell_api.179771F5.obj'
   108B20   Module 'Obj\registry_api.2BAF66BB.obj'
   108CB0   Module 'Obj\redBlackSet.CF7D536C.obj'
   108ED0   Module 'Obj\collectionMsupport.F70BFF5E.obj'
   109140   Module 'Obj\locale_api.7AB46CAD.obj'
   109320   Module 'Obj\stream.8B1D7847.obj'
   109920   Module 'Obj\fileSystem_api.E6C4835F.obj'
   10A500   Module 'Obj\sciLexer_api.20CB027C.obj'
   10A980   Module 'Obj\time_api.29E4C41C.obj'
   10ACB0   Module 'Obj\sciLexer.ADC40A53.obj'
   10E2C0   Module 'Obj\sciLexerSupport.FEC4A01D.obj'
   114840   Module 'Obj\programControl.7530D49A.obj'
   114950   Module 'Obj\exe_api.DA526B1E.obj'
   114BA0   Module 'Obj\exe.DC930661.obj'
   114D10   Module 'Obj\multiThread_api.967EC9F4.obj'
   1152F0   Module 'Obj\memory.34E541C8.obj'
   115E30   Module 'Obj\windowsAPI.BBE7373F.obj'
   115F00   Module 'Obj\event.43AD3974.obj'
   11BF30   Module 'Obj\vpiDomains.FDDD2E01.obj'
   11D1B0   Module 'Obj\iStream_api.5B967311.obj'
   11D250   Module 'Obj\gdiplus_api.D6623B9A.obj'
   11DBB0   Module 'Obj\gui_api.7E4A6614.obj'
   11F9E0   Module 'Obj\Command.0BA5442E.obj'
   11FED0   Module 'Obj\gdiplus.80149785.obj'
   124350   Module 'Obj\guiSupport.F74ABA7D.obj'
   124960   Module 'Obj\ImageList.3CB6D429.obj'
   124C00   Module 'Obj\toolTip.7F7B3527.obj'
   125D60   Module 'Obj\vpiToolbar.E9E27E84.obj'
   126670   Module 'Obj\Toolbars.B027D95B.obj'
   126780   Module 'Obj\vpi.E4453945.obj'
   126B90   Module 'Obj\exception.1550E8BC.obj'
   127320   Module 'Obj\TaskWindow.3D15576A.obj'
   12B9D0   Module 'Obj\gui.0D1EF882.obj'
   13CD70   Module 'Obj\controls.5CEFAE16.obj'
   15C520   Module 'Obj\messageControl.6297CBEC.obj'
   1695F0   Module 'Obj\main.A22FE9BF.obj'
   169B40   Module 'Obj\core.8DAFDFE7.obj'
0E1000:089A70 00AE80   VIPInter::VIPInter::.rdata F=4
   16AA70   Module 'Obj\mapMSupport.0ECEFBBB.obj'
   16AF50   Module 'Obj\redBlackTree.61E65707.obj'
   16B220   Module 'Obj\queueM_fact.876A54BB.obj'
   16BC70   Module 'Obj\namedValue.F1E990DE.obj'
   16C240   Module 'Obj\inputStreamSupport.8B7DC50C.obj'
   16C5B0   Module 'Obj\memory_api.02018A2B.obj'
   16C690   Module 'Obj\fileSystem.7C044605.obj'
   16C870   Module 'Obj\errorPresentationDialog.15C128A1.obj'
   1737A0   Module 'Obj\tooltipSupport.83DE8A73.obj'
   173890   Module 'Obj\monitorQueue.008796C3.obj'
   173970   Module 'Obj\multiThread.B0EA2379.obj'
   173E30   Module 'Obj\varM.B20C5C3C.obj'
   1740D0   Module 'Obj\clipboard.110730D5.obj'
   1741A0   Module 'Obj\commonDialogs.C2E51EE2.obj'
   174290   Module 'Obj\controlSupport.376C23EE.obj'
   174900   Module 'Obj\TaskWindow.3D15576A.obj'
0E1000:0948F0 01D89C   .rdata::.rdata::.rdata F=4
   1758F0   Module 'Obj\mapMSupport.0ECEFBBB.obj'
   175A90   Module 'Obj\redBlackTree.61E65707.obj'
   175C70   Module 'Obj\queueM_fact.876A54BB.obj'
   175D30   Module 'Obj\namedValue.F1E990DE.obj'
   176120   Module 'Obj\reflection.FC95C744.obj'
   176640   Module 'Obj\runTime_api.5DB52876.obj'
   176EB0   Module 'Obj\inputStreamSupport.8B7DC50C.obj'
   1770C0   Module 'Obj\outputStreamSupport.FDA10A7F.obj'
   177340   Module 'Obj\boolean.BCE69FAB.obj'
   1773D0   Module 'Obj\std.BDD23075.obj'
   177450   Module 'Obj\string_api.2F672E98.obj'
   177500   Module 'Obj\string.6D4DA431.obj'
   177D20   Module 'Obj\systemInformation_api.DBDD8999.obj'
   178030   Module 'Obj\memory_api.02018A2B.obj'
   178320   Module 'Obj\fileSystem.7C044605.obj'
   179320   Module 'Obj\exceptionDump.CAECE2A1.obj'
   1797B0   Module 'Obj\errorPresentationDialog.15C128A1.obj'
   179D90   Module 'Obj\list.AD480F98.obj'
   17A1B0   Module 'Obj\math.2C2938E4.obj'
   17A420   Module 'Obj\binary.00AD4D8C.obj'
   17AA90   Module 'Obj\tooltipSupport.83DE8A73.obj'
   17ADB0   Module 'Obj\monitorQueue.008796C3.obj'
   17AF60   Module 'Obj\multiThread.B0EA2379.obj'
   17B4E0   Module 'Obj\ImageList_api.6F906CED.obj'
   17B5A0   Module 'Obj\setM_redBlack.0E86AC6B.obj'
   17B660   Module 'Obj\uxTheme_api.9A919201.obj'
   17B710   Module 'Obj\collection.DA7C4764.obj'
   17B7B0   Module 'Obj\varM.B20C5C3C.obj'
   17B830   Module 'Obj\clipboard.110730D5.obj'
   17BA30   Module 'Obj\commonDialogs.C2E51EE2.obj'
   17BB40   Module 'Obj\templateExpander.BA7B80C5.obj'
   17BBF0   Module 'Obj\controlSupport.376C23EE.obj'
   17C5E0   Module 'Obj\string8_api.BA8033D7.obj'
   17C810   Module 'Obj\string8.D6F68BA1.obj'
   17C8C0   Module 'Obj\registry.41898AB3.obj'
   17CB60   Module 'Obj\regEx.0DEBB752.obj'
   17CC60   Module 'Obj\mapM_redBlack.0FBEF488.obj'
   17CD20   Module 'Obj\Shell_api.179771F5.obj'
   17D520   Module 'Obj\registry_api.2BAF66BB.obj'
   17D960   Module 'Obj\redBlackSet.CF7D536C.obj'
   17DB70   Module 'Obj\collectionMsupport.F70BFF5E.obj'
   17DC50   Module 'Obj\locale_api.7AB46CAD.obj'
   17DD00   Module 'Obj\stream.8B1D7847.obj'
   17E340   Module 'Obj\fileSystem_api.E6C4835F.obj'
   17EAE0   Module 'Obj\sciLexer_api.20CB027C.obj'
   17EBB0   Module 'Obj\time_api.29E4C41C.obj'
   17F0D0   Module 'Obj\sciLexer.ADC40A53.obj'
   182CD0   Module 'Obj\sciLexerSupport.FEC4A01D.obj'
   183240   Module 'Obj\programControl.7530D49A.obj'
   1832F0   Module 'Obj\exe_api.DA526B1E.obj'
   1834E0   Module 'Obj\exe.DC930661.obj'
   183630   Module 'Obj\multiThread_api.967EC9F4.obj'
   183E00   Module 'Obj\memory.34E541C8.obj'
   183EA0   Module 'Obj\windowsAPI.BBE7373F.obj'
   183F40   Module 'Obj\event.43AD3974.obj'
   183FD0   Module 'Obj\vpiDomains.FDDD2E01.obj'
   184070   Module 'Obj\iStream_api.5B967311.obj'
   184200   Module 'Obj\gdiplus_api.D6623B9A.obj'
   1842B0   Module 'Obj\gui_api.7E4A6614.obj'
   185350   Module 'Obj\Command.0BA5442E.obj'
   185570   Module 'Obj\gdiplus.80149785.obj'
   18D060   Module 'Obj\guiSupport.F74ABA7D.obj'
   18D230   Module 'Obj\ImageList.3CB6D429.obj'
   18D430   Module 'Obj\toolTip.7F7B3527.obj'
   18D4D0   Module 'Obj\vpiToolbar.E9E27E84.obj'
   18D900   Module 'Obj\Toolbars.B027D95B.obj'
   18DCA0   Module 'Obj\vpi.E4453945.obj'
   18E460   Module 'Obj\exception.1550E8BC.obj'
   18EA10   Module 'Obj\TaskWindow.3D15576A.obj'
   18ED40   Module 'Obj\gui.0D1EF882.obj'
   190670   Module 'Obj\controls.5CEFAE16.obj'
   192C10   Module 'Obj\messageControl.6297CBEC.obj'
   192DC0   Module 'Obj\main.A22FE9BF.obj'
   192E00   Module 'Obj\core.8DAFDFE7.obj'
   1930E0   Module '..\..\..\_intermediate\sourceVS\vip7init\Win32\ReleasePE\VIPPE.obj'

Frame 194000   Size 0001C0.  Name=< .gcroot>, 	Chars=C0000040h. [IRW]
194000:000000 0001C0   .gcroot::.gcroot::.gcroot F=4
   194000   Module 'Obj\runTime_api.5DB52876.obj'
   194004   Module 'Obj\errorPresentationDialog.15C128A1.obj'
   194034   Module 'Obj\tooltipSupport.83DE8A73.obj'
   19403C   Module 'Obj\multiThread.B0EA2379.obj'
   194048   Module 'Obj\clipboard.110730D5.obj'
   19404C   Module 'Obj\stream.8B1D7847.obj'
   194058   Module 'Obj\sciLexer.ADC40A53.obj'
   194070   Module 'Obj\sciLexerSupport.FEC4A01D.obj'
   1940A4   Module 'Obj\exe.DC930661.obj'
   1940AC   Module 'Obj\multiThread_api.967EC9F4.obj'
   1940B0   Module 'Obj\gdiplus.80149785.obj'
   1940BC   Module 'Obj\toolTip.7F7B3527.obj'
   1940C0   Module 'Obj\vpiToolbar.E9E27E84.obj'
   194134   Module 'Obj\vpi.E4453945.obj'
   19415C   Module 'Obj\gui.0D1EF882.obj'
   194188   Module 'Obj\controls.5CEFAE16.obj'

Frame 195000   Size 0004A0.  Name=<  PRODBG>, 	Chars=40000040h. [IR]
195000:000000 0004A0   PRODBG::PRODBG::PRODBG F=4
   195000   Module 'Obj\mapMSupport.0ECEFBBB.obj'
   195010   Module 'Obj\redBlackTree.61E65707.obj'
   195020   Module 'Obj\queueM_fact.876A54BB.obj'
   195030   Module 'Obj\namedValue.F1E990DE.obj'
   195040   Module 'Obj\reflection.FC95C744.obj'
   195050   Module 'Obj\runTime_api.5DB52876.obj'
   195060   Module 'Obj\inputStreamSupport.8B7DC50C.obj'
   195070   Module 'Obj\outputStreamSupport.FDA10A7F.obj'
   195080   Module 'Obj\boolean.BCE69FAB.obj'
   195090   Module 'Obj\std.BDD23075.obj'
   1950A0   Module 'Obj\string_api.2F672E98.obj'
   1950B0   Module 'Obj\string.6D4DA431.obj'
   1950C0   Module 'Obj\systemInformation_api.DBDD8999.obj'
   1950D0   Module 'Obj\memory_api.02018A2B.obj'
   1950E0   Module 'Obj\fileSystem.7C044605.obj'
   1950F0   Module 'Obj\exceptionDump.CAECE2A1.obj'
   195100   Module 'Obj\errorPresentationDialog.15C128A1.obj'
   195110   Module 'Obj\list.AD480F98.obj'
   195120   Module 'Obj\math.2C2938E4.obj'
   195130   Module 'Obj\binary.00AD4D8C.obj'
   195140   Module 'Obj\tooltipSupport.83DE8A73.obj'
   195150   Module 'Obj\monitorQueue.008796C3.obj'
   195160   Module 'Obj\multiThread.B0EA2379.obj'
   195170   Module 'Obj\ImageList_api.6F906CED.obj'
   195180   Module 'Obj\setM_redBlack.0E86AC6B.obj'
   195190   Module 'Obj\uxTheme_api.9A919201.obj'
   1951A0   Module 'Obj\collection.DA7C4764.obj'
   1951B0   Module 'Obj\varM.B20C5C3C.obj'
   1951C0   Module 'Obj\clipboard.110730D5.obj'
   1951D0   Module 'Obj\commonDialogs.C2E51EE2.obj'
   1951E0   Module 'Obj\templateExpander.BA7B80C5.obj'
   1951F0   Module 'Obj\controlSupport.376C23EE.obj'
   195200   Module 'Obj\string8_api.BA8033D7.obj'
   195210   Module 'Obj\string8.D6F68BA1.obj'
   195220   Module 'Obj\registry.41898AB3.obj'
   195230   Module 'Obj\regEx.0DEBB752.obj'
   195240   Module 'Obj\mapM_redBlack.0FBEF488.obj'
   195250   Module 'Obj\Shell_api.179771F5.obj'
   195260   Module 'Obj\registry_api.2BAF66BB.obj'
   195270   Module 'Obj\redBlackSet.CF7D536C.obj'
   195280   Module 'Obj\collectionMsupport.F70BFF5E.obj'
   195290   Module 'Obj\locale_api.7AB46CAD.obj'
   1952A0   Module 'Obj\stream.8B1D7847.obj'
   1952B0   Module 'Obj\fileSystem_api.E6C4835F.obj'
   1952C0   Module 'Obj\sciLexer_api.20CB027C.obj'
   1952D0   Module 'Obj\time_api.29E4C41C.obj'
   1952E0   Module 'Obj\sciLexer.ADC40A53.obj'
   1952F0   Module 'Obj\sciLexerSupport.FEC4A01D.obj'
   195300   Module 'Obj\programControl.7530D49A.obj'
   195310   Module 'Obj\exe_api.DA526B1E.obj'
   195320   Module 'Obj\exe.DC930661.obj'
   195330   Module 'Obj\multiThread_api.967EC9F4.obj'
   195340   Module 'Obj\memory.34E541C8.obj'
   195350   Module 'Obj\windowsAPI.BBE7373F.obj'
   195360   Module 'Obj\event.43AD3974.obj'
   195370   Module 'Obj\vpiDomains.FDDD2E01.obj'
   195380   Module 'Obj\iStream_api.5B967311.obj'
   195390   Module 'Obj\gdiplus_api.D6623B9A.obj'
   1953A0   Module 'Obj\gui_api.7E4A6614.obj'
   1953B0   Module 'Obj\Command.0BA5442E.obj'
   1953C0   Module 'Obj\gdiplus.80149785.obj'
   1953D0   Module 'Obj\guiSupport.F74ABA7D.obj'
   1953E0   Module 'Obj\ImageList.3CB6D429.obj'
   1953F0   Module 'Obj\toolTip.7F7B3527.obj'
   195400   Module 'Obj\vpiToolbar.E9E27E84.obj'
   195410   Module 'Obj\Toolbars.B027D95B.obj'
   195420   Module 'Obj\vpi.E4453945.obj'
   195430   Module 'Obj\exception.1550E8BC.obj'
   195440   Module 'Obj\TaskWindow.3D15576A.obj'
   195450   Module 'Obj\gui.0D1EF882.obj'
   195460   Module 'Obj\controls.5CEFAE16.obj'
   195470   Module 'Obj\messageControl.6297CBEC.obj'
   195480   Module 'Obj\main.A22FE9BF.obj'
   195490   Module 'Obj\core.8DAFDFE7.obj'

Frame 196000   Size 001070.  Name=<  VIPini>, 	Chars=40000040h. [IR]
196000:000000 000004   VIPini$A::VIPini$A::VIPini F=4
   196000   Module 'Obj\main.A22FE9BF.obj'
196000:000004 0005B8   VIPini$C::VIPini$C::VIPini F=4
   196004   Module 'Obj\mapMSupport.0ECEFBBB.obj'
   19601C   Module 'Obj\redBlackTree.61E65707.obj'
   196030   Module 'Obj\queueM_fact.876A54BB.obj'
   196068   Module 'Obj\namedValue.F1E990DE.obj'
   196084   Module 'Obj\reflection.FC95C744.obj'
   19608C   Module 'Obj\runTime_api.5DB52876.obj'
   196090   Module 'Obj\inputStreamSupport.8B7DC50C.obj'
   1960A4   Module 'Obj\outputStreamSupport.FDA10A7F.obj'
   1960A8   Module 'Obj\boolean.BCE69FAB.obj'
   1960AC   Module 'Obj\std.BDD23075.obj'
   1960B0   Module 'Obj\string_api.2F672E98.obj'
   1960B4   Module 'Obj\string.6D4DA431.obj'
   1960C4   Module 'Obj\systemInformation_api.DBDD8999.obj'
   1960CC   Module 'Obj\memory_api.02018A2B.obj'
   1960D8   Module 'Obj\fileSystem.7C044605.obj'
   196100   Module 'Obj\exceptionDump.CAECE2A1.obj'
   196104   Module 'Obj\errorPresentationDialog.15C128A1.obj'
   196284   Module 'Obj\list.AD480F98.obj'
   196288   Module 'Obj\math.2C2938E4.obj'
   196290   Module 'Obj\binary.00AD4D8C.obj'
   1962A0   Module 'Obj\tooltipSupport.83DE8A73.obj'
   1962A8   Module 'Obj\monitorQueue.008796C3.obj'
   1962B0   Module 'Obj\multiThread.B0EA2379.obj'
   1962EC   Module 'Obj\ImageList_api.6F906CED.obj'
   1962F0   Module 'Obj\setM_redBlack.0E86AC6B.obj'
   1962F4   Module 'Obj\uxTheme_api.9A919201.obj'
   1962F8   Module 'Obj\collection.DA7C4764.obj'
   1962F8   Module 'Obj\varM.B20C5C3C.obj'
   19631C   Module 'Obj\clipboard.110730D5.obj'
   196324   Module 'Obj\commonDialogs.C2E51EE2.obj'
   196330   Module 'Obj\templateExpander.BA7B80C5.obj'
   196334   Module 'Obj\controlSupport.376C23EE.obj'
   196368   Module 'Obj\string8_api.BA8033D7.obj'
   196370   Module 'Obj\string8.D6F68BA1.obj'
   196374   Module 'Obj\registry.41898AB3.obj'
   19637C   Module 'Obj\regEx.0DEBB752.obj'
   196380   Module 'Obj\mapM_redBlack.0FBEF488.obj'
   196384   Module 'Obj\Shell_api.179771F5.obj'
   19638C   Module 'Obj\registry_api.2BAF66BB.obj'
   196394   Module 'Obj\redBlackSet.CF7D536C.obj'
   196398   Module 'Obj\collectionMsupport.F70BFF5E.obj'
   19639C   Module 'Obj\locale_api.7AB46CAD.obj'
   1963A4   Module 'Obj\stream.8B1D7847.obj'
   1963B8   Module 'Obj\fileSystem_api.E6C4835F.obj'
   1963C4   Module 'Obj\sciLexer_api.20CB027C.obj'
   1963CC   Module 'Obj\time_api.29E4C41C.obj'
   1963D4   Module 'Obj\sciLexer.ADC40A53.obj'
   1963D8   Module 'Obj\sciLexerSupport.FEC4A01D.obj'
   1963E0   Module 'Obj\programControl.7530D49A.obj'
   1963E4   Module 'Obj\exe_api.DA526B1E.obj'
   1963EC   Module 'Obj\exe.DC930661.obj'
   1963F0   Module 'Obj\multiThread_api.967EC9F4.obj'
   1963F8   Module 'Obj\memory.34E541C8.obj'
   196404   Module 'Obj\windowsAPI.BBE7373F.obj'
   196408   Module 'Obj\event.43AD3974.obj'
   196428   Module 'Obj\vpiDomains.FDDD2E01.obj'
   196430   Module 'Obj\iStream_api.5B967311.obj'
   196434   Module 'Obj\gdiplus_api.D6623B9A.obj'
   196438   Module 'Obj\gui_api.7E4A6614.obj'
   196440   Module 'Obj\Command.0BA5442E.obj'
   196444   Module 'Obj\gdiplus.80149785.obj'
   1964B8   Module 'Obj\guiSupport.F74ABA7D.obj'
   1964C0   Module 'Obj\ImageList.3CB6D429.obj'
   1964C4   Module 'Obj\toolTip.7F7B3527.obj'
   1964D0   Module 'Obj\vpiToolbar.E9E27E84.obj'
   1964D4   Module 'Obj\Toolbars.B027D95B.obj'
   1964DC   Module 'Obj\vpi.E4453945.obj'
   1964E8   Module 'Obj\exception.1550E8BC.obj'
   1964F8   Module 'Obj\TaskWindow.3D15576A.obj'
   196524   Module 'Obj\gui.0D1EF882.obj'
   196554   Module 'Obj\controls.5CEFAE16.obj'
   1965A0   Module 'Obj\messageControl.6297CBEC.obj'
   1965AC   Module 'Obj\main.A22FE9BF.obj'
   1965B8   Module 'Obj\core.8DAFDFE7.obj'
196000:0005BC 000008   VIPini$E::VIPini$E::VIPini F=4
   1965BC   Module 'Obj\main.A22FE9BF.obj'

Frame 198000   Size 000010.  Name=<  VIPsym>, 	Chars=40000040h. [IR]
198000:000000 000004   VIPsym$A::VIPsym$A::VIPsym F=4
   198000   Module 'Obj\main.A22FE9BF.obj'
198000:000004 000000   VIPsym$C::VIPsym$C::VIPsym F=4
   198004   Module 'Obj\mapMSupport.0ECEFBBB.obj'
   198004   Module 'Obj\redBlackTree.61E65707.obj'
   198004   Module 'Obj\queueM_fact.876A54BB.obj'
   198004   Module 'Obj\namedValue.F1E990DE.obj'
   198004   Module 'Obj\reflection.FC95C744.obj'
   198004   Module 'Obj\runTime_api.5DB52876.obj'
   198004   Module 'Obj\inputStreamSupport.8B7DC50C.obj'
   198004   Module 'Obj\outputStreamSupport.FDA10A7F.obj'
   198004   Module 'Obj\boolean.BCE69FAB.obj'
   198004   Module 'Obj\std.BDD23075.obj'
   198004   Module 'Obj\string_api.2F672E98.obj'
   198004   Module 'Obj\string.6D4DA431.obj'
   198004   Module 'Obj\systemInformation_api.DBDD8999.obj'
   198004   Module 'Obj\memory_api.02018A2B.obj'
   198004   Module 'Obj\fileSystem.7C044605.obj'
   198004   Module 'Obj\exceptionDump.CAECE2A1.obj'
   198004   Module 'Obj\errorPresentationDialog.15C128A1.obj'
   198004   Module 'Obj\list.AD480F98.obj'
   198004   Module 'Obj\math.2C2938E4.obj'
   198004   Module 'Obj\binary.00AD4D8C.obj'
   198004   Module 'Obj\tooltipSupport.83DE8A73.obj'
   198004   Module 'Obj\monitorQueue.008796C3.obj'
   198004   Module 'Obj\multiThread.B0EA2379.obj'
   198004   Module 'Obj\ImageList_api.6F906CED.obj'
   198004   Module 'Obj\setM_redBlack.0E86AC6B.obj'
   198004   Module 'Obj\uxTheme_api.9A919201.obj'
   198004   Module 'Obj\collection.DA7C4764.obj'
   198004   Module 'Obj\varM.B20C5C3C.obj'
   198004   Module 'Obj\clipboard.110730D5.obj'
   198004   Module 'Obj\commonDialogs.C2E51EE2.obj'
   198004   Module 'Obj\templateExpander.BA7B80C5.obj'
   198004   Module 'Obj\controlSupport.376C23EE.obj'
   198004   Module 'Obj\string8_api.BA8033D7.obj'
   198004   Module 'Obj\string8.D6F68BA1.obj'
   198004   Module 'Obj\registry.41898AB3.obj'
   198004   Module 'Obj\regEx.0DEBB752.obj'
   198004   Module 'Obj\mapM_redBlack.0FBEF488.obj'
   198004   Module 'Obj\Shell_api.179771F5.obj'
   198004   Module 'Obj\registry_api.2BAF66BB.obj'
   198004   Module 'Obj\redBlackSet.CF7D536C.obj'
   198004   Module 'Obj\collectionMsupport.F70BFF5E.obj'
   198004   Module 'Obj\locale_api.7AB46CAD.obj'
   198004   Module 'Obj\stream.8B1D7847.obj'
   198004   Module 'Obj\fileSystem_api.E6C4835F.obj'
   198004   Module 'Obj\sciLexer_api.20CB027C.obj'
   198004   Module 'Obj\time_api.29E4C41C.obj'
   198004   Module 'Obj\sciLexer.ADC40A53.obj'
   198004   Module 'Obj\sciLexerSupport.FEC4A01D.obj'
   198004   Module 'Obj\programControl.7530D49A.obj'
   198004   Module 'Obj\exe_api.DA526B1E.obj'
   198004   Module 'Obj\exe.DC930661.obj'
   198004   Module 'Obj\multiThread_api.967EC9F4.obj'
   198004   Module 'Obj\memory.34E541C8.obj'
   198004   Module 'Obj\windowsAPI.BBE7373F.obj'
   198004   Module 'Obj\event.43AD3974.obj'
   198004   Module 'Obj\vpiDomains.FDDD2E01.obj'
   198004   Module 'Obj\iStream_api.5B967311.obj'
   198004   Module 'Obj\gdiplus_api.D6623B9A.obj'
   198004   Module 'Obj\gui_api.7E4A6614.obj'
   198004   Module 'Obj\Command.0BA5442E.obj'
   198004   Module 'Obj\gdiplus.80149785.obj'
   198004   Module 'Obj\guiSupport.F74ABA7D.obj'
   198004   Module 'Obj\ImageList.3CB6D429.obj'
   198004   Module 'Obj\toolTip.7F7B3527.obj'
   198004   Module 'Obj\vpiToolbar.E9E27E84.obj'
   198004   Module 'Obj\Toolbars.B027D95B.obj'
   198004   Module 'Obj\vpi.E4453945.obj'
   198004   Module 'Obj\exception.1550E8BC.obj'
   198004   Module 'Obj\TaskWindow.3D15576A.obj'
   198004   Module 'Obj\gui.0D1EF882.obj'
   198004   Module 'Obj\controls.5CEFAE16.obj'
   198004   Module 'Obj\messageControl.6297CBEC.obj'
   198004   Module 'Obj\main.A22FE9BF.obj'
   198004   Module 'Obj\core.8DAFDFE7.obj'
198000:000004 000008   VIPsym$E::VIPsym$E::VIPsym F=4
   198004   Module 'Obj\main.A22FE9BF.obj'

Frame 199000   Size 0021A0.  Name=<  VIPtpl>, 	Chars=40000040h. [IR]
199000:000000 000004   VIPtpl$A::VIPtpl$A::VIPtpl F=4
   199000   Module 'Obj\main.A22FE9BF.obj'
199000:000004 002194   VIPtpl$C::VIPtpl$C::VIPtpl F=4
   199004   Module 'Obj\mapMSupport.0ECEFBBB.obj'
   199020   Module 'Obj\redBlackTree.61E65707.obj'
   199054   Module 'Obj\queueM_fact.876A54BB.obj'
   1990A0   Module 'Obj\namedValue.F1E990DE.obj'
   1990E4   Module 'Obj\reflection.FC95C744.obj'
   199118   Module 'Obj\runTime_api.5DB52876.obj'
   19911C   Module 'Obj\inputStreamSupport.8B7DC50C.obj'
   199130   Module 'Obj\outputStreamSupport.FDA10A7F.obj'
   199134   Module 'Obj\boolean.BCE69FAB.obj'
   199134   Module 'Obj\std.BDD23075.obj'
   199134   Module 'Obj\string_api.2F672E98.obj'
   199134   Module 'Obj\string.6D4DA431.obj'
   19915C   Module 'Obj\systemInformation_api.DBDD8999.obj'
   199170   Module 'Obj\memory_api.02018A2B.obj'
   19917C   Module 'Obj\fileSystem.7C044605.obj'
   1991B8   Module 'Obj\exceptionDump.CAECE2A1.obj'
   1991B8   Module 'Obj\errorPresentationDialog.15C128A1.obj'
   1994D4   Module 'Obj\list.AD480F98.obj'
   1994FC   Module 'Obj\math.2C2938E4.obj'
   199508   Module 'Obj\binary.00AD4D8C.obj'
   199568   Module 'Obj\tooltipSupport.83DE8A73.obj'
   19957C   Module 'Obj\monitorQueue.008796C3.obj'
   19958C   Module 'Obj\multiThread.B0EA2379.obj'
   1995C0   Module 'Obj\ImageList_api.6F906CED.obj'
   1995C8   Module 'Obj\setM_redBlack.0E86AC6B.obj'
   199604   Module 'Obj\uxTheme_api.9A919201.obj'
   199604   Module 'Obj\collection.DA7C4764.obj'
   199604   Module 'Obj\varM.B20C5C3C.obj'
   199634   Module 'Obj\clipboard.110730D5.obj'
   19992C   Module 'Obj\commonDialogs.C2E51EE2.obj'
   199954   Module 'Obj\templateExpander.BA7B80C5.obj'
   19995C   Module 'Obj\controlSupport.376C23EE.obj'
   19999C   Module 'Obj\string8_api.BA8033D7.obj'
   19999C   Module 'Obj\string8.D6F68BA1.obj'
   19999C   Module 'Obj\registry.41898AB3.obj'
   1999A4   Module 'Obj\regEx.0DEBB752.obj'
   199A28   Module 'Obj\mapM_redBlack.0FBEF488.obj'
   199A6C   Module 'Obj\Shell_api.179771F5.obj'
   199AB0   Module 'Obj\registry_api.2BAF66BB.obj'
   199AB8   Module 'Obj\redBlackSet.CF7D536C.obj'
   199AE0   Module 'Obj\collectionMsupport.F70BFF5E.obj'
   199AE8   Module 'Obj\locale_api.7AB46CAD.obj'
   199AFC   Module 'Obj\stream.8B1D7847.obj'
   199B2C   Module 'Obj\fileSystem_api.E6C4835F.obj'
   199BCC   Module 'Obj\sciLexer_api.20CB027C.obj'
   199BE4   Module 'Obj\time_api.29E4C41C.obj'
   199BF8   Module 'Obj\sciLexer.ADC40A53.obj'
   199C0C   Module 'Obj\sciLexerSupport.FEC4A01D.obj'
   199C4C   Module 'Obj\programControl.7530D49A.obj'
   199C70   Module 'Obj\exe_api.DA526B1E.obj'
   199C78   Module 'Obj\exe.DC930661.obj'
   199CC4   Module 'Obj\multiThread_api.967EC9F4.obj'
   199CF0   Module 'Obj\memory.34E541C8.obj'
   199D68   Module 'Obj\windowsAPI.BBE7373F.obj'
   199D6C   Module 'Obj\event.43AD3974.obj'
   199EB8   Module 'Obj\vpiDomains.FDDD2E01.obj'
   199F10   Module 'Obj\iStream_api.5B967311.obj'
   199F10   Module 'Obj\gdiplus_api.D6623B9A.obj'
   199F6C   Module 'Obj\gui_api.7E4A6614.obj'
   19A08C   Module 'Obj\Command.0BA5442E.obj'
   19A34C   Module 'Obj\gdiplus.80149785.obj'
   19A3F8   Module 'Obj\guiSupport.F74ABA7D.obj'
   19A404   Module 'Obj\ImageList.3CB6D429.obj'
   19A40C   Module 'Obj\toolTip.7F7B3527.obj'
   19A424   Module 'Obj\vpiToolbar.E9E27E84.obj'
   19A44C   Module 'Obj\Toolbars.B027D95B.obj'
   19A44C   Module 'Obj\vpi.E4453945.obj'
   19A764   Module 'Obj\exception.1550E8BC.obj'
   19A788   Module 'Obj\TaskWindow.3D15576A.obj'
   19AAD0   Module 'Obj\gui.0D1EF882.obj'
   19ABBC   Module 'Obj\controls.5CEFAE16.obj'
   19AC68   Module 'Obj\messageControl.6297CBEC.obj'
   19ACC8   Module 'Obj\main.A22FE9BF.obj'
   19B048   Module 'Obj\core.8DAFDFE7.obj'
199000:002198 000008   VIPtpl$E::VIPtpl$E::VIPtpl F=4
   19B198   Module 'Obj\main.A22FE9BF.obj'

Frame 19C000   Size 000420.  Name=<   .data>, 	Chars=C0000040h. [IRW]
19C000:000000 00040C   .data::DATA::DGROUP F=4
   19C000   Module 'Obj\mapMSupport.0ECEFBBB.obj'
   19C008   Module 'Obj\queueM_fact.876A54BB.obj'
   19C010   Module 'Obj\runTime_api.5DB52876.obj'
   19C014   Module 'Obj\inputStreamSupport.8B7DC50C.obj'
   19C01C   Module 'Obj\outputStreamSupport.FDA10A7F.obj'
   19C024   Module 'Obj\string.6D4DA431.obj'
   19C034   Module 'Obj\fileSystem.7C044605.obj'
   19C04C   Module 'Obj\errorPresentationDialog.15C128A1.obj'
   19C060   Module 'Obj\binary.00AD4D8C.obj'
   19C070   Module 'Obj\tooltipSupport.83DE8A73.obj'
   19C078   Module 'Obj\monitorQueue.008796C3.obj'
   19C080   Module 'Obj\multiThread.B0EA2379.obj'
   19C0C0   Module 'Obj\setM_redBlack.0E86AC6B.obj'
   19C0C8   Module 'Obj\varM.B20C5C3C.obj'
   19C0F0   Module 'Obj\commonDialogs.C2E51EE2.obj'
   19C0F8   Module 'Obj\controlSupport.376C23EE.obj'
   19C134   Module 'Obj\regEx.0DEBB752.obj'
   19C138   Module 'Obj\mapM_redBlack.0FBEF488.obj'
   19C140   Module 'Obj\registry_api.2BAF66BB.obj'
   19C144   Module 'Obj\collectionMsupport.F70BFF5E.obj'
   19C14C   Module 'Obj\stream.8B1D7847.obj'
   19C164   Module 'Obj\fileSystem_api.E6C4835F.obj'
   19C168   Module 'Obj\time_api.29E4C41C.obj'
   19C170   Module 'Obj\sciLexer.ADC40A53.obj'
   19C178   Module 'Obj\sciLexerSupport.FEC4A01D.obj'
   19C188   Module 'Obj\multiThread_api.967EC9F4.obj'
   19C190   Module 'Obj\memory.34E541C8.obj'
   19C198   Module 'Obj\event.43AD3974.obj'
   19C1D8   Module 'Obj\gui_api.7E4A6614.obj'
   19C1E0   Module 'Obj\Command.0BA5442E.obj'
   19C1EC   Module 'Obj\gdiplus.80149785.obj'
   19C2C4   Module 'Obj\guiSupport.F74ABA7D.obj'
   19C2CC   Module 'Obj\ImageList.3CB6D429.obj'
   19C2D4   Module 'Obj\toolTip.7F7B3527.obj'
   19C2EC   Module 'Obj\vpi.E4453945.obj'
   19C2F8   Module 'Obj\exception.1550E8BC.obj'
   19C300   Module 'Obj\TaskWindow.3D15576A.obj'
   19C310   Module 'Obj\gui.0D1EF882.obj'
   19C364   Module 'Obj\controls.5CEFAE16.obj'
   19C3F4   Module 'Obj\messageControl.6297CBEC.obj'
19C000:00040C 00000C   .bss::BSS::DGROUP F=4
   19C40C   Module '..\..\..\_intermediate\sourceVS\vip7init\Win32\ReleasePE\VIPDll.obj'

	     ------- Names by value Map ---------
Frame 001000   Size 0DF980.  Name=<   .text>, 	Chars=60000020h. [CER]
001000:000000 0DF980   .text::CODE::<no group> F=4
--- From 'Obj\mapM_redBlack.0FBEF488.obj'
01:00001000 ?new@mapMSupport@collectionSupportM@@SAXQAV1@2@PAXPAXQAVrTypeLibrary@TypeLibraries@RunTime@VIP@@1QAVmapMSite@@2@PAXPAX@Z 
--- From 'Obj\mapMSupport.0ECEFBBB.obj'
01:00001048 ?_get@mapMSupport@collectionSupportM@@SAXQAV1@@PAXPAXPAXPAPAX@Z 
01:000010C0 ?_get_default@mapMSupport@collectionSupportM@@SAXQAV1@@PAXPAXPAXPAXPAPAX@Z 
01:00001104 ?_get_optional@mapMSupport@collectionSupportM@@SAXQAV1@@PAXPAXPAXPAPAUoptional_struct@core@@PAPAX@Z 
01:0000116C ?contains@mapMSupport@collectionSupportM@@SAXQAV1@@PAXPAXPAUtuple_struct@core@@PAXPAX@Z 
01:000011B4 ?_getKey_nd@mapMSupport@collectionSupportM@@SAXQAV1@@PAXPAXPAPAX@Z 
01:000011E8 ?_getValue_nd@mapMSupport@collectionSupportM@@SAXQAV1@@PAXPAXPAPAX@Z 
01:0000121C ?keyList@mapMSupport@collectionSupportM@@SGPAU?$__list_struct@PAX@@QAV1@@PAXPAX@Z 
01:00001288 ?valueList@mapMSupport@collectionSupportM@@SGPAU?$__list_struct@PAX@@QAV1@@PAXPAX@Z 
01:000012F4 ?insert@mapMSupport@collectionSupportM@@SAXQAV1@@PAXPAXPAUtuple_struct@core@@PAXPAX@Z 
01:00001330 ?set_optional@mapMSupport@collectionSupportM@@SAXQAV1@@PAXPAXPAXPAUoptional_struct@core@@PAX@Z 
01:00001378 ?remove@mapMSupport@collectionSupportM@@SAXQAV1@@PAXPAXPAUtuple_struct@core@@PAXPAX@Z 
01:000013E4 ?removeKeyList@mapMSupport@collectionSupportM@@SAXQAV1@@PAXPAXPAU?$__list_struct@PAX@@@Z 
01:00001434 ?removeKeyCollection@mapMSupport@collectionSupportM@@SAXQAV1@@PAXPAXQAVcollection@@@PAX@Z 
01:0000147C ?_new@mapMSupport@collectionSupportM@@SAXQAVrTypeLibrary@TypeLibraries@RunTime@VIP@@0QAVmapMSite@@2@PAXPAXPAPAV1@@PAPAXPAPAX@Z  (Idle)
01:000014B8 ?_object_typelib_initializer@mapMSupport@collectionSupportM@@SGXQAV1@2@PAXPAXQAVrTypeLibrary@TypeLibraries@RunTime@VIP@@1@Z 
01:000014D4 ?_mk_tl_0_collectionSupportM\collectionMsupport{@Type}$imp$@mapMSupport@collectionSupportM@@SGQAVrTypeLibrary@TypeLibraries@RunTime@VIP@@QAV1@2@PAXPAX@Z 
01:00001508 ?_getAll_nd@mapMSupport@collectionSupportM@@SAXQAVcollectionMsite@@2@PAXPAPAX@Z 
--- From 'Obj\mapM_redBlack.0FBEF488.obj'
01:000015EC collectionSupportM\mapMSupport{@Key,@Data}?_initObject@@@QAGXQAV1@H@Z 
--- From 'Obj\mapMSupport.0ECEFBBB.obj'
01:00001640 ?@create_object@mapMSupport@collectionSupportM@@SGQAV1@2@PAXPAXQAVrTypeLibrary@TypeLibraries@RunTime@VIP@@0@Z 
--- From 'Obj\mapM_redBlack.0FBEF488.obj'
01:00001668 collectionSupportM\mapMSupport{@Key,@Data}?_InternalFinalizer@@@QAGXQAV1@@Z 
--- From 'Obj\redBlackTree.61E65707.obj'
01:00001680 ?_anonymous$c0$1$empty/0$redBlackTree@1@SAXPAUanonymous$c0$1$empty/0$redBlackTreec_struct@1@PAXPAXPAPAUcompareResult_struct@_builtIn@@@Z 
01:00001698 ?_empty@redBlackTree@@SAXQAVrTypeLibrary@TypeLibraries@RunTime@VIP@@0PAPAUtree_struct@1@PAPAXPAPAX@Z  (Idle)
01:0000170C ?_anonymous$c0$1$emptyUnique/0$redBlackTree@1@SAXPAUanonymous$c0$1$emptyUnique/0$redBlackTreec_struct@1@PAXPAXPAPAUcompareResult_struct@_builtIn@@@Z 
--- From 'Obj\mapM_redBlack.0FBEF488.obj'
01:00001724 ?_emptyUnique@redBlackTree@@SAXQAVrTypeLibrary@TypeLibraries@RunTime@VIP@@0PAPAUtree_struct@1@PAPAXPAPAX@Z 
--- From 'Obj\redBlackTree.61E65707.obj'
01:00001798 ?_cmp@redBlackTree@@SAXQAVrTypeLibrary@TypeLibraries@RunTime@VIP@@PAXPAXPAPAUcompareResult_struct@_builtIn@@@Z 
01:000017A0 ?_emptyCustom@redBlackTree@@SAXQAVrTypeLibrary@TypeLibraries@RunTime@VIP@@0XPAPAUtree_struct@1@PAPAXPAPAX@Z  (Idle)
--- From 'Obj\mapM_redBlack.0FBEF488.obj'
01:000017EC ?_emptyCustomUnique@redBlackTree@@SAXQAVrTypeLibrary@TypeLibraries@RunTime@VIP@@0XPAPAUtree_struct@1@PAPAXPAPAX@Z 
01:00001838 ?_emptySameKind@redBlackTree@@SAXQAVrTypeLibrary@TypeLibraries@RunTime@VIP@@0PAUtree_struct@1@PAXPAXPAPAU21@PAPAXPAPAX@Z 
--- From 'Obj\redBlackTree.61E65707.obj'
01:00001870 ?isEmpty@redBlackTree@@SAXQAVrTypeLibrary@TypeLibraries@RunTime@VIP@@0PAUtree_struct@1@PAXPAX@Z  (Idle)
--- From 'Obj\mapM_redBlack.0FBEF488.obj'
01:00001894 ?_insert@redBlackTree@@SAXQAVrTypeLibrary@TypeLibraries@RunTime@VIP@@0PAUtree_struct@1@PAXPAXPAXPAXPAPAU21@PAPAXPAPAX@Z 
--- From 'Obj\redBlackTree.61E65707.obj'
01:000018FC ?_delete@redBlackTree@@SAXQAVrTypeLibrary@TypeLibraries@RunTime@VIP@@0PAUtree_struct@1@PAXPAXPAXPAXPAPAU21@PAPAXPAPAX@Z  (Idle)
--- From 'Obj\mapM_redBlack.0FBEF488.obj'
01:00001964 ?_tryDeleteOne@redBlackTree@@SAXQAVrTypeLibrary@TypeLibraries@RunTime@VIP@@0PAUtree_struct@1@PAXPAXPAXPAPAXPAPAU21@PAPAXPAPAX@Z 
--- From 'Obj\redBlackTree.61E65707.obj'
01:000019CC ?_tryDeleteFirst@redBlackTree@@SAXQAVrTypeLibrary@TypeLibraries@RunTime@VIP@@0PAUtree_struct@1@PAXPAXPAPAX3PAPAU21@PAPAXPAPAX@Z  (Idle)
01:00001A18 ?_lookUp_nd@redBlackTree@@SAXQAVrTypeLibrary@TypeLibraries@RunTime@VIP@@0PAUtree_struct@1@PAXPAXPAXPAPAX@Z  (Idle)
--- From 'Obj\mapM_redBlack.0FBEF488.obj'
01:00001A54 ?_tryLookUp@redBlackTree@@SAXQAVrTypeLibrary@TypeLibraries@RunTime@VIP@@0PAUtree_struct@1@PAXPAXPAXPAPAX@Z 
01:00001A7C ?_getAll_nd@redBlackTree@@SAXQAVrTypeLibrary@TypeLibraries@RunTime@VIP@@0PAUtree_struct@1@PAXPAXPAPAUtuple_struct@core@@PAPAXPAPAX@Z 
01:00001AD0 ?_upFrom_nd@redBlackTree@@SAXQAVrTypeLibrary@TypeLibraries@RunTime@VIP@@0PAUtree_struct@1@PAXPAXPAXPAPAUtuple_struct@core@@PAPAXPAPAX@Z 
01:00001B0C ?_downFrom_nd@redBlackTree@@SAXQAVrTypeLibrary@TypeLibraries@RunTime@VIP@@0PAUtree_struct@1@PAXPAXPAXPAPAUtuple_struct@core@@PAPAXPAPAX@Z 
--- From 'Obj\redBlackTree.61E65707.obj'
01:00001B48 ?_comp@redBlackTree@@SAXQAVrTypeLibrary@TypeLibraries@RunTime@VIP@@PAUtreeProperty_struct@1@PAXPAXPAXPAPAUcompareResult_struct@_builtIn@@@Z  (Idle)
01:00001B78 ?tryGetNode@redBlackTree@@SAXQAVrTypeLibrary@TypeLibraries@RunTime@VIP@@0PAUtreeRep_struct@1@PAXPAXPAPAU21@PAPAXPAPAXPAPAX43@Z  (Idle)
01:00001BE4 ?_find_nd_rep@redBlackTree@@SAXQAVrTypeLibrary@TypeLibraries@RunTime@VIP@@0PAUtreeProperty_struct@1@PAXPAXPAUtreeRep_struct@1@PAXPAXPAPAX@Z 
01:00001C68 ?_find_nd_rep1@redBlackTree@@SAXQAVrTypeLibrary@TypeLibraries@RunTime@VIP@@0PAUtreeProperty_struct@1@PAXPAUcompareResult_struct@_builtIn@@PAXPAUtreeRep_struct@1@PAXPAXPAX5PAPAX@Z 
01:00001D4C ?get_nd_rep@redBlackTree@@SAXQAVrTypeLibrary@TypeLibraries@RunTime@VIP@@0PAUtreeRep_struct@1@PAXPAXPAPAX3@Z 
01:00001DFC ?_upFrom_nd_rep@redBlackTree@@SAXQAVrTypeLibrary@TypeLibraries@RunTime@VIP@@0PAUtreeProperty_struct@1@PAXPAXPAUtreeRep_struct@1@PAXPAXPAPAUtuple_struct@core@@PAPAXPAPAX@Z 
01:00001E90 ?_upFrom_nd_rep1@redBlackTree@@SAXQAVrTypeLibrary@TypeLibraries@RunTime@VIP@@0PAUtreeProperty_struct@1@PAXPAUcompareResult_struct@_builtIn@@PAXPAUtreeRep_struct@1@PAXPAXPAXPAX5PAPAUtuple_struct@core@@PAPAXPAPAX@Z 
01:00001F60 ?_downFrom_nd_rep@redBlackTree@@SAXQAVrTypeLibrary@TypeLibraries@RunTime@VIP@@0PAUtreeProperty_struct@1@PAXPAXPAUtreeRep_struct@1@PAXPAXPAPAUtuple_struct@core@@PAPAXPAPAX@Z 
01:00001FF4 ?_downFrom_nd_rep1@redBlackTree@@SAXQAVrTypeLibrary@TypeLibraries@RunTime@VIP@@0PAUtreeProperty_struct@1@PAXPAUcompareResult_struct@_builtIn@@PAXPAUtreeRep_struct@1@PAXPAXPAXPAX5PAPAUtuple_struct@core@@PAPAXPAPAX@Z 
01:000020C4 ?_insert_rep@redBlackTree@@SAXQAVrTypeLibrary@TypeLibraries@RunTime@VIP@@0PAUtreeProperty_struct@1@PAXPAXPAXPAUtreeRep_struct@1@PAXPAXPAPAU41@PAPAXPAPAX@Z 
01:00002100 ?_ins@redBlackTree@@SAXQAVrTypeLibrary@TypeLibraries@RunTime@VIP@@0PAUtreeProperty_struct@1@PAXPAXPAXPAUtreeRep_struct@1@PAXPAXPAPAU41@PAPAXPAPAX@Z 
01:0000227C ?_ins_black@redBlackTree@@SAXQAVrTypeLibrary@TypeLibraries@RunTime@VIP@@0PAUtreeProperty_struct@1@PAXPAUcompareResult_struct@_builtIn@@PAXPAXPAUtreeRep_struct@1@PAXPAXPAXPAX6PAPAU61@PAPAXPAPAX@Z 
01:000023B8 ?_ins_red@redBlackTree@@SAXQAVrTypeLibrary@TypeLibraries@RunTime@VIP@@0PAUtreeProperty_struct@1@PAXPAUcompareResult_struct@_builtIn@@PAXPAXPAUtreeRep_struct@1@PAXPAXPAXPAX6PAPAU61@PAPAXPAPAX@Z 
01:00002524 ?_balance@redBlackTree@@SAXQAVrTypeLibrary@TypeLibraries@RunTime@VIP@@0PAUtreeRep_struct@1@PAXPAXPAXPAX2PAPAU21@PAPAXPAPAX@Z 
01:00002CF4 ?_makeblack@redBlackTree@@SAXQAVrTypeLibrary@TypeLibraries@RunTime@VIP@@0PAUtreeRep_struct@1@PAXPAXPAPAU21@PAPAXPAPAX@Z 
01:00002D78 ?_delete_rep@redBlackTree@@SAXQAVrTypeLibrary@TypeLibraries@RunTime@VIP@@0PAUtreeProperty_struct@1@PAXPAXPAXPAUtreeRep_struct@1@PAXPAXPAPAU41@PAPAXPAPAX@Z 
01:00002DCC ?del@redBlackTree@@SAXQAVrTypeLibrary@TypeLibraries@RunTime@VIP@@0PAUtreeProperty_struct@1@PAXPAXPAXPAUtreeRep_struct@1@PAXPAXPAPAU41@PAPAXPAPAXPAPAUboolean_struct@_builtIn@@@Z 
01:00002EA4 ?del1@redBlackTree@@SAXQAVrTypeLibrary@TypeLibraries@RunTime@VIP@@0PAUtreeProperty_struct@1@PAXPAUcompareResult_struct@_builtIn@@PAXPAXPAUtreeRep_struct@1@PAXPAXPAXPAX6PAPAU61@PAPAXPAPAXPAPAUboolean_struct@5@@Z 
01:00002FF8 ?delLeft@redBlackTree@@SAXQAVrTypeLibrary@TypeLibraries@RunTime@VIP@@0PAUtreeProperty_struct@1@PAXPAXPAXPAUtreeRep_struct@1@PAXPAXPAXPAX5PAPAU41@PAPAXPAPAXPAPAUboolean_struct@_builtIn@@@Z 
01:000030A0 ?delRight@redBlackTree@@SAXQAVrTypeLibrary@TypeLibraries@RunTime@VIP@@0PAUtreeProperty_struct@1@PAXPAXPAXPAUtreeRep_struct@1@PAXPAXPAXPAX5PAPAU41@PAPAXPAPAXPAPAUboolean_struct@_builtIn@@@Z 
01:00003150 ?_tryDeleteOne_rep@redBlackTree@@SAXQAVrTypeLibrary@TypeLibraries@RunTime@VIP@@0PAUtreeProperty_struct@1@PAXPAXPAUtreeRep_struct@1@PAXPAXPAPAXPAPAU41@PAPAXPAPAX@Z 
01:0000318C ?_tryDel@redBlackTree@@SAXQAVrTypeLibrary@TypeLibraries@RunTime@VIP@@0PAUtreeProperty_struct@1@PAXPAXPAUtreeRep_struct@1@PAXPAXPAPAXPAPAU41@PAPAXPAPAX@Z 
01:0000322C ?_tryDel1@redBlackTree@@SAXQAVrTypeLibrary@TypeLibraries@RunTime@VIP@@0PAUtreeProperty_struct@1@PAXPAUcompareResult_struct@_builtIn@@PAXPAUtreeRep_struct@1@PAXPAXPAXPAX5PAPAXPAPAU61@PAPAXPAPAX@Z 
01:000032CC ?_tryDelLeft@redBlackTree@@SAXQAVrTypeLibrary@TypeLibraries@RunTime@VIP@@0PAUtreeProperty_struct@1@PAXPAXPAUtreeRep_struct@1@PAXPAXPAXPAX4PAPAXPAPAU41@PAPAXPAPAX@Z 
01:0000337C ?_tryDelRight@redBlackTree@@SAXQAVrTypeLibrary@TypeLibraries@RunTime@VIP@@0PAUtreeProperty_struct@1@PAXPAXPAUtreeRep_struct@1@PAXPAXPAXPAX4PAPAXPAPAU41@PAPAXPAPAX@Z 
01:00003434 ?_balLeft@redBlackTree@@SAXQAVrTypeLibrary@TypeLibraries@RunTime@VIP@@0PAUtreeRep_struct@1@PAXPAXPAXPAX2PAPAU21@PAPAXPAPAX@Z 
01:000036FC ?_balRight@redBlackTree@@SAXQAVrTypeLibrary@TypeLibraries@RunTime@VIP@@0PAUtreeRep_struct@1@PAXPAXPAXPAX2PAPAU21@PAPAXPAPAX@Z 
01:000039CC ?_sub1@redBlackTree@@SAXQAVrTypeLibrary@TypeLibraries@RunTime@VIP@@0PAUtreeRep_struct@1@PAXPAXPAPAU21@PAPAXPAPAX@Z 
01:00003A54 ?_mkNode@redBlackTree@@SAXQAVrTypeLibrary@TypeLibraries@RunTime@VIP@@0PAUtreeRep_struct@1@PAXPAX2PAPAU21@PAPAXPAPAX@Z 
01:00003D30 ?_mkNodeRR_BC@redBlackTree@@SAXQAVrTypeLibrary@TypeLibraries@RunTime@VIP@@0PAUtreeRep_struct@1@PAXPAXPAXPAX2PAXPAX2PAPAU21@PAPAXPAPAX@Z 
01:00003E64 ?_mkNodeBB_BC@redBlackTree@@SAXQAVrTypeLibrary@TypeLibraries@RunTime@VIP@@0PAUtreeRep_struct@1@PAXPAXPAXPAX2PAXPAX2PAPAU21@PAPAXPAPAX@Z 
--- From 'Obj\queueM_fact.876A54BB.obj'
01:00003F70 ?new@queueM_fact@@SAXQAV1@@PAXQAVrTypeLibrary@TypeLibraries@RunTime@VIP@@@Z  (Idle)
01:00003F88 ?contains@queueM_fact@@SAXQAVcollection@@@PAXPAX@Z 
01:00003FE8 ?_getAll_nd@queueM_fact@@SAXQAVcollection@@@PAXPAPAX@Z 
01:00004034 ?insert@queueM_fact@@SAXQAVmodifiable@@@PAXPAX@Z 
01:0000405C ?insertFirst@queueM_fact@@SAXQAVqueueM@@@PAXPAX@Z 
01:00004084 ?remove@queueM_fact@@SAXQAVmodifiable@@@PAXPAX@Z 
01:0000413C ?clear@queueM_fact@@SAXQAVmodifiable@@@PAX@Z 
--- From 'Obj\regEx.0DEBB752.obj'
01:00004178 ?_new@queueM_fact@@SAXQAVrTypeLibrary@TypeLibraries@RunTime@VIP@@PAPAVqueueM@@@PAPAX@Z 
--- From 'Obj\queueM_fact.876A54BB.obj'
01:000041A4 ?_object_typelib_initializer@queueM_fact@@SGXQAV1@@PAXQAVrTypeLibrary@TypeLibraries@RunTime@VIP@@@Z 
01:00004378 queueM_fact{@Type}?_initObject@@@QAGXQAV1@H@Z 
01:000043B4 ?@create_object@queueM_fact@@SGQAV1@@PAXQAVrTypeLibrary@TypeLibraries@RunTime@VIP@@@Z 
01:000043D8 queueM_fact{@Type}?_InternalFinalizer@@@QAGXQAV1@@Z 
--- From 'Obj\errorPresentationDialog.15C128A1.obj'
01:000043F0 ?_tryMapLookUp@namedValue@@SAXPAU?$__list_struct@U1@@@PB_WPAPAUvalue_struct@core@@@Z 
--- From 'Obj\namedValue.F1E990DE.obj'
01:00004448 ?_tryMapLookUpIgnoreCase@namedValue@@SAXPAU?$__list_struct@U1@@@PB_WPAPAUvalue_struct@core@@@Z  (Idle)
01:000044AC ?_mapLookUp@namedValue@@SAXPAU?$__list_struct@U1@@@PB_WPAPAUvalue_struct@core@@@Z  (Idle)
01:000045AC ?_mapLookUp@namedValue@@SAXPAU?$__list_struct@U1@@@PB_WPAUvalue_struct@core@@PAPAU34@@Z  (Idle)
01:000045E8 ?_lookUp_nd@namedValue@@SAXPAU?$__list_struct@U1@@@PB_WPAPAUvalue_struct@core@@@Z  (Idle)
01:00004654 ?_getNamed_integer@namedValue@@SAXPAU?$__list_struct@U1@@@PB_WPAH@Z  (Idle)
01:0000469C ?_tryGetNamed_integer@namedValue@@SAXPAU?$__list_struct@U1@@@PB_WPAH@Z  (Idle)
01:000046D4 ?_getNamedDefault_integer@namedValue@@SAXPAU?$__list_struct@U1@@@PB_WHPAH@Z  (Idle)
01:0000472C ?_getNamed_unsigned@namedValue@@SAXPAU?$__list_struct@U1@@@PB_WPAI@Z  (Idle)
01:00004774 ?_tryGetNamed_unsigned@namedValue@@SAXPAU?$__list_struct@U1@@@PB_WPAI@Z  (Idle)
01:000047AC ?_getNamedDefault_unsigned@namedValue@@SAXPAU?$__list_struct@U1@@@PB_WIPAI@Z  (Idle)
01:00004804 ?_getNamed_real@namedValue@@SAXPAU?$__list_struct@U1@@@PB_WPAPAN@Z  (Idle)
01:0000484C ?_tryGetNamed_real@namedValue@@SAXPAU?$__list_struct@U1@@@PB_WPAPAN@Z  (Idle)
01:00004884 ?_getNamedDefault_real@namedValue@@SAXPAU?$__list_struct@U1@@@PB_WPANPAPAN@Z  (Idle)
01:000048DC ?_getNamed_char@namedValue@@SAXPAU?$__list_struct@U1@@@PB_WPA_W@Z  (Idle)
01:00004924 ?_tryGetNamed_char@namedValue@@SAXPAU?$__list_struct@U1@@@PB_WPA_W@Z  (Idle)
01:0000495C ?_getNamedDefault_char@namedValue@@SAXPAU?$__list_struct@U1@@@PB_W_WPA_W@Z  (Idle)
01:000049B8 ?_getNamed_string@namedValue@@SAXPAU?$__list_struct@U1@@@PB_WPAPB_W@Z  (Idle)
--- From 'Obj\exception.1550E8BC.obj'
01:00004A00 ?_tryGetNamed_string@namedValue@@SAXPAU?$__list_struct@U1@@@PB_WPAPB_W@Z 
--- From 'Obj\namedValue.F1E990DE.obj'
01:00004A38 ?_getNamedDefault_string@namedValue@@SAXPAU?$__list_struct@U1@@@PB_W1PAPB_W@Z  (Idle)
01:00004A90 ?_getNamed_boolean@namedValue@@SAXPAU?$__list_struct@U1@@@PB_WPAPAUboolean_struct@_builtIn@@@Z  (Idle)
01:00004AD8 ?_tryGetNamed_boolean@namedValue@@SAXPAU?$__list_struct@U1@@@PB_WPAPAUboolean_struct@_builtIn@@@Z  (Idle)
01:00004B10 ?_getNamedDefault_boolean@namedValue@@SAXPAU?$__list_struct@U1@@@PB_WPAUboolean_struct@_builtIn@@PAPAU34@@Z  (Idle)
01:00004B68 ?_getNamed_binary@namedValue@@SAXPAU?$__list_struct@U1@@@PB_WQAPAE@Z  (Idle)
01:00004BE8 ?_tryGetNamed_binary@namedValue@@SAXPAU?$__list_struct@U1@@@PB_WQAPAE@Z  (Idle)
01:00004C20 ?_getNamedDefault_binary@namedValue@@SAXPAU?$__list_struct@U1@@@PB_WQAEQAPAE@Z  (Idle)
01:00004C68 ?_getNamed_object@namedValue@@SAXPAU?$__list_struct@U1@@@PB_WPAPAV3@@@Z  (Idle)
01:00004CE8 ?_tryGetNamed_object@namedValue@@SAXPAU?$__list_struct@U1@@@PB_WPAPAV3@@@Z  (Idle)
01:00004D20 ?_getNamedDefault_object@namedValue@@SAXPAU?$__list_struct@U1@@@PB_WQAV3@@PAPAV3@@@Z  (Idle)
01:00004D68 ?_getNamed_pointer@namedValue@@SAXPAU?$__list_struct@U1@@@PB_WPAPAX@Z  (Idle)
01:00004DE8 ?_tryGetNamed_pointer@namedValue@@SAXPAU?$__list_struct@U1@@@PB_WPAPAX@Z  (Idle)
01:00004E20 ?_getNamedDefault_pointer@namedValue@@SAXPAU?$__list_struct@U1@@@PB_WPAXPAPAX@Z  (Idle)
01:00004E78 ?_getNamed_handle@namedValue@@SAXPAU?$__list_struct@U1@@@PB_WAAU3@@Z  (Idle)
01:00004EF8 ?_tryGetNamed_handle@namedValue@@SAXPAU?$__list_struct@U1@@@PB_WAAU3@@Z  (Idle)
01:00004F30 ?_getNamedDefault_handle@namedValue@@SAXPAU?$__list_struct@U1@@@PB_WPBU3@AAU3@@Z  (Idle)
01:00004F88 ?_getNamed_gmtTimeValue@namedValue@@SAXPAU?$__list_struct@U1@@@PB_WPAAAU3@@Z  (Idle)
01:00004FD0 ?_tryGetNamed_gmtTimeValue@namedValue@@SAXPAU?$__list_struct@U1@@@PB_WPAAAU3@@Z  (Idle)
01:00005008 ?_getNamedDefault_gmtTimeValue@namedValue@@SAXPAU?$__list_struct@U1@@@PB_WPAPBU3@PAAAU3@@Z  (Idle)
01:00005060 ?_getNamed_integer64@namedValue@@SAXPAU?$__list_struct@U1@@@PB_WPAPA_J@Z  (Idle)
01:000050E0 ?_tryGetNamed_integer64@namedValue@@SAXPAU?$__list_struct@U1@@@PB_WPAPA_J@Z  (Idle)
01:00005118 ?_getNamedDefault_integer64@namedValue@@SAXPAU?$__list_struct@U1@@@PB_WPA_JPAPA_J@Z  (Idle)
01:00005160 ?_getNamed_unsigned64@namedValue@@SAXPAU?$__list_struct@U1@@@PB_WPAPA_K@Z  (Idle)
01:000051E0 ?_tryGetNamed_unsigned64@namedValue@@SAXPAU?$__list_struct@U1@@@PB_WPAPA_K@Z  (Idle)
01:00005218 ?_getNamedDefault_unsigned64@namedValue@@SAXPAU?$__list_struct@U1@@@PB_WPA_KPAPA_K@Z  (Idle)
--- From 'Obj\reflection.FC95C744.obj'
01:00005260 ?_getTypeKind@reflection_native@reflection@pfc@@SAXPAUtypeDescriptor_struct@132@PAPAUtypeKind_struct@332@@Z  (Idle)
01:00005274 ?_getFullQualifedName@reflection_native@reflection@pfc@@SAXPAUtypeDescriptor_struct@132@PAPB_W@Z  (Idle)
01:000052C8 ?_getBaseFunctor@reflection_native@reflection@pfc@@SAXPAUcompoundTypeDescr_struct@132@PBUarity@@PAPAUbaseFunctorWithArityDescriptor_struct@132@@Z  (Idle)
01:00005390 ?_getTypeDescr@reflection_native@reflection@pfc@@SAXQAVrTypeLibrary@TypeLibraries@RunTime@VIP@@PAXPAPAUtypeDescriptor_struct@132@@Z  (Idle)
01:000053B8 ?_getTypeLib@reflection_native@reflection@pfc@@SAXQAVrTypeLibrary@TypeLibraries@RunTime@VIP@@PAXPAPAUtypeLib_struct@132@@Z 
01:000053C0 $$$reflection$GetTypeLib 
--- From 'Obj\exception.1550E8BC.obj'
01:000053D0 ?_getScopeDescriptor@reflection_native@reflection@pfc@@SAXPBUhScopeDescriptor@core@@PAPAUscopeDescriptor_struct@132@@Z 
--- From 'Obj\reflection.FC95C744.obj'
01:000053E0 ?isPointerTypeKind@reflection@1pfc@@SAXPAUtypeKind_struct@112@@Z  (Idle)
01:000053F4 ?isPointerTypeKind@reflection@1pfc@@SAXPAUtypeKind_struct@112@PBUbyteCount@core@@@Z 
01:00005468 ?isPointerType@reflection@1pfc@@SAXQAVrTypeLibrary@TypeLibraries@RunTime@VIP@@PAX@Z  (Idle)
01:000054A4 ?_getFunctorName3@reflection@1pfc@@SAXQAVrTypeLibrary@TypeLibraries@RunTime@VIP@@PAUtypeDescriptor_struct@reflection_native@12@PAUtypeKind_struct@112@PAXPAPB_W@Z  (Idle)
01:000055C4 ?_getFunctorName@reflection@1pfc@@SAXQAVrTypeLibrary@TypeLibraries@RunTime@VIP@@PAXPAPB_W@Z 
01:00005620 ?_getFunctorValue@reflection@1pfc@@SAXQAVrTypeLibrary@TypeLibraries@RunTime@VIP@@PAXAAUfunctor@@@Z  (Idle)
01:00005644 ?_offsetof@reflection@1pfc@@SAXQAVrTypeLibrary@TypeLibraries@RunTime@VIP@@PAXIAAUbyteCount@core@@@Z  (Idle)
01:0000585C ?_pointerOfField@reflection@1pfc@@SAXQAVrTypeLibrary@TypeLibraries@RunTime@VIP@@PAXIPAPAX@Z  (Idle)
01:00005888 ?_deParameterizeName@reflection@1pfc@@SAXPB_WPAPB_W@Z  (Idle)
--- From 'Obj\runTime_api.5DB52876.obj'
01:000058D0 ?_determineOSV5@runtime_api@@SAXIIPBUunsigned16@@PAPB_W@Z  (Idle)
01:00005B78 ?_determineOSV4@runtime_api@@SAXIIPBUunsigned16@@PAPB_W@Z  (Idle)
01:00005C10 ?_determineOSV6@runtime_api@@SAXIIPBUunsigned16@@PAPB_W@Z  (Idle)
01:00005DE8 ?_determineMajorVersion@runtime_api@@SAXIIIPBUunsigned16@@PAPB_W@Z  (Idle)
01:00005EB4 ?_determineOSFamily@runtime_api@@SAXIPAPB_W@Z  (Idle)
--- From 'Obj\exception.1550E8BC.obj'
01:00006070 ?getOSVersion@runtime_api@@SAXQAVoutputStream@@@@Z 
--- From 'Obj\runTime_api.5DB52876.obj'
01:0000618C ?_getSysInfoStr@runtime_api@@SAXPAPB_W@Z 
01:0000621C ?_getNativeSysInfo@runtime_api@@SAXPAPB_W@Z 
01:000062AC ?_getRegInfo@runtime_api@@SAXPAPB_W@Z 
01:00006350 ?_getRegInfoK@runtime_api@@SAXPB_WPAPB_W@Z 
01:000063BC ?_printString@runtime_api@@SAXPAUvalue_struct@core@@PAPB_W@Z 
--- From 'Obj\binary.00AD4D8C.obj'
01:00006410 ?new@inputSupport@@SAXQAV1@@QAVinputBuffer@@@PAUmode_struct@stream@@@Z 
--- From 'Obj\inputStreamSupport.8B7DC50C.obj'
01:00006444 ?setMode@inputSupport@@SGXQAV1@@PAUmode_struct@stream@@@Z 
01:00006478 ?getMode@inputSupport@@SGPAUmode_struct@stream@@QAV1@@@Z 
01:00006490 ?_readChar@inputSupport@@SAXQAV1@@PA_W@Z 
01:000064C0 ?ungetChar@inputSupport@@SAXQAV1@@@Z 
01:000064E8 ?_readLine@inputSupport@@SAXQAV1@@PAPB_W@Z 
01:00006518 ?_read@inputSupport@@SAXQAV1@@QAVrTypeLibrary@TypeLibraries@RunTime@VIP@@PAPAX@Z 
01:00006540 ?consult@inputSupport@@SAXQAV1@@PBUfactDB@@@Z 
01:0000656C ?reconsult@inputSupport@@SAXQAV1@@PBUfactDB@@@Z 
01:00006580 ?_readBytes@inputSupport@@SAXQAV1@@PBUbyteCount@@QAPAE@Z 
01:000065A0 ?_readString@inputSupport@@SAXQAV1@@PBUcharCount@@PAPB_W@Z 
01:000065D4 ?checkMode_text_explicit@inputSupport@@SAXQAV1@@PAUprogramPoint_struct@core@@@Z 
01:00006600 ?_convertMode@inputSupport@@SAXPAUmode_struct@stream@@AAUbooleanInt@core@@@Z 
01:00006624 ?endOfStream@inputSupport@@SAXQAV1@@@Z 
01:00006664 ?_new@inputSupport@@SAXQAVinputBuffer@@@PAUmode_struct@stream@@PAPAV1@@@Z  (Idle)
01:00006690 ?inputBuffer@inputSupport@@SGXQAV1@@QAV0@@@Z 
01:000066A0 ?inputBuffer@inputSupport@@SGQAV0@@QAV1@@@Z 
--- From 'Obj\binary.00AD4D8C.obj'
01:000066B4 inputSupport?_initObject@@@QAGXQAV1@H@Z 
--- From 'Obj\inputStreamSupport.8B7DC50C.obj'
01:000066C8 ?@create_object@inputSupport@@SGQAV1@@XZ 
--- From 'Obj\binary.00AD4D8C.obj'
01:000066E4 inputSupport?_InternalFinalizer@@@QAGXQAV1@@Z 
--- From 'Obj\outputStreamSupport.FDA10A7F.obj'
01:000066F0 ?_getFlushProcedure@outputSupport@@SAXQAV1@@PAUboolean_struct@_builtIn@@PAX@Z  (Idle)
01:00006734 ?doFlush@outputSupport@@SAXQAV1@@0@Z 
01:00006744 ?doNotFlush@outputSupport@@SAXQAV1@@@Z 
--- From 'Obj\binary.00AD4D8C.obj'
01:0000674C ?new@outputSupport@@SAXQAV1@@QAVoutputBuffer@@@PAUmode_struct@stream@@PAUboolean_struct@_builtIn@@@Z 
--- From 'Obj\string.6D4DA431.obj'
01:00006790 ?newEx@outputSupport@@SAXQAV1@@QAVoutputBuffer@@@PAUmode_struct@stream@@PAUoptional_struct@core@@X@Z 
--- From 'Obj\outputStreamSupport.FDA10A7F.obj'
01:000067D0 ?nop@outputSupport@@SAXQAV1@@@Z 
01:000067D8 ?setMode@outputSupport@@SGXQAVstream@@@PAUmode_struct@2@@Z 
01:00006808 ?getMode@outputSupport@@SGPAUmode_struct@stream@@QAV3@@@Z 
01:00006820 ?flush@outputSupport@@SGXQAVoutputStream@@@@Z 
01:00006840 ?getPosition@outputSupport@@SGPBUfileSize@fileSystem_api@@QAVstream@@@@Z 
01:00006858 ?setPosition@outputSupport@@SGXQAVstream@@@PBUfileSize@fileSystem_api@@@Z 
01:00006870 ?getCRLFconversion@outputSupport@@SGPAUboolean_struct@_builtIn@@QAVstream@@@@Z 
01:00006884 ?setCRLFconversion@outputSupport@@SGXQAVstream@@@PAUboolean_struct@_builtIn@@@Z 
01:000068AC ?close@outputSupport@@SGXQAVstream@@@@Z 
01:000068BC ?write@outputSupport@@SAXQAVoutputStream@@@@Z 
01:0000690C ?writeQuoted@outputSupport@@SAXQAVoutputStream@@@@Z 
01:0000696C ?writef@outputSupport@@SAXQAVoutputStream@@@PB_W@Z 
01:00006A10 ?nl@outputSupport@@SGXQAVoutputStream@@@@Z 
01:00006A50 ?save@outputSupport@@SGXQAVoutputStream@@@PBUfactDB@@@Z 
01:00006AB4 ?writeBytes@outputSupport@@SGXQAVoutputStream@@@PAXPBUbyteCount@@@Z 
01:00006B08 ?checkMode_text_explicit@outputSupport@@SAXQAV1@@PAUprogramPoint_struct@core@@@Z 
--- From 'Obj\messageControl.6297CBEC.obj'
01:00006B34 ?_new@outputSupport@@SAXQAVoutputBuffer@@@PAUmode_struct@stream@@PAUboolean_struct@_builtIn@@PAPAV1@@@Z 
--- From 'Obj\outputStreamSupport.FDA10A7F.obj'
01:00006B64 ?_newEx@outputSupport@@SAXQAVoutputBuffer@@@PAUmode_struct@stream@@PAUoptional_struct@core@@XPAPAV1@@@Z  (Idle)
--- From 'Obj\binary.00AD4D8C.obj'
01:00006B9C outputSupport?_initObject@@@QAGXQAV1@H@Z 
--- From 'Obj\outputStreamSupport.FDA10A7F.obj'
01:00006BB4 ?@create_object@outputSupport@@SGQAV1@@XZ 
--- From 'Obj\binary.00AD4D8C.obj'
01:00006BD0 outputSupport?_InternalFinalizer@@@QAGXQAV1@@Z 
--- From 'Obj\messageControl.6297CBEC.obj'
01:00006BE0 ?_toBooleanInt@boolean@@SAXPAUboolean_struct@_builtIn@@AAUbooleanInt@@@Z 
--- From 'Obj\controls.5CEFAE16.obj'
01:00006C04 ?_fromBooleanInt@boolean@@SAXPBUbooleanInt@@PAPAUboolean_struct@_builtIn@@@Z 
01:00006C28 ?_logicalNot@boolean@@SAXPAUboolean_struct@_builtIn@@PAPAU23@@Z 
01:00006C4C ?_logicalAnd@boolean@@SAXPAUboolean_struct@_builtIn@@0PAPAU23@@Z 
--- From 'Obj\sciLexer.ADC40A53.obj'
01:00006C88 ?_logicalOr@boolean@@SAXPAUboolean_struct@_builtIn@@0PAPAU23@@Z 
--- From 'Obj\boolean.BCE69FAB.obj'
01:00006CC4 ?_logicalXor@boolean@@SAXPAUboolean_struct@_builtIn@@0PAPAU23@@Z  (Idle)
01:00006CEC ?_ifExp@boolean@@SAXQAVrTypeLibrary@TypeLibraries@RunTime@VIP@@PAUboolean_struct@_builtIn@@PAXPAXPAPAX@Z  (Idle)
--- From 'Obj\sciLexerSupport.FEC4A01D.obj'
01:00006D10 ?_fromTo@std@@SAXHHPAH@Z 
--- From 'Obj\std.BDD23075.obj'
01:00006D58 ?_downTo@std@@SAXHHPAH@Z  (Idle)
01:00006DA0 ?_between@std@@SAXHHPAH@Z  (Idle)
01:00006E40 ?_fromToInStep@std@@SAXHHPBUpositive@@PAH@Z  (Idle)
01:00006E8C ?_downToInStep@std@@SAXHHPBUpositive@@PAH@Z  (Idle)
01:00006ED8 ?_betweenInStep@std@@SAXHHPBUpositive@@PAH@Z  (Idle)
01:00006F8C ?_countFrom@std@@SAXHPAH@Z  (Idle)
01:00006FBC ?_countFromInStep@std@@SAXHPBUpositive@@PAH@Z  (Idle)
01:00006FEC ?_countDownFrom@std@@SAXHPAH@Z  (Idle)
01:0000701C ?_countDownFromInStep@std@@SAXHPBUpositive@@PAH@Z  (Idle)
01:0000704C ?repeat@std@@SAXXZ  (Idle)
--- From 'Obj\exception.1550E8BC.obj'
01:00007068 ?_cIterate@std@@SAXHPAH@Z 
--- From 'Obj\gui_api.7E4A6614.obj'
01:00007098 ?_fromTo@std@@SAXPA_J0PAPA_J@Z 
--- From 'Obj\std.BDD23075.obj'
01:00007174 ?_fromTo@std@@SAXPBUintegerNative@@0AAU2@@Z  (Idle)
--- From 'Obj\sciLexer.ADC40A53.obj'
01:000071C0 ?_fromTo@std@@SAXIIPAI@Z 
--- From 'Obj\std.BDD23075.obj'
01:00007208 ?_fromTo@std@@SAXPA_K0PAPA_K@Z  (Idle)
01:000072E4 ?_fromTo@std@@SAXPBUunsignedNative@@0AAU2@@Z  (Idle)
01:00007330 ?_downTo@std@@SAXPA_J0PAPA_J@Z  (Idle)
01:0000740C ?_downTo@std@@SAXPBUintegerNative@@0AAU2@@Z  (Idle)
01:00007458 ?_downTo@std@@SAXIIPAI@Z  (Idle)
01:000074A0 ?_downTo@std@@SAXPA_K0PAPA_K@Z  (Idle)
01:0000757C ?_downTo@std@@SAXPBUunsignedNative@@0AAU2@@Z  (Idle)
01:000075C8 ?_between@std@@SAXIIPAI@Z  (Idle)
01:00007668 ?_cIterate@std@@SAXIPAH@Z  (Idle)
01:00007698 ?_cIterate@std@@SAXHPAI@Z  (Idle)
01:000076C8 ?_cIterate@std@@SAXIPAI@Z  (Idle)
--- From 'Obj\exception.1550E8BC.obj'
01:00007700 ?format_exceptionHandler_explicit@string_exception@@SAXPAUprogramPoint_struct@core@@PBUtraceId@5@PB_W@Z 
--- From 'Obj\string.6D4DA431.obj'
01:000077E4 ?raise_emptyString_explicit@string_exception@@SAXPAUprogramPoint_struct@core@@@Z  (Idle)
01:000077FC ?raise_outOfBoundaries_explicit@string_exception@@SAXPAUprogramPoint_struct@core@@PBUcharCount@@1@Z  (Idle)
--- From 'Obj\fileSystem.7C044605.obj'
01:000078B8 ?raise_oddOffset_explicit@string_exception@@SAXPAUprogramPoint_struct@core@@PBUbyteCount@@@Z 
--- From 'Obj\regEx.0DEBB752.obj'
01:00007928 ?_create@string@@SAXPBUcharCount@@PB_WPAPB_W@Z 
--- From 'Obj\controls.5CEFAE16.obj'
01:00007960 ?_length@string@@SAXPB_WAAUcharCount@@@Z 
--- From 'Obj\string.6D4DA431.obj'
01:00007978 ?_tryCreate@string@@SAXPBUcharCount@@PB_WPAPB_W@Z  (Idle)
--- From 'Obj\gui_api.7E4A6614.obj'
01:000079DC ?_createCopy@string@@SAXPB_WPAPB_W@Z 
--- From 'Obj\string.6D4DA431.obj'
01:00007A5C ?hasSuffix@string@@SAXPB_W0PAPB_W@Z  (Idle)
01:00007AC0 ?hasSuffix@string@@SAXPB_W0@Z  (Idle)
01:00007B1C ?hasPrefix@string@@SAXPB_W0PAPB_W@Z  (Idle)
01:00007B44 ?_hasPrefixPtr@string@@SAXPAUpChar_struct@memory@@0PAPAU23@@Z 
01:00007BE4 ?hasPrefixIgnoreCase@string@@SAXPB_W0PAPB_W@Z  (Idle)
--- From 'Obj\controls.5CEFAE16.obj'
01:00007C2C ?_concat@string@@SAXPB_W0PAPB_W@Z 
01:00007C9C ?_concat@string@@SAXPB_W00PAPB_W@Z 
01:00007D38 ?_concat@string@@SAXPB_W000PAPB_W@Z 
--- From 'Obj\string.6D4DA431.obj'
01:00007D60 ?_concat@string@@SAXPB_W0000PAPB_W@Z  (Idle)
01:00007D80 ?_concat@string@@SAXPB_W00000PAPB_W@Z 
--- From 'Obj\registry_api.2BAF66BB.obj'
01:00007EA4 ?_concatList@string@@SAXPAU?$__list_struct@U1@@@PAPB_W@Z 
--- From 'Obj\controls.5CEFAE16.obj'
01:00007F38 ?_concatWithDelimiter@string@@SAXPAU?$__list_struct@U1@@@PB_WPAPB_W@Z 
--- From 'Obj\string.6D4DA431.obj'
01:00008054 ?concatListWithDelimiter_inner@string@@SAXPAXPAU?$__list_struct@U1@@@PAXPBUbyteCount@@PAU?$__list_struct@UcharCount@@@@@Z 
01:000080F4 ?_copyDelimiterIfNeeded@string@@SAXPAXPAU?$__list_struct@U1@@@PAXPBUbyteCount@@PAPAX@Z 
01:0000812C ?getStringListInfo@string@@SAXPAU?$__list_struct@U1@@@PBUpositive@@1AAU3@3PAPAU?$__list_struct@UcharCount@@@@@Z 
01:000081C8 ?concatStringList@string@@SAXPAXPAU?$__list_struct@U1@@@PAU?$__list_struct@UcharCount@@@@@Z 
--- From 'Obj\gui.0D1EF882.obj'
01:00008270 ?equalCaseNeutral@string@@SAXPB_W0@Z 
--- From 'Obj\string.6D4DA431.obj'
01:00008284 ?_compareCaseNeutral@string@@SAXPB_W0PAPAUcompareResult_struct@_builtIn@@@Z  (Idle)
01:000082A0 ?equalIgnoreCase@string@@SAXPB_W0@Z  (Idle)
01:000082CC ?equalIgnoreCase@string@@SAXPB_W0I@Z 
01:000082FC ?_compareIgnoreCase@string@@SAXPB_W0PAPAUcompareResult_struct@_builtIn@@@Z 
01:00008320 ?_compareIgnoreCase@string@@SAXPB_W0IPAPAUcompareResult_struct@_builtIn@@@Z 
01:0000833C ?_compareString@string@@SAXPB_W0PAPAUcompareResult_struct@_builtIn@@@Z  (Idle)
01:00008360 ?_compareString@string@@SAXPB_W0IPAPAUcompareResult_struct@_builtIn@@@Z 
01:0000837C ?_compareString@string@@SAXPB_W0IIPAPAUcompareResult_struct@_builtIn@@@Z 
01:00008510 ?_adjustRight@string@@SAXPB_WPBUcharCount@@PAPB_W@Z  (Idle)
01:00008530 ?_adjustRight@string@@SAXPB_WPBUcharCount@@0PAPB_W@Z 
01:0000854C ?_adjustRight@string@@SAXPB_WPBUcharCount@@0PAUadjustBehaviour_struct@1@PAPB_W@Z 
01:000085BC ?_adjustLeft@string@@SAXPB_WPBUcharCount@@PAPB_W@Z  (Idle)
01:000085DC ?_adjustLeft@string@@SAXPB_WPBUcharCount@@0PAPB_W@Z 
01:000085F8 ?_adjust@string@@SAXPB_WPBUcharCount@@PAUadjustSide_struct@1@PAPB_W@Z  (Idle)
01:00008620 ?_adjust@string@@SAXPB_WPBUcharCount@@0PAUadjustSide_struct@1@PAPB_W@Z  (Idle)
01:00008648 ?_adjust@string@@SAXPB_WPBUcharCount@@0PAUadjustBehaviour_struct@1@PAUadjustSide_struct@1@PAPB_W@Z  (Idle)
01:00008670 ?_crop@string@@SAXPB_WPBUcharCount@@PAUadjustSide_struct@1@PAUadjustBehaviour_struct@1@PAPB_W@Z 
01:00008704 ?_adjustLeft@string@@SAXPB_WPBUcharCount@@0PAUadjustBehaviour_struct@1@PAPB_W@Z 
01:00008764 ?_split@string@@SAXPB_W0PAPAU?$__list_struct@U1@@@@Z  (Idle)
--- From 'Obj\core.8DAFDFE7.obj'
01:000087FC ?format@string@@SAPB_W0@Z 
01:0000885C ?write@string@@SAPB_WXZ 
--- From 'Obj\string.6D4DA431.obj'
01:00008874 ?_rear@string@@SAXPB_WPBUcharCount@@PAPB_W@Z  (Idle)
--- From 'Obj\exe.DC930661.obj'
01:000088C8 ?_fromPosition@string@@SAXPB_WPBUcharCount@@PAPB_W@Z 
--- From 'Obj\string.6D4DA431.obj'
01:000088F8 ?front1@string@@SAXPB_WPA_WPAPB_W@Z  (Idle)
01:00008918 ?front_wc@string@@SAXPB_WPBUcharCount@@PAPB_W2@Z  (Idle)
--- From 'Obj\vpiToolbar.E9E27E84.obj'
01:0000894C ?front@string@@SAXPB_WPBUcharCount@@PAPB_W2@Z 
--- From 'Obj\fileSystem.7C044605.obj'
01:00008990 ?tryFront@string@@SAXPB_WPBUcharCount@@PAPB_W2@Z 
--- From 'Obj\string.6D4DA431.obj'
01:000089CC ?checkPosition@string@@SAXPBUcharCount@@PB_W@Z 
--- From 'Obj\fileSystem.7C044605.obj'
01:00008A30 ?_frontChar@string@@SAXPB_WPA_W@Z 
--- From 'Obj\string.6D4DA431.obj'
01:00008A44 ?_tryFrontChar@string@@SAXPB_WPA_W@Z  (Idle)
--- From 'Obj\vpiToolbar.E9E27E84.obj'
01:00008A68 ?frontChar@string@@SAXPB_WPA_WPAPB_W@Z 
--- From 'Obj\string.6D4DA431.obj'
01:00008AA4 ?_tryLastChar@string@@SAXPB_WPA_W@Z  (Idle)
--- From 'Obj\fileSystem.7C044605.obj'
01:00008AEC ?lastChar@string@@SAXPB_WPAPB_WPA_W@Z 
01:00008B50 ?_lastChar@string@@SAXPB_WPA_W@Z 
--- From 'Obj\string.6D4DA431.obj'
01:00008B90 ?_toCharList@string@@SAXPB_WPAPAU?$__list_struct@Uchar@@@@@Z  (Idle)
--- From 'Obj\errorPresentationDialog.15C128A1.obj'
01:00008BFC ?frontToken@string@@SAXPB_WPAPB_W1@Z 
--- From 'Obj\memory_api.02018A2B.obj'
01:00008C1C ?isValidToRead@string@@SAXPB_W@Z 
--- From 'Obj\string.6D4DA431.obj'
01:00008C30 ?isValidToRead@string@@SAXPB_WPBUcharCount@@@Z 
01:00008C50 ?_replaceFirst@string@@SAXPB_W00PAUcaseSensitivity_struct@1@PAPB_W@Z  (Idle)
--- From 'Obj\errorPresentationDialog.15C128A1.obj'
01:00008C84 ?_replaceAll@string@@SAXPB_W00PAPB_W@Z 
--- From 'Obj\string.6D4DA431.obj'
01:00008CA0 ?_replaceAll@string@@SAXPB_W00PAUcaseSensitivity_struct@1@PAPB_W@Z 
01:00008CD4 ?_replaceAll@string@@SAXPB_W00PAUcaseSensitivity_struct@1@PAIPAPB_W@Z  (Idle)
01:00008D0C ?_caseToInteger@string@@SAXPAUcaseSensitivity_struct@1@PAH@Z 
01:00008D3C ?_replacePart@string@@SAXPB_WPBUcharCount@@10PAPB_W@Z  (Idle)
01:00008DFC ?_tryReplacePart@string@@SAXPB_WPBUcharCount@@10PAPB_W@Z  (Idle)
01:00008EB4 ?_search@string@@SAXPB_W0AAUcharCount@@@Z  (Idle)
--- From 'Obj\vpiToolbar.E9E27E84.obj'
01:00008EF0 ?_search@string@@SAXPB_W0PAUcaseSensitivity_struct@1@AAUcharCount@@@Z 
--- From 'Obj\string.6D4DA431.obj'
01:00008FB0 ?_searchLast@string@@SAXPB_W0PAUcaseSensitivity_struct@1@AAUcharCount@@@Z  (Idle)
--- From 'Obj\controls.5CEFAE16.obj'
01:00009070 ?_subString@string@@SAXPB_WPBUcharCount@@1PAPB_W@Z 
--- From 'Obj\string.6D4DA431.obj'
01:000090BC ?_trySubString@string@@SAXPB_WPBUcharCount@@1PAPB_W@Z  (Idle)
01:00009100 ?_toUpperCase@string@@SAXPB_WPAPB_W@Z 
--- From 'Obj\sciLexer.ADC40A53.obj'
01:00009124 ?_toLowerCase@string@@SAXPB_WPAPB_W@Z 
--- From 'Obj\string.6D4DA431.obj'
01:00009148 ?isUpperCase@string@@SAXPB_W@Z  (Idle)
01:0000917C ?isLowerCase@string@@SAXPB_W@Z  (Idle)
01:000091B0 ?hasDecimalDigits@string@@SAXPB_W@Z  (Idle)
01:000091D8 ?isDecimalDigits@string@@SAXPB_W@Z 
01:00009228 ?decimalDigit@string@@SAX_W@Z 
01:0000924C ?hasAlpha@string@@SAXPB_W@Z  (Idle)
01:00009284 ?isWhiteSpace@string@@SAXPB_W@Z  (Idle)
--- From 'Obj\controls.5CEFAE16.obj'
01:0000928C ?_split_delimiter@string@@SAXPB_W0PAPAU?$__list_struct@U1@@@@Z 
--- From 'Obj\string.6D4DA431.obj'
01:000092B8 ?_splitByString@string@@SAXPB_W0PBUcharCount@@PAPAU?$__list_struct@U1@@@@Z 
01:00009360 ?_split_length@string@@SAXPB_WPAU?$__list_struct@UcharCount@@@@PAPAU?$__list_struct@U1@@@@Z  (Idle)
--- From 'Obj\controls.5CEFAE16.obj'
01:000093F8 ?_trim@string@@SAXPB_WPAPB_W@Z 
--- From 'Obj\Command.0BA5442E.obj'
01:0000941C ?_charToString@string@@SAX_WPAPB_W@Z 
--- From 'Obj\string.6D4DA431.obj'
01:00009448 ?_charUpper@string@@SAX_WPA_W@Z  (Idle)
01:00009464 ?_charLower@string@@SAX_WPA_W@Z  (Idle)
01:00009480 ?splitStringBySeparators@string@@SAXPB_W0PAPB_WPA_W2@Z 
01:000094E0 ?_getMinPosition@string@@SAXPB_W0PBUcharCount@@AAU2@@Z 
01:00009550 ?isName@string@@SAXPB_W@Z  (Idle)
01:000095A4 ?isLegalFrontCharOfName@string@@SAX_W@Z 
01:000095D0 ?isCorrectRemainderOfName@string@@SAXPB_W@Z 
01:00009620 ?isCorrectRemainderCharOfName@string@@SAX_W@Z 
01:00009658 ?isClassIdentifier@string@@SAXPB_W0@Z  (Idle)
01:000096C4 ?isObjectIdentifier@string@@SAXPB_W0@Z  (Idle)
01:00009740 ?isCorrectMemberName@string@@SAXPB_W@Z 
01:000097D4 ?keywordString@string@@SAXPB_WPAPAUboolean_struct@_builtIn@@@Z 
01:0000A05C ?isCorrectClassFrontChar@string@@SAX_W@Z 
--- From 'Obj\exe.DC930661.obj'
01:0000A090 ?_searchChar@string@@SAXPB_W_WAAUcharCount@@@Z 
--- From 'Obj\fileSystem.7C044605.obj'
01:0000A0B4 ?_searchChar@string@@SAXPB_W_WPAUcaseSensitivity_struct@1@AAUcharCount@@@Z 
--- From 'Obj\string.6D4DA431.obj'
01:0000A140 ?_subchar@string@@SAXPB_WPBUcharCount@@PA_W@Z  (Idle)
01:0000A178 ?_trySubchar@string@@SAXPB_WPBUcharCount@@PA_W@Z  (Idle)
01:0000A1AC ?_getCharValue@string@@SAX_WAAUunsigned16@@@Z  (Idle)
01:0000A1C0 ?_getCharFromValue@string@@SAXPBUunsigned16@@PA_W@Z  (Idle)
01:0000A1D4 ?listToArray@string@@SAXPAU?$__list_struct@U1@@@PAPAXPAI@Z  (Idle)
01:0000A230 ?_arrayToList@string@@SAXPAXIPAPAU?$__list_struct@U1@@@@Z  (Idle)
01:0000A23C ?fillArray@string@@SAXPAXPAU?$__list_struct@U1@@@@Z 
01:0000A2A0 ?_fillList@string@@SAXPBUunsignedNative@@IPAPAU?$__list_struct@U1@@@@Z 
01:0000A304 ?_createFromCharList@string@@SAXPAU?$__list_struct@Uchar@@@@PAPB_W@Z  (Idle)
01:0000A34C ?fillString@string@@SAXPB_WPAU?$__list_struct@Uchar@@@@@Z 
01:0000A3B4 isWhiteSpace_C 
01:0000A3F4 isWhiteSpace_S 
01:0000A448 ?_last@string@@SAXPB_WPBUcharCount@@PAPB_W@Z  (Idle)
01:0000A450 ?isWhiteSpace@string@@SAX_W@Z  (Idle)
01:0000A458 ?keywordString@string@@SAXPB_WPAUboolean_struct@_builtIn@@@Z  (Idle)
01:0000ADB4 ?keywordString@string@@SAXPAPB_WPAPAUboolean_struct@_builtIn@@@Z  (Idle)
01:0000B4C8 ?new@outputStream_string@@SAXQAV1@@@Z  (Idle)
01:0000B5B0 ?setMode@outputStream_string@@SGXQAVstream@@@PAUmode_struct@2@@Z 
01:0000B5EC ?flush@outputStream_string@@SGXQAVoutputStream@@@@Z 
01:0000B5FC ?resetString@outputStream_string@@SAXQAV1@@@Z 
01:0000B6D0 ?close@outputStream_string@@SGXQAVstream@@@@Z 
01:0000B6E8 ?bufferFullCallBack@outputStream_string@@SAXQAV1@@PAPB_WAAUbyteCount@@@Z  (Idle)
01:0000B764 ?get_buffer_from_db@outputStream_string@@SAXQAV1@@IPAPB_WAAUbyteCount@@@Z 
01:0000B7CC ?_getString@outputStream_string@@SAXQAV1@@PAPB_W@Z 
01:0000B8FC ?writeBuffersToString@outputStream_string@@SAXQAV1@@PAX@Z 
01:0000B98C ?getPosition@outputStream_string@@SGPBUfileSize@fileSystem_api@@QAVstream@@@@Z 
01:0000BA2C ?setPosition@outputStream_string@@SGXQAVstream@@@PBUfileSize@fileSystem_api@@@Z 
01:0000BA9C ?checkOddness@outputStream_string@@SAXPAUmode_struct@stream@@PBUbyteCount@@@Z 
01:0000BAF8 ?handleSetOffset@outputStream_string@@SAXQAV1@@PBUbyteCount@@@Z 
01:0000BB80 ?updateCurrentBuffer@outputStream_string@@SAXQAV1@@@Z 
01:0000BCEC ?findBufferForOffset@outputStream_string@@SAXQAV1@@PBUbyteCount@@PAIPAPB_WAAU3@4@Z 
01:0000BD78 ?handleBiggerOffset@outputStream_string@@SAXQAV1@@PBUbyteCount@@@Z 
01:0000BF30 ?_newBuffer@outputStream_string@@SAXQAV1@@PBUbyteCount@@PAPB_W@Z 
01:0000BFC8 ?_getSizeBefore@outputStream_string@@SAXQAV1@@AAUbyteCount@@@Z 
01:0000C058 ?bufferNotFound_exception@outputStream_string@@SAXI@Z 
01:0000C098 ?checkUsePrevBuff@outputStream_string@@SAXQAV1@@@Z  (Idle)
01:0000C0F4 ?getBuffer@outputStream_string@@SGXQAVbufferSupport@@@PAPAXAAUbyteCount@@@Z 
01:0000C1A0 ?getBufferLocked@outputStream_string@@SGXQAVbufferSupport@@@PAPAXAAUbyteCount@@@Z 
01:0000C1BC ?addContentsChangedListener@outputStream_string@@SAXQAV1@@X@Z 
01:0000C244 ?onWrite@outputStream_string@@SAXQAV1@@QAVoutputSupport@@@@Z 
--- From 'Obj\controls.5CEFAE16.obj'
01:0000C2C4 ?_getString@outputStream_string@@SAXXPAPB_W@Z 
--- From 'Obj\string.6D4DA431.obj'
01:0000C318 ?anonymous$c0$1$getstring/2nf$outputStream_string@1@SAXPAUanonymous$c0$1$getstring/2nf$outputStream_stringc_struct@1@QAVoutputStream@@@@Z 
--- From 'Obj\exceptionDump.CAECE2A1.obj'
01:0000C34C ?_getString@outputStream_string@@SAXQAVrTypeLibrary@TypeLibraries@RunTime@VIP@@XPAXPAPB_W@Z 
--- From 'Obj\string.6D4DA431.obj'
01:0000C394 ?anonymous$c0$1$getstring/3nf$outputStream_string@1@SAXPAUanonymous$c0$1$getstring/3nf$outputStream_stringc_struct@1@QAVoutputStream@@@@Z 
01:0000C3D0 ?_getString@outputStream_string@@SAXQAVrTypeLibrary@TypeLibraries@RunTime@VIP@@0XPAXPAXPAPB_W@Z  (Idle)
01:0000C424 ?anonymous$c0$1$getstring/4nf$outputStream_string@1@SAXPAUanonymous$c0$1$getstring/4nf$outputStream_stringc_struct@1@QAVoutputStream@@@@Z 
01:0000C468 ?_getString@outputStream_string@@SAXQAVrTypeLibrary@TypeLibraries@RunTime@VIP@@00XPAXPAXPAXPAPB_W@Z  (Idle)
01:0000C4C8 ?anonymous$c0$1$getstring/5nf$outputStream_string@1@SAXPAUanonymous$c0$1$getstring/5nf$outputStream_stringc_struct@1@QAVoutputStream@@@@Z 
01:0000C518 ?_getString@outputStream_string@@SAXQAVrTypeLibrary@TypeLibraries@RunTime@VIP@@000XPAXPAXPAXPAXPAPB_W@Z  (Idle)
--- From 'Obj\messageControl.6297CBEC.obj'
01:0000C584 ?_new@outputStream_string@@SAXPAPAV1@@@Z 
--- From 'Obj\string.6D4DA431.obj'
01:0000C5AC ?_object_facts_initializer@outputStream_string@@SGXQAV1@@@Z 
01:0000C5CC ?new@inputStream_string@@SAXQAV1@@PB_W@Z  (Idle)
01:0000C620 ?setMode@inputStream_string@@SGXQAVstream@@@PAUmode_struct@2@@Z 
01:0000C65C ?close@inputStream_string@@SGXQAVstream@@@@Z 
01:0000C674 ?getCRLFconversion@inputStream_string@@SGPAUboolean_struct@_builtIn@@QAVstream@@@@Z 
01:0000C688 ?setCRLFconversion@inputStream_string@@SGXQAVstream@@@PAUboolean_struct@_builtIn@@@Z 
01:0000C6B0 ?getPosition@inputStream_string@@SGPBUfileSize@fileSystem_api@@QAVstream@@@@Z 
01:0000C6D4 ?setPosition@inputStream_string@@SGXQAVstream@@@PBUfileSize@fileSystem_api@@@Z 
01:0000C74C ?checkOddness@inputStream_string@@SAXPAUmode_struct@stream@@PBUbyteCount@core@@@Z 
01:0000C7A8 ?getBuffer@inputStream_string@@SGXQAVbufferSupport@@@PAPAXAAUbyteCount@@@Z 
01:0000C7C4 ?getBufferLocked@inputStream_string@@SGXQAVbufferSupport@@@PAPAXAAUbyteCount@@@Z 
01:0000C7E0 ?_new@inputStream_string@@SAXPB_WPAPAVinputStream@@@@Z  (Idle)
01:0000C808 ?_object_facts_initializer@inputStream_string@@SGXQAV1@@@Z 
01:0000C9CC outputStream_string?_initObject@@@QAGXQAV1@H@Z 
01:0000CA04 ?@create_object@outputStream_string@@SGQAV1@@XZ 
01:0000CA20 outputStream_string?_InternalFinalizer@@@QAGXQAV1@@Z 
01:0000CC0C inputStream_string?_initObject@@@QAGXQAV1@H@Z 
01:0000CC40 ?@create_object@inputStream_string@@SGQAV1@@XZ 
01:0000CC5C inputStream_string?_InternalFinalizer@@@QAGXQAV1@@Z 
--- From 'Obj\gdiplus.80149785.obj'
01:0000CC70 ?getVersionEx@systemInformation_api@@SAXPAIPAIPAIPAIPAPB_WAAUunsigned16@@55AAUunsigned8@@@Z 
--- From 'Obj\systemInformation_api.DBDD8999.obj'
01:0000CDB4 ?_allocWithSize@systemInformation_api@@SAXPBUbyteCount@@PAPAX@Z 
01:0000CDE8 ?systemInfo@systemInformation_api@@SGPAUsystem_Info_struct@systemInformation_native@@XZ 
01:0000CE1C ?nativeSystemInfo@systemInformation_api@@SGPAUsystem_Info_struct@systemInformation_native@@XZ 
01:0000CE50 ?isWindows64@systemInformation_api@@SAXXZ  (Idle)
01:0000CE74 ?_getUserName@systemInformation_api@@SAXPAPB_W@Z  (Idle)
01:0000CF04 ?_getUserNameEx@systemInformation_api@@SAXPBUuserNameFormat@systemInformation_native@@PAPB_W@Z  (Idle)
01:0000CF8C ?_getComputerName@systemInformation_api@@SAXPAPB_W@Z  (Idle)
01:0000D01C ?_getComputerNameEx@systemInformation_api@@SAXPBUcomputerNameFormat@systemInformation_native@@PAPB_W@Z  (Idle)
01:0000D0A4 ?systemParametersInfo@systemInformation_api@@SAXIIPAXI@Z  (Idle)
01:0000D0EC ?systemParametersInfo_outInt@systemInformation_api@@SAXIIPAHI@Z  (Idle)
01:0000D134 ?isVersionWindows98@systemInformation_api@@SAXXZ  (Idle)
--- From 'Obj\memory_api.02018A2B.obj'
01:0000D140 ?globalMemoryStatusEx@memory_api@@SAXPAIPAPA_K111111@Z  (Idle)
01:0000D2D8 ?_alloc_memoryStatusEx@memory_api@@SAXIPAPAUmemoryStatusEx_struct@memory_native@@@Z 
--- From 'Obj\ImageList.3CB6D429.obj'
01:0000D34C ?_globalAlloc@memory_api@@SAXIPBUbyteCount@@AAUhGlobal@windowsAPI@@@Z 
01:0000D398 ?globalFree@memory_api@@SAXPBUhGlobal@windowsAPI@@@Z 
01:0000D3D8 ?_globalLock@memory_api@@SAXPBUhGlobal@windowsAPI@@PAPAX@Z 
01:0000D41C ?globalUnlock@memory_api@@SAXPBUhGlobal@windowsAPI@@@Z 
--- From 'Obj\memory_api.02018A2B.obj'
01:0000D438 ?_globalUnlock@memory_api@@SAXPBUhGlobal@windowsAPI@@PAPAUboolean_struct@_builtIn@@@Z 
01:0000D488 ?_globalSize@memory_api@@SAXPBUhGlobal@windowsAPI@@AAUbyteCount@@@Z  (Idle)
--- From 'Obj\clipboard.110730D5.obj'
01:0000D4E0 ?_mkGlobal_string@memory_api@@SAXPB_WAAUhGlobal@windowsAPI@@@Z 
01:0000D538 ?_getGlobal_string@memory_api@@SAXPBUhGlobal@windowsAPI@@PAPB_W@Z 
01:0000D64C ?_mkGlobal_string8@memory_api@@SAXPADAAUhGlobal@windowsAPI@@@Z 
--- From 'Obj\memory_api.02018A2B.obj'
01:0000D694 ?_anonymous$c0$1$getglobal_string8/1nf$memory_api@1@SAXPAXPBUbyteCount@@PAPAD@Z 
--- From 'Obj\clipboard.110730D5.obj'
01:0000D6A8 ?_getGlobal_string8@memory_api@@SAXPBUhGlobal@windowsAPI@@PAPAD@Z 
01:0000D6E0 ?_mkGlobal_binary@memory_api@@SAXQAEAAUhGlobal@windowsAPI@@@Z 
01:0000D71C ?_getGlobal_binary@memory_api@@SAXPBUhGlobal@windowsAPI@@QAPAE@Z 
--- From 'Obj\memory_api.02018A2B.obj'
01:0000D754 ?_mkGlobal_pointer@memory_api@@SAXPAXPBUbyteCount@@AAUhGlobal@windowsAPI@@@Z 
01:0000D7F4 ?_getGlobal_pointer@memory_api@@SAXQAVrTypeLibrary@TypeLibraries@RunTime@VIP@@PBUhGlobal@windowsAPI@@XPAPAX@Z 
--- From 'Obj\fileSystem.7C044605.obj'
01:0000D8A0 ?create@outputStream_file@@SAXQAV1@@PB_W@Z  (Idle)
01:0000D8C8 ?create@outputStream_file@@SAXQAV1@@PB_WPAUmode_struct@stream@@@Z  (Idle)
01:0000D8E8 ?create@outputStream_file@@SAXQAV1@@PB_WPAUmode_struct@stream@@PAUaccessPermit_struct@fileSystem_api@@@Z  (Idle)
01:0000D8FC ?create@outputStream_file@@SAXQAV1@@PB_WPAUmode_struct@stream@@PAUaccessPermit_struct@fileSystem_api@@PAU?$__list_struct@UfileAttributeAtom@@@@@Z 
01:0000D944 ?create8@outputStream_file@@SAXQAV1@@PB_W@Z  (Idle)
01:0000D968 ?createUtf8@outputStream_file@@SAXQAV1@@PB_W@Z  (Idle)
01:0000D990 ?createUtf8_bom@outputStream_file@@SAXQAV1@@PB_W@Z  (Idle)
01:0000D9DC ?commonPartOfConstructors@outputStream_file@@SAXQAV1@@PBUfileHandle@@PAUmode_struct@stream@@@Z 
01:0000DA3C ?handleMode_create@outputStream_file@@SAXQAV1@@PAUmode_struct@stream@@@Z 
01:0000DA80 ?openFile@outputStream_file@@SAXQAV1@@PB_W@Z  (Idle)
01:0000DAA0 ?openFile8@outputStream_file@@SAXQAV1@@PB_W@Z  (Idle)
01:0000DAC0 ?openFileUtf8@outputStream_file@@SAXQAV1@@PB_W@Z  (Idle)
01:0000DAE0 ?openFile@outputStream_file@@SAXQAV1@@PB_WPAUmode_struct@stream@@@Z  (Idle)
01:0000DAF4 ?openFile@outputStream_file@@SAXQAV1@@PB_WPAUmode_struct@stream@@PAUaccessPermit_struct@fileSystem_api@@@Z 
01:0000DB50 ?append@outputStream_file@@SAXQAV1@@PB_W@Z  (Idle)
01:0000DB64 ?append8@outputStream_file@@SAXQAV1@@PB_W@Z  (Idle)
01:0000DB78 ?appendUtf8@outputStream_file@@SAXQAV1@@PB_W@Z  (Idle)
01:0000DB8C ?append@outputStream_file@@SAXQAV1@@PB_WPAUmode_struct@stream@@@Z 
01:0000DBF8 ?newHandleFile@outputStream_file@@SAXQAV1@@PBUfileHandle@@PAUmode_struct@stream@@@Z  (Idle)
01:0000DC38 ?newHandle@outputStream_file@@SAXQAV1@@PBUfileHandle@@PAUmode_struct@stream@@@Z  (Idle)
01:0000DC40 ?skipUnicodeSignature@outputStream_file@@SAXQAV1@@PAUmode_struct@stream@@@Z 
01:0000DCE8 ?skip@outputStream_file@@SAXQAV1@@HPBUbyteCount@@@Z 
01:0000DD5C ?getCRLFconversion@outputStream_file@@SGPAUboolean_struct@_builtIn@@QAVstream@@@@Z 
01:0000DD8C ?setCRLFconversion@outputStream_file@@SGXQAVstream@@@PAUboolean_struct@_builtIn@@@Z 
01:0000DDEC ?getPosition@outputStream_file@@SGPBUfileSize@fileSystem_api@@QAVstream@@@@Z 
01:0000DEB0 ?setPosition@outputStream_file@@SGXQAVstream@@@PBUfileSize@fileSystem_api@@@Z 
01:0000DFA4 ?_checkMovingIsInsideBuffer@outputStream_file@@SAXQAV1@@PAPBUfileSize@fileSystem_api@@1PBUbyteCount@@AAU7@@Z 
01:0000E140 ?setMaxOffsetUsedInCurrentBuffer@outputStream_file@@SAXQAV1@@PBUbyteCount@@@Z 
01:0000E164 ?close@outputStream_file@@SGXQAVstream@@@@Z 
01:0000E194 ?flush@outputStream_file@@SGXQAVoutputStream@@@@Z 
01:0000E1C4 ?bufferFullCallBack@outputStream_file@@SAXQAV1@@PBUbyteCount@@@Z  (Idle)
01:0000E23C ?convertLFtoCRLF_IfNeeded@outputStream_file@@SAXQAV1@@PAXPBUbyteCount@@PAPAXAAU3@@Z 
01:0000E29C ?convertToANSI_IfNeeded@outputStream_file@@SAXQAV1@@PAXPBUbyteCount@@PAPAXAAU3@@Z 
01:0000E328 ?getBuffer@outputStream_file@@SGXQAVbufferSupport@@@PAPAXAAUbyteCount@@@Z 
01:0000E390 ?getBufferLocked@outputStream_file@@SGXQAVbufferSupport@@@PAPAXAAUbyteCount@@@Z 
--- From 'Obj\exceptionDump.CAECE2A1.obj'
01:0000E3AC ?_create@outputStream_file@@SAXPB_WPAPAVoutputStream@@@@Z 
--- From 'Obj\fileSystem.7C044605.obj'
01:0000E3D4 ?_create@outputStream_file@@SAXPB_WPAUmode_struct@stream@@PAPAVoutputStream@@@@Z  (Idle)
01:0000E400 ?_create@outputStream_file@@SAXPB_WPAUmode_struct@stream@@PAUaccessPermit_struct@fileSystem_api@@PAPAVoutputStream@@@@Z  (Idle)
01:0000E430 ?_create@outputStream_file@@SAXPB_WPAUmode_struct@stream@@PAUaccessPermit_struct@fileSystem_api@@PAU?$__list_struct@UfileAttributeAtom@@@@PAPAVoutputStream@@@@Z  (Idle)
01:0000E464 ?_create8@outputStream_file@@SAXPB_WPAPAVoutputStream@@@@Z  (Idle)
01:0000E48C ?_createUtf8@outputStream_file@@SAXPB_WPAPAVoutputStream@@@@Z  (Idle)
01:0000E4B4 ?_createUtf8_bom@outputStream_file@@SAXPB_WPAPAVoutputStream@@@@Z  (Idle)
01:0000E4DC ?_openFile@outputStream_file@@SAXPB_WPAPAVoutputStream@@@@Z  (Idle)
01:0000E504 ?_openFile@outputStream_file@@SAXPB_WPAUmode_struct@stream@@PAPAVoutputStream@@@@Z  (Idle)
01:0000E530 ?_openFile@outputStream_file@@SAXPB_WPAUmode_struct@stream@@PAUaccessPermit_struct@fileSystem_api@@PAPAVoutputStream@@@@Z  (Idle)
01:0000E560 ?_openFile8@outputStream_file@@SAXPB_WPAPAVoutputStream@@@@Z  (Idle)
01:0000E588 ?_openFileUtf8@outputStream_file@@SAXPB_WPAPAVoutputStream@@@@Z  (Idle)
--- From 'Obj\errorPresentationDialog.15C128A1.obj'
01:0000E5B0 ?_append@outputStream_file@@SAXPB_WPAPAVoutputStream@@@@Z 
--- From 'Obj\fileSystem.7C044605.obj'
01:0000E5D8 ?_append@outputStream_file@@SAXPB_WPAUmode_struct@stream@@PAPAVoutputStream@@@@Z  (Idle)
01:0000E604 ?_append8@outputStream_file@@SAXPB_WPAPAVoutputStream@@@@Z  (Idle)
01:0000E62C ?_appendUtf8@outputStream_file@@SAXPB_WPAPAVoutputStream@@@@Z  (Idle)
01:0000E654 ?_newHandleFile@outputStream_file@@SAXPBUfileHandle@@PAUmode_struct@stream@@PAPAVoutputStream@@@@Z  (Idle)
01:0000E680 ?_newHandle@outputStream_file@@SAXPBUfileHandle@@PAUmode_struct@stream@@PAPAVoutputStream@@@@Z  (Idle)
01:0000E6AC ?_object_facts_initializer@outputStream_file@@SGXQAV1@@@Z 
01:0000E6CC ?append@messageFile@@SAXQAV1@@PB_W@Z  (Idle)
01:0000E6E0 ?append@messageFile@@SAXQAV1@@PB_WPAUmode_struct@stream@@@Z 
01:0000E6F8 ?flush@messageFile@@SGXQAVoutputStream@@@@Z 
01:0000E708 ?write@messageFile@@SAXQAVoutputStream@@@@Z 
01:0000E79C ?writef@messageFile@@SAXQAVoutputStream@@@PB_W@Z 
01:0000E834 ?writeQuoted@messageFile@@SAXQAVoutputStream@@@@Z 
01:0000E8C8 ?nl@messageFile@@SGXQAVoutputStream@@@@Z 
01:0000E95C ?writeBytes@messageFile@@SGXQAVoutputStream@@@PAXPBUbyteCount@@@Z 
01:0000E9F4 ?save@messageFile@@SGXQAVoutputStream@@@PBUfactDB@@@Z 
01:0000EA8C ?setMode@messageFile@@SGXQAVstream@@@PAUmode_struct@2@@Z 
01:0000EAA4 ?getMode@messageFile@@SGPAUmode_struct@stream@@QAV3@@@Z 
01:0000EABC ?getCRLFconversion@messageFile@@SGPAUboolean_struct@_builtIn@@QAVstream@@@@Z 
01:0000EAD0 ?setCRLFconversion@messageFile@@SGXQAVstream@@@PAUboolean_struct@_builtIn@@@Z 
01:0000EAF8 ?close@messageFile@@SGXQAVstream@@@@Z 
01:0000EB08 ?getPosition@messageFile@@SGPBUfileSize@fileSystem_api@@QAVstream@@@@Z 
01:0000EB20 ?setPosition@messageFile@@SGXQAVstream@@@PBUfileSize@fileSystem_api@@@Z 
01:0000EB38 ?_append@messageFile@@SAXPB_WPAPAVoutputStream@@@@Z  (Idle)
01:0000EB60 ?_append@messageFile@@SAXPB_WPAUmode_struct@stream@@PAPAVoutputStream@@@@Z  (Idle)
01:0000EB8C ?openFile8@inputStream_file@@SAXQAV1@@PB_W@Z  (Idle)
01:0000EBA0 ?openFileUtf8@inputStream_file@@SAXQAV1@@PB_W@Z  (Idle)
01:0000EBB4 ?openFile@inputStream_file@@SAXQAV1@@PB_W@Z  (Idle)
01:0000EBC8 ?openFile@inputStream_file@@SAXQAV1@@PB_WPAUmode_struct@stream@@@Z 
01:0000EBDC ?openFile@inputStream_file@@SAXQAV1@@PB_WPAUmode_struct@stream@@PAUaccessPermit_struct@fileSystem_api@@@Z 
01:0000EBF4 ?openFile@inputStream_file@@SAXQAV1@@PB_WPAUmode_struct@stream@@PAUaccessPermit_struct@fileSystem_api@@PBUbyteCount@@@Z 
01:0000EC48 ?newHandle@inputStream_file@@SAXQAV1@@PBUfileHandle@@PAUmode_struct@stream@@@Z  (Idle)
01:0000EC5C ?newBlockedPipe@inputStream_file@@SAXQAV1@@PBUfileHandle@@PAUmode_struct@stream@@@Z  (Idle)
01:0000EC80 ?newHandleFile@inputStream_file@@SAXQAV1@@PBUfileHandle@@PAUmode_struct@stream@@@Z  (Idle)
01:0000ECB0 ?_halfBufferSize@inputStream_file@@SAXQAV1@@AAUbyteCount@@@Z  (Idle)
01:0000ECC8 ?commonPartOfConstructors@inputStream_file@@SAXQAV1@@PBUfileHandle@@PAUmode_struct@stream@@PAUboolean_struct@_builtIn@@@Z 
01:0000ED9C ?skipUnicodeSignature@inputStream_file@@SAXQAV1@@PAUmode_struct@stream@@@Z 
01:0000EE44 ?skip@inputStream_file@@SAXQAV1@@HPBUbyteCount@@@Z 
01:0000EEB8 ?handlingMode@inputStream_file@@SAXQAV1@@PAUmode_struct@stream@@@Z 
01:0000EF70 ?checkBufferSize@inputStream_file@@SAXPBUbyteCount@@@Z 
01:0000EFC4 ?getPosition@inputStream_file@@SGPBUfileSize@fileSystem_api@@QAVstream@@@@Z 
01:0000F074 ?_handlingFileMode@inputStream_file@@SAXQAV1@@PAUmode_struct@stream@@PBUbyteCount@@2AAU5@@Z 
01:0000F110 ?_handleTextMode@inputStream_file@@SAXQAV1@@PAUmode_struct@stream@@PBUbyteCount@@IAAU5@@Z 
01:0000F19C ?_getPassedConv@inputStream_file@@SAXPAU?$__list_struct@UbyteCount@@@@IIPBU2@PAI@Z 
01:0000F23C ?setPosition@inputStream_file@@SGXQAVstream@@@PBUfileSize@fileSystem_api@@@Z 
01:0000F37C ?_checkMovingIsInsideBuffer@inputStream_file@@SAXPAPBUfileSize@fileSystem_api@@0PBUbyteCount@@2AAU6@@Z 
01:0000F528 ?close@inputStream_file@@SGXQAVstream@@@@Z 
01:0000F550 ?getCRLFconversion@inputStream_file@@SGPAUboolean_struct@_builtIn@@QAVstream@@@@Z 
01:0000F598 ?setCRLFconversion@inputStream_file@@SGXQAVstream@@@PAUboolean_struct@_builtIn@@@Z 
01:0000F664 ?setMode@inputStream_file@@SGXQAVstream@@@PAUmode_struct@2@@Z 
01:0000F710 ?_checkModeAndPos@inputStream_file@@SAXQAV1@@PAUmode_struct@stream@@PAPBUfileSize@fileSystem_api@@PAAAU56@@Z 
01:0000F838 ?exTextBufferCB@inputStream_file@@SAXQAV1@@PAPAXAAUbyteCount@@@Z  (Idle)
01:0000F894 ?exTextLockBufferCB@inputStream_file@@SAXQAV1@@PAPAXAAUbyteCount@@@Z  (Idle)
01:0000F8F0 ?_fillBuffer@inputStream_file@@SAXQAV1@@PAUmode_struct@stream@@AAUbyteCount@@@Z 
01:0000F9B4 ?_convertToUnicode@inputStream_file@@SAXQAV1@@PBUbyteCount@@PAUcodepage_struct@core@@PAXAAUcharCount@@@Z 
01:0000FA30 ?convertCRLFtoLF_ifNeeded@inputStream_file@@SAXQAV1@@PAUmode_struct@stream@@PBUbyteCount@@PAPAXAAU5@@Z 
01:0000FAF8 ?handlingBufferLastChar@inputStream_file@@SAXQAV1@@PBUbyteCount@@PAPAXAAU3@@Z 
01:0000FB3C ?_readFromFile@inputStream_file@@SAXQAV1@@PAXPBUbyteCount@@AAU3@@Z 
01:0000FB8C ?getBuffer@inputStream_file@@SGXQAVbufferSupport@@@PAPAXAAUbyteCount@@@Z 
01:0000FBB0 ?getBufferLocked@inputStream_file@@SGXQAVbufferSupport@@@PAPAXAAUbyteCount@@@Z 
01:0000FBD4 ?_openFile@inputStream_file@@SAXPB_WPAPAVinputStream@@@@Z  (Idle)
01:0000FBFC ?_openFile@inputStream_file@@SAXPB_WPAUmode_struct@stream@@PAPAVinputStream@@@@Z  (Idle)
--- From 'Obj\exe_api.DA526B1E.obj'
01:0000FC28 ?_openFile@inputStream_file@@SAXPB_WPAUmode_struct@stream@@PAUaccessPermit_struct@fileSystem_api@@PAPAVinputStream@@@@Z 
--- From 'Obj\fileSystem.7C044605.obj'
01:0000FC58 ?_openFile@inputStream_file@@SAXPB_WPAUmode_struct@stream@@PAUaccessPermit_struct@fileSystem_api@@PBUbyteCount@@PAPAVinputStream@@@@Z  (Idle)
01:0000FC8C ?_openFile8@inputStream_file@@SAXPB_WPAPAVinputStream@@@@Z  (Idle)
01:0000FCB4 ?_openFileUtf8@inputStream_file@@SAXPB_WPAPAVinputStream@@@@Z  (Idle)
01:0000FCDC ?_newHandleFile@inputStream_file@@SAXPBUfileHandle@@PAUmode_struct@stream@@PAPAVinputStream@@@@Z  (Idle)
01:0000FD08 ?_newHandle@inputStream_file@@SAXPBUfileHandle@@PAUmode_struct@stream@@PAPAVinputStream@@@@Z  (Idle)
01:0000FD34 ?_newBlockedPipe@inputStream_file@@SAXPBUfileHandle@@PAUmode_struct@stream@@PAPAVinputStream@@@@Z  (Idle)
01:0000FD60 ?_object_facts_initializer@inputStream_file@@SGXQAV1@@@Z 
01:0000FD84 ?_tryVerQueryValue@fileVersion@@SAXQAEPB_WPAPAX@Z  (Idle)
01:0000FDD0 ?_getFileVersionInformation@fileVersion@@SAXQAEPB_W1PAPB_W@Z  (Idle)
01:0000FE70 ?_loadVersionInfo@fileVersion@@SAXPB_WQAPAE@Z  (Idle)
01:0000FFA0 ?_getLanguageAndCodePageKey@fileVersion@@SAXQAEPAPB_W@Z  (Idle)
01:00010030 ?_getVersionInfo@fileVersion@@SAXPB_WPAPAUversionInformation_struct@1@@Z  (Idle)
01:00010100 ?_getVersionBuildTime@fileVersion@@SAXPB_WPAPB_W@Z  (Idle)
01:00010158 ?_getProductVersion@fileVersion@@SAXPB_WPAPA_K@Z  (Idle)
01:000101BC ?_getRootKey@fileVersion@@SAXQAEPAPAUvs_fixedfileinfo_struct@1@@Z 
01:00010208 ?_getFileVersionInfo@fileVersion@@SAXPB_WPAPAUfileVersionInformation_struct@1@@Z  (Idle)
01:000102BC ?raise_fileAlreadyExists_explicit@fileSystem_exception@@SAXPAUprogramPoint_struct@core@@PB_W@Z  (Idle)
01:0001032C ?raise_wrongAttribute_explicit@fileSystem_exception@@SAXPAUprogramPoint_struct@core@@I@Z  (Idle)
01:0001039C ?raise_fileTooBig_explicit@fileSystem_exception@@SAXPAUprogramPoint_struct@core@@PB_W@Z  (Idle)
01:0001040C ?checkFileReadResult_explicit@fileSystem_exception@@SAXPAUprogramPoint_struct@core@@H@Z  (Idle)
01:0001044C ?_getPath@fileName@@SAXPB_WPAPB_W@Z  (Idle)
01:0001046C ?_getPosLastSlash@fileName@@SAXPB_WAAUcharCount@@@Z  (Idle)
01:000104F8 ?_getNameWithExtension@fileName@@SAXPB_WPAPB_W@Z  (Idle)
--- From 'Obj\exe.DC930661.obj'
01:0001052C ?getPathAndName@fileName@@SAXPB_WPAPB_W1@Z 
--- From 'Obj\fileSystem.7C044605.obj'
01:00010574 ?_getName1@fileName@@SAXPB_WPAPB_W@Z  (Idle)
01:000105A8 ?_getLastDirectory@fileName@@SAXPB_WPAPB_W1@Z  (Idle)
01:00010600 ?_removeLastSlash@fileName@@SAXPB_WPAPB_W@Z 
01:00010688 ?_getName@fileName@@SAXPB_WPAPB_W@Z  (Idle)
01:000106B0 ?_charGet@fileName@@SAXPB_WPBUcharCountOptional@@AAU2@@Z  (Idle)
--- From 'Obj\gdiplus.80149785.obj'
01:0001072C ?_getExtension@fileName@@SAXPB_WPAPB_W@Z 
--- From 'Obj\fileSystem.7C044605.obj'
01:00010790 ?_getExtension@fileName@@SAXPB_WPAPB_W1@Z  (Idle)
01:00010814 ?_setPath@fileName@@SAXPB_W0PAPB_W@Z  (Idle)
01:00010840 ?_setName@fileName@@SAXPB_W0PAPB_W@Z  (Idle)
01:0001089C ?_setExtension@fileName@@SAXPB_W0PAPB_W@Z  (Idle)
01:000109B8 ?_reduce@fileName@@SAXPB_W0PAPB_W@Z  (Idle)
01:00010ACC ?_reduceToShort@fileName@@SAXPB_W0PAPB_W@Z  (Idle)
01:00010B28 ?getFirstDirectory@fileName@@SAXPB_WPAPB_W1@Z 
01:00010C10 ?getNetName@fileName@@SAXPB_W0PAPB_W2@Z 
01:00010C68 ?_setTrailSlash@fileName@@SAXPB_WPAPB_W@Z 
01:00010CB8 ?_getSlashList@fileName@@SAXPB_W_WPBUcharCount@@PAPAU?$__list_struct@U2@@@@Z  (Idle)
01:00010D4C ?_tail@fileName@@SAXPB_WPBUcharCount@@PAPB_W@Z 
01:00010D6C ?_getOrderedList@fileName@@SAXPAU?$__list_struct@UcharCount@@@@0PAPAU?$__list_struct@U2@@@@Z  (Idle)
01:00010E40 ?splitPathString@fileName@@SAXPB_WPAU?$__list_struct@UcharCount@@@@PBU2@PAPAU?$__list_struct@Ustring@@@@AAU2@@Z  (Idle)
01:00010ED4 ?splitOntoPathAndName@fileName@@SAXPB_WPAPAU?$__list_struct@Ustring@@@@PAPB_W@Z 
01:00010F80 ?_splitFileExt@fileName@@SAXPB_WPAPB_W@Z 
01:00010FC0 ?_splitFileName@fileName@@SAXPB_WPAPB_W@Z 
01:0001100C ?_directoryCompare@fileName@@SAXPAU?$__list_struct@Ustring@@@@0PAPB_W@Z 
01:00011090 ?_glueRest@fileName@@SAXPAU?$__list_struct@Ustring@@@@0PAPB_W@Z 
01:000110DC ?splitPath@fileName@@SAXPB_WPAPAU?$__list_struct@Ustring@@@@AAUcharCount@@@Z 
01:0001114C ?_nameConcat@fileName@@SAXPB_W00PAPB_W@Z 
01:000111E0 ?_createPath@fileName@@SAXPB_W0PAPB_W@Z  (Idle)
01:00011250 ?_reducePath@fileName@@SAXPB_WPAPB_W@Z  (Idle)
01:000112D0 ?_createPath@fileName@@SAX_WPB_W11PAPB_W@Z 
01:00011390 ?_concatWithSlash@fileName@@SAXPB_W0PAPB_W@Z 
01:00011428 ?_getTypeOfSlash@fileName@@SAXPB_W0PAPB_W@Z 
01:000114D4 ?isSlash@fileName@@SAX_W@Z 
01:000114F4 ?_checkSecondCharAfterSlash@fileName@@SAXPB_W00PAPB_W@Z 
01:000115C0 ?_checkThirdCharAfterColon@fileName@@SAXPB_W_W00PAPB_W@Z 
01:00011694 ?_reducePath@fileName@@SAX_WPB_WPAPB_W@Z 
01:000116C4 ?_applyFileName@fileName@@SAXPB_WPAU?$__list_struct@Ustring@@@@PAPAU?$__list_struct@U2@@@@Z 
01:000117DC ?stay_dir@fileName@@SAXPB_W@Z  (Idle)
01:0001181C ?up_dir@fileName@@SAXPB_W@Z 
01:00011864 ?_reducePath_reversed@fileName@@SAXPAU?$__list_struct@Ustring@@@@PAPAU?$__list_struct@U2@@@@Z 
01:0001194C ?_upOneDir_reversed@fileName@@SAXPAU?$__list_struct@Ustring@@@@PAPAU?$__list_struct@U2@@@@Z 
01:00011A70 ?notDriveOrNetworkVolume@fileName@@SAXPB_W@Z 
01:00011B28 ?front_wc@fileName@@SAXPB_WPBUcharCount@@PAPB_W2@Z 
01:00011B5C ?_normalize@fileName@@SAXPB_WPAPB_W@Z  (Idle)
01:00011C38 ?_normalizeSl@fileName@@SAXPB_WPAPB_W@Z 
01:00011C88 ?up_dir@fileName@@SAXPAPB_W@Z 
01:00011C9C ?copy@file@@SAXPB_W0@Z  (Idle)
01:00011CB0 ?copy@file@@SAXPB_W0PAUoverwrite_struct@1@@Z 
01:00011D1C ?move@file@@SAXPB_W0@Z  (Idle)
01:00011D30 ?move@file@@SAXPB_W0PAUoverwrite_struct@1@@Z 
--- From 'Obj\gdiplus.80149785.obj'
01:00011DB4 ?delete@file@@SAXPB_W@Z 
--- From 'Obj\fileSystem.7C044605.obj'
01:00011E44 ?existExactFile@file@@SAXPB_W@Z  (Idle)
01:00011E78 ?existFile@file@@SAXPB_W@Z  (Idle)
01:00011FAC ?tryGetFile@file@@SAXPBUsearchHandle@@PAUwin32_find_data_struct@fileSystem_native@@@Z 
--- From 'Obj\gdiplus.80149785.obj'
01:0001204C ?_createUniqueName@file@@SAXPB_W0PAPB_W@Z 
--- From 'Obj\fileSystem.7C044605.obj'
01:00012148 ?_getPhysicalName@file@@SAXPB_WPAPB_W@Z  (Idle)
01:00012288 ?setAttributes@file@@SAXPB_WPAU?$__list_struct@UfileAttributeAtom@@@@PAUboolean_struct@_builtIn@@@Z  (Idle)
01:000124C0 ?getFileProperties@file@@SAXPB_WPAPAU?$__list_struct@UfileAttributeAtom@@@@PAAAUfileSize@fileSystem_api@@PAAAUgmtTimeValue@@33@Z  (Idle)
01:00012688 ?_tryGetLastChange@file@@SAXPB_WPAAAUgmtTimeValue@@@Z  (Idle)
01:000126E8 ?setFileTime@file@@SAXPB_WPAPBUgmtTimeValue@@11@Z  (Idle)
01:00012928 ?moveToRecycleBin@file@@SAXPB_W@Z  (Idle)
--- From 'Obj\ImageList.3CB6D429.obj'
01:00012A5C ?_readBinary@file@@SAXPB_WQAPAE@Z 
--- From 'Obj\fileSystem.7C044605.obj'
01:00012B24 ?_readFile@file@@SAXPBUfileHandle@@PAXPBUbyteCount@@AAU3@@Z 
01:00012B2C ?_readBinary@file@@SAXPB_WPAPBUfileSize@fileSystem_api@@PBUbyteCount@@QAPAE@Z  (Idle)
01:00012C7C ?_readString@file@@SAXPB_WPAPB_W@Z  (Idle)
01:00012C9C ?_readString@file@@SAXPB_WPAPAUboolean_struct@_builtIn@@PAPB_W@Z 
01:00012D34 ?_readStringFromHandle@file@@SAXPBUfileHandle@@PAPAUboolean_struct@_builtIn@@PAPB_W@Z 
01:00012E28 ?isUnicode@file@@SAXPB_W@Z  (Idle)
01:00012F44 ?tryBOM@file@@SAXPAXPBUbyteCount@@PB_W1@Z  (Idle)
01:00012F7C ?checkUnicode@file@@SAXPAXPBUbyteCount@@PAPAUmode_struct@stream@@AAU2@@Z 
01:0001303C ?_getString@file@@SAXPBUbyteCount@@PAXPAUmode_struct@stream@@0PAPB_W@Z 
01:00013098 ?_getString2@file@@SAXPBUbyteCount@@PAXPAUmode_struct@stream@@PAXPAPB_W@Z 
01:0001313C ?_getFileSize@file@@SAXPBUfileHandle@@PB_WAAUbyteCount@@@Z 
--- From 'Obj\ImageList.3CB6D429.obj'
01:00013210 ?writeBinary@file@@SAXPB_WQAE@Z 
--- From 'Obj\fileSystem.7C044605.obj'
01:000132C0 ?writeFile@file@@SAXPBUfileHandle@@PAXPBUbyteCount@@@Z 
01:000132E4 ?writeBinary@file@@SAXPB_WPAPBUfileSize@fileSystem_api@@QAE@Z  (Idle)
01:000133AC ?writeString@file@@SAXPB_W0@Z  (Idle)
01:0001348C ?appendString@file@@SAXPB_W0PAUboolean_struct@_builtIn@@@Z  (Idle)
01:000135C8 ?writeString@file@@SAXPB_W0PAUboolean_struct@_builtIn@@@Z  (Idle)
01:000135EC ?writeStringUtf8@file@@SAXPB_W0@Z  (Idle)
01:00013640 ?writeStringUtf8_bom@file@@SAXPB_W0@Z  (Idle)
01:00013694 ?writeCodedString@file@@SAXPB_W0PAUcodePage_struct@core@@@Z 
01:00013708 ?checkResult@file@@SAXPBUhResult@@PB_W11PAUoverwrite_struct@1@@Z 
01:00013A3C ?fileExists_errorCode@file@@SAXPBUhResult@@@Z 
01:00013A5C ?hideUnicodeSignature@file@@SAXQAEPBUbyteCount@@PAPAXAAU2@@Z 
01:00013AE0 ?_setDestination@file@@SAXPB_W0PAPB_W@Z 
01:00013B38 ?_toApiAttributes@file@@SAXPAU?$__list_struct@UfileAttributeAtom@@@@PAI@Z 
01:00013B60 ?checkOnLegal@file@@SAXI@Z 
01:00013B94 ?_mixAttributes@file@@SAXPAUboolean_struct@_builtIn@@IIPAI@Z 
01:00013BE0 ?checkFileHandle@file@@SAXPBUfileHandle@@PB_W@Z 
01:00013C10 ?_getStreamCheckUnicode@file@@SAXPB_WPAUboolean_struct@_builtIn@@PAPAVoutputStream@@@@Z  (Idle)
01:00013C38 ?save@file@@SAXPB_WPBUfactDB@@@Z  (Idle)
01:00013C4C ?save@file@@SAXPB_WPBUfactDB@@PAUboolean_struct@_builtIn@@@Z 
01:00013CCC ?_checkSignature@file@@SAXQAVinputStream@@@PAPAUboolean_struct@_builtIn@@@Z  (Idle)
01:00013E34 ?consult@file@@SAXPB_WPBUfactDB@@@Z  (Idle)
01:00013E54 ?consult@file@@SAXPB_WPBUfactDB@@PAPAUboolean_struct@_builtIn@@@Z 
01:00013EF0 ?reconsult@file@@SAXPB_WPBUfactDB@@@Z  (Idle)
01:00013F10 ?reconsult@file@@SAXPB_WPBUfactDB@@PAPAUboolean_struct@_builtIn@@@Z 
01:00013F24 ?_trySearchFileInPath@file@@SAXPB_WPAPB_W@Z  (Idle)
01:00013F68 ?deleteDirectory@directory@@SAXPB_W@Z  (Idle)
01:00013F70 ?makeDirectory@directory@@SAXPB_W@Z  (Idle)
01:00013F84 ?makeDirectoryPath@directory@@SAXPB_W@Z  (Idle)
01:00014078 ?setCurrentDirectory@directory@@SAXPB_W@Z  (Idle)
--- From 'Obj\fileSystem_api.E6C4835F.obj'
01:00014080 ?_getCurrentDirectory@directory@@SAXPAPB_W@Z 
--- From 'Obj\fileSystem.7C044605.obj'
01:00014088 ?moveDirectory@directory@@SAXPB_W0@Z  (Idle)
01:00014090 ?setVolumeLabel@directory@@SAXPB_W0@Z  (Idle)
01:00014098 ?existDirectory@directory@@SAXPB_W@Z 
01:000141A0 ?existExactDirectory@directory@@SAXPB_W@Z  (Idle)
01:000141D0 ?_dirWithoutBackslash@directory@@SAXPB_WPAPB_W@Z 
01:0001421C ?getDirectoryProperties@directory@@SAXPB_WPAPAU?$__list_struct@UfileAttributeAtom@@@@PAAAUgmtTimeValue@@22@Z  (Idle)
01:00014244 ?getVolumeProperties@directory@@SAXPB_WPAPAUvolumeType_struct@1@PAAAUfileSize@fileSystem_api@@2PAPB_WPAI@Z  (Idle)
01:0001429C ?_tryGetLogicalDirectory@directory@@SAXPBUdirectoryID@@PAPB_W@Z  (Idle)
01:000142B8 ?_getLogicalDirectory@directory@@SAXPBUdirectoryID@@PAPB_W@Z  (Idle)
--- From 'Obj\gdiplus.80149785.obj'
01:000142D4 ?_getTemporaryDirectory@directory@@SAXPAPB_W@Z 
--- From 'Obj\fileSystem.7C044605.obj'
01:000142DC ?_tryCreateLogicalDirectory@directory@@SAXPBUdirectoryID@@PAPB_W@Z  (Idle)
01:000142F8 ?_getFilesInDirectory_nd@directory@@SAXPB_WPAPB_W@Z  (Idle)
01:00014318 ?_getFilesInDirectory_nd@directory@@SAXPB_W0PAPB_W@Z 
01:00014334 ?_getFilesInDirectory_nd@directory@@SAXPB_W0PAUboolean_struct@_builtIn@@PAPB_W@Z 
01:0001435C ?_getSubDirectories_nd@directory@@SAXPB_WPAPB_W@Z  (Idle)
01:0001437C ?_getSubDirectories_nd@directory@@SAXPB_W0PAPB_W@Z 
01:000143A0 ?_getFilesInDirectoryAndSub_nd@directory@@SAXPB_WPAPB_W@Z  (Idle)
01:000143C0 ?_getFilesInDirectoryAndSub_nd@directory@@SAXPB_W0PAPB_W@Z 
01:0001444C ?_find@directory@@SAXPB_W0IPAUboolean_struct@_builtIn@@PAPB_W@Z 
01:000145C0 ?_dirWithBackslash@directory@@SAXPB_WPAPB_W@Z 
01:0001463C ?checkHiddenOrSystem@directory@@SAXPB_WPAUboolean_struct@_builtIn@@@Z 
01:00014654 ?isNotHiddenOrSystem@directory@@SAXPB_W@Z 
01:000146A0 ?isSlash@directory@@SAX_W@Z 
01:000146C0 ?findNext@directory@@SAXPBUsearchHandle@fileSystem_native@@PAUwin32_find_data_struct@3@I@Z 
01:0001474C ?_findNext_nd@directory@@SAXPBUsearchHandle@fileSystem_native@@PAUwin32_find_data_struct@3@IPAPB_W@Z 
01:00014860 ?_createFullName@directory@@SAXPB_W0PAPB_W@Z 
01:0001490C ?_tryLogicalDirectoryBuff@directory@@SAXPBUdirectoryId@1@PAUboolean_struct@_builtIn@@PB_WPAPB_W@Z  (Idle)
01:00014A64 ?_logicalDirectoryBuff@directory@@SAXPBUdirectoryId@1@PAUboolean_struct@_builtIn@@PB_WPAPB_W@Z  (Idle)
01:00014C80 ?_tryLogicalDirectory@directory@@SAXPBUdirectoryId@1@PAUboolean_struct@_builtIn@@PAPB_W@Z 
01:00014CB8 ?_logicalDirectory@directory@@SAXPBUdirectoryId@1@PAUboolean_struct@_builtIn@@PAPB_W@Z 
01:00014CF0 ?_addNeedCreateIfNecessary@directory@@SAXPBUdirectoryId@1@PAUboolean_struct@_builtIn@@AAU21@@Z 
01:00014D20 ?_convertToVolumeType@directory@@SAXHPAPAUvolumeType_struct@1@@Z 
01:00014DA0 ?_browseForFolder@directory@@SAXPBUhwnd@@PB_W1PAUboolean_struct@_builtIn@@PAPB_W@Z  (Idle)
01:00014E44 ?_getBrowseForFolderFlags@directory@@SAXPAUboolean_struct@_builtIn@@PAI@Z 
01:00014E68 ?browseForFolderCallback@directory@@SGHPBUhwnd@@IPBUlParam@@2@Z 
01:00015064 outputStream_file?_initObject@@@QAGXQAV1@H@Z 
01:00015098 ?@create_object@outputStream_file@@SGQAV1@@XZ 
01:000150B4 outputStream_file?_InternalFinalizer@@@QAGXQAV1@@Z 
01:000150CC messageFile?_initObject@@@QAGXQAV1@H@Z 
01:000150E0 ?@create_object@messageFile@@SGQAV1@@XZ 
01:000150FC messageFile?_InternalFinalizer@@@QAGXQAV1@@Z 
01:000152E4 inputStream_file?_initObject@@@QAGXQAV1@H@Z 
01:00015318 ?@create_object@inputStream_file@@SGQAV1@@XZ 
01:00015334 inputStream_file?_InternalFinalizer@@@QAGXQAV1@@Z 
--- From 'Obj\exceptionDump.CAECE2A1.obj'
01:00015350 ?dump@exceptionDump@@SAXQAVoutputStream@@@PBUtraceId@exception@@@Z  (Idle)
--- From 'Obj\errorPresentationDialog.15C128A1.obj'
01:00015378 ?dump_info@exceptionDump@@SAXQAVoutputStream@@@PAUtraceInfo_struct@exception@@@Z 
--- From 'Obj\exceptionDump.CAECE2A1.obj'
01:00015404 ?dump_programPoint@exceptionDump@@SAXQAVoutputStream@@@PAUprogramPoint_struct@core@@@Z 
--- From 'Obj\exe.DC930661.obj'
01:000154F8 ?dumpToStdOutput@exceptionDump@@SAXPBUtraceId@exception@@@Z 
--- From 'Obj\exceptionDump.CAECE2A1.obj'
01:00015520 ?dumpToStdOutput_info@exceptionDump@@SAXPAUtraceInfo_struct@exception@@@Z 
01:0001557C ?dumpToStdOutput_programpoint@exceptionDump@@SAXPAUprogramPoint_struct@core@@@Z  (Idle)
--- From 'Obj\vpi.E4453945.obj'
01:000155D8 ?_dumpToString@exceptionDump@@SAXPBUtraceId@exception@@PAPB_W@Z 
--- From 'Obj\exceptionDump.CAECE2A1.obj'
01:00015600 ?_dumpToString_info@exceptionDump@@SAXPAUtraceInfo_struct@exception@@PAPB_W@Z 
01:00015638 ?_dumpToString_programpoint@exceptionDump@@SAXPAUprogramPoint_struct@core@@PAPB_W@Z  (Idle)
01:00015670 ?dumpToStdOutputInTrap@exceptionDump@@SAXQAVrTypeLibrary@TypeLibraries@RunTime@VIP@@PAXX@Z 
01:000156E0 ?processErrorOnDumpToStdOut@exceptionDump@@SAXPAUtraceInfo_struct@exception@@@Z  (Idle)
01:00015754 ?processErrorOnDumpToStdOutTrapped@exceptionDump@@SAXPBUtraceId@@@Z 
01:000157B4 ?_formatDescriptorList@exceptionDump@@SAXPAU?$__list_struct@Udescriptor@exception@@@@PAPB_W@Z  (Idle)
01:000157EC ?_formatDescriptor@exceptionDump@@SAXPAUdescriptor_struct@exception@@PAPB_W@Z  (Idle)
01:00015824 ?_formatExtraInfo@exceptionDump@@SAXPAU?$__list_struct@UnamedValue@@@@PAPB_W@Z  (Idle)
01:0001585C ?_formatLineInfoList@exceptionDump@@SAXPAU?$__list_struct@UlineInfo@exception@@@@PAPB_W@Z  (Idle)
01:00015894 ?_fillUsrMsgTags@exceptionDump@@SAXPB_WPAU?$__list_struct@UnamedValue@@@@PAPB_W@Z  (Idle)
01:0001596C ?_substituteTag@exceptionDump@@SAXPB_WPAU?$__list_struct@UnamedValue@@@@PAPB_W@Z 
01:000159B8 ?getUserMsgFromNV_dt@exceptionDump@@SAXPAU?$__list_struct@UnamedValue@@@@PAPB_W@Z  (Idle)
01:00015A50 ?getUserMsg_dt@exceptionDump@@SAXPAUdescriptor_struct@exception@@PAPB_W@Z  (Idle)
01:00015A68 ?_getUserMsg@exceptionDump@@SAXPAU?$__list_struct@Udescriptor@exception@@@@PAPB_W@Z  (Idle)
--- From 'Obj\errorPresentationDialog.15C128A1.obj'
01:00015B08 ?_tryGetUserMessage@exceptionDump@@SAXPBUtraceId@exception@@PAPB_W@Z 
--- From 'Obj\exceptionDump.CAECE2A1.obj'
01:00015B30 ?_tryGetUserMessage_info@exceptionDump@@SAXPAUtraceInfo_struct@exception@@PAPB_W@Z 
01:00015B48 ?_tryGetUserMessageFromDescriptorList@exceptionDump@@SAXPAU?$__list_struct@Udescriptor@exception@@@@PAPB_W@Z 
01:00015B74 ?writeTraceInfo@exceptionDump@@SAXQAVoutputStream@@@PAUtraceInfo_struct@exception@@@Z 
01:00015C28 ?writeDescriptor_list@exceptionDump@@SAXQAVoutputStream@@@PAU?$__list_struct@Udescriptor@@@@@Z 
01:00015C6C ?writeErrorDescriptorInformation@exceptionDump@@SAXQAVoutputStream@@@PAUdescriptor_struct@exception@@@Z 
01:00015FB4 ?section@exceptionDump@@SAXQAVoutputStream@@@PB_W@Z  (Idle)
01:00015FFC ?writeOSInformation@exceptionDump@@SAXQAVoutputStream@@@PB_W@Z 
01:00016070 ?writeLineInfo_list@exceptionDump@@SAXQAVoutputStream@@@PAU?$__list_struct@UlineInfo@@@@@Z 
01:000160DC ?writeLineInfo@exceptionDump@@SAXQAVoutputStream@@@PAUlineInfo_struct@exception@@@Z 
01:00016170 ?writeException@exceptionDump@@SAXQAVoutputStream@@@PAUexception_struct@core@@@Z 
01:000161D4 ?writeExtraInfo@exceptionDump@@SAXQAVoutputStream@@@PAU?$__list_struct@UnamedValue@@@@@Z 
01:00016250 ?writePosition@exceptionDump@@SAXQAVoutputStream@@@IPB_W@Z 
01:00016294 ?writeNamedValue@exceptionDump@@SAXQAVoutputStream@@@PAUnamedValue_struct@core@@@Z 
01:00016350 ?writeValue_or_NULL@exceptionDump@@SAXQAVoutputStream@@@PB_W@Z  (Idle)
01:000163C8 ?writeValue@exceptionDump@@SAXQAVoutputStream@@@PAUvalue_struct@core@@@Z 
01:000166CC ?writeValue_or_NULL@exceptionDump@@SAXQAVoutputStream@@@PAD@Z 
01:00016744 ?writeValue_or_NULL@exceptionDump@@SAXQAVoutputStream@@@QAE@Z 
01:000167BC ?writeValue_or_NULL@exceptionDump@@SAXQAVoutputStream@@@PBUbinaryNonAtomic@@@Z 
01:00016834 ?writeValue_or_NULL@exceptionDump@@SAXQAVoutputStream@@@QAVobject@@@@Z 
--- From 'Obj\errorPresentationDialog.15C128A1.obj'
01:000168B0 ?setBatchMode@errorPresentationDialog@@SAXPB_W@Z  (Idle)
01:000168C0 ?dumpIfBatchMode@errorPresentationDialog@@SAXPB_WPAUoptional_struct@core@@PAUtraceInfo_struct@exception@@@Z  (Idle)
01:0001696C ?copyErrorReport@errorPresentationDialog@@SAXQAVwindow@@@PAUoptional_struct@core@@PAUtraceInfo_struct@exception@@PB_W2@Z 
01:000169CC ?nullExtraInfoWriter@errorPresentationDialog@@SAXQAVoutputStream@@@@Z 
01:000169D4 ?_formatTraceAndExtra@errorPresentationDialog@@SAXPB_WPAUoptional_struct@core@@PAUtraceInfo_struct@exception@@0PAPB_W@Z 
01:00016A90 ?extraInfo@errorPresentationDialog@@SGPB_WQAV1@@@Z 
01:00016AFC ?displayDefiniteUserError@errorPresentationDialog@@SAXPB_W@Z  (Idle)
01:00016B2C ?displayDefiniteUserError@errorPresentationDialog@@SAXQAVwindow@@@PB_W@Z 
01:00016B78 ?displayUserError@errorPresentationDialog@@SAXPB_WPAUtraceInfo_struct@exception@@@Z  (Idle)
01:00016BB4 ?displayUserError@errorPresentationDialog@@SAXQAVwindow@@@PB_WPAUtraceInfo_struct@exception@@@Z 
01:00016C10 ?displayInternalError@errorPresentationDialog@@SAXPAUtraceInfo_struct@exception@@@Z  (Idle)
01:00016C40 ?displayInternalError@errorPresentationDialog@@SAXQAVwindow@@@PAUtraceInfo_struct@exception@@@Z 
01:00016C9C ?displayError@errorPresentationDialog@@SAXPAUtraceInfo_struct@exception@@@Z  (Idle)
01:00016CCC ?displayError@errorPresentationDialog@@SAXQAVwindow@@@PAUtraceInfo_struct@exception@@@Z 
01:00016D28 ?displayFeedback@errorPresentationDialog@@SAXXZ  (Idle)
01:00016D4C ?displayFeedback@errorPresentationDialog@@SAXQAVwindow@@@@Z 
01:00016D74 ?_getPrettyUserMsg@errorPresentationDialog@@SAXPAU?$__list_struct@Udescriptor@exception@@@@PAPB_W@Z 
01:00016E14 ?_getPrettyUserMsg_dt@errorPresentationDialog@@SAXPAUdescriptor_struct@exception@@PAPB_W@Z 
01:00016E2C ?_getPrettyUserMsgFromNV_dt@errorPresentationDialog@@SAXPAU?$__list_struct@UnamedValue@@@@PAPB_W@Z 
01:00016EC8 ?_fillUsrMsgTags@errorPresentationDialog@@SAXPB_WPAU?$__list_struct@UnamedValue@@@@PAPB_W@Z 
01:00016FA0 ?_substituteTag@errorPresentationDialog@@SAXPB_WPAU?$__list_struct@UnamedValue@@@@PAPB_W@Z 
01:00016FEC ?newUserError@errorPresentationDialog@@SAXQAV1@@QAVwindow@@@PB_WPAUtraceInfo_struct@exception@@@Z  (Idle)
01:00017038 ?newInternalError@errorPresentationDialog@@SAXQAV1@@QAVwindow@@@PAUtraceInfo_struct@exception@@@Z  (Idle)
01:000170D4 ?newFeedback@errorPresentationDialog@@SAXQAV1@@QAVwindow@@@@Z  (Idle)
01:00017144 ?anonymous$o0$1$commonnew/4np$errorPresentationDialog@1@SAXPAUanonymous$o0$1$commonnew/4np$errorPresentationDialogc_struct@1@@Z 
01:0001718C ?commonNew@errorPresentationDialog@@SAXQAV1@@QAVwindow@@@PBUresid@vpiDomains@@PB_WPAUoptional_struct@core@@PAUtraceInfo_struct@exception@@@Z 
01:0001738C ?_onShowDetails@errorPresentationDialog@@SAXQAV1@@QAVbutton@@@PAPAUactionResponse_struct@3@@Z 
01:000173A4 ?_onHideDetails@errorPresentationDialog@@SAXQAV1@@QAVbutton@@@PAPAUactionResponse_struct@3@@Z 
01:000173BC ?showDetails@errorPresentationDialog@@SAXQAV1@@@Z 
01:000176F8 ?anonymous$o0$1$hidedetails/0np$errorPresentationDialog@1@SAXPAUanonymous$o0$1$hidedetails/0np$errorPresentationDialogc_struct@1@@Z 
01:000177EC ?hideDetails@errorPresentationDialog@@SAXQAV1@@@Z 
01:000178D4 ?makeRoomForDetails@errorPresentationDialog@@SAXQAV1@@H@Z 
--- From 'Obj\vpi.E4453945.obj'
01:00017944 ?present@errorPresentationDialog@@SAXPBUtraceId@exception@@@Z 
--- From 'Obj\gui.0D1EF882.obj'
01:00017974 ?present@errorPresentationDialog@@SAXQAVwindow@@@PBUtraceId@@@Z 
--- From 'Obj\errorPresentationDialog.15C128A1.obj'
01:00017A48 ?anonymous$c0$1$presentasynchronously/1np$errorPresentationDialog@1@SAXPAUanonymous$c0$1$presentasynchronously/1np$errorPresentationDialogc_struct@1@@Z 
01:00017A60 ?presentAsynchronously@errorPresentationDialog@@SAXPBUtraceId@exception@@@Z  (Idle)
01:00017ABC ?_onReportErrorClick@errorPresentationDialog@@SAXQAV1@@QAVbutton@@@PAPAUactionResponse_struct@3@@Z 
01:00017BA0 ?_onCloseAppClick@errorPresentationDialog@@SAXQAVbutton@@@PAPAUactionResponse_struct@2@@Z 
01:00017C08 ?generatedInitialize@errorPresentationDialog@@SAXQAV1@@@Z 
01:000186BC ?_newUserError@errorPresentationDialog@@SAXQAVwindow@@@PB_WPAUtraceInfo_struct@exception@@PAPAV1@@@Z 
01:000186EC ?_newInternalError@errorPresentationDialog@@SAXQAVwindow@@@PAUtraceInfo_struct@exception@@PAPAV1@@@Z 
01:00018718 ?_newFeedback@errorPresentationDialog@@SAXQAVwindow@@@PAPAV1@@@Z 
01:00018740 ?title@errorPresentationDialog@@SGXPB_W@Z  (Idle)
01:0001874C ?title@errorPresentationDialog@@SGPB_WXZ  (Idle)
01:00018754 ?internalErrorMessage@errorPresentationDialog@@SGXPB_W@Z  (Idle)
01:00018760 ?internalErrorMessage@errorPresentationDialog@@SGPB_WXZ  (Idle)
01:00018768 ?commentTextPromt@errorPresentationDialog@@SGXPB_W@Z  (Idle)
01:00018774 ?commentTextPromt@errorPresentationDialog@@SGPB_WXZ  (Idle)
01:0001877C ?feedbackMessage@errorPresentationDialog@@SGXPB_W@Z  (Idle)
01:00018788 ?feedbackMessage@errorPresentationDialog@@SGPB_WXZ  (Idle)
01:00018790 ?callBackBtnText@errorPresentationDialog@@SGXPB_W@Z  (Idle)
01:0001879C ?callBackBtnText@errorPresentationDialog@@SGPB_WXZ  (Idle)
01:000187A4 ?dontCallBackBtnText@errorPresentationDialog@@SGXPB_W@Z  (Idle)
01:000187B0 ?dontCallBackBtnText@errorPresentationDialog@@SGPB_WXZ  (Idle)
01:000187B8 ?showDetailsBtnText@errorPresentationDialog@@SGXPB_W@Z  (Idle)
01:000187C4 ?showDetailsBtnText@errorPresentationDialog@@SGPB_WXZ  (Idle)
01:000187CC ?hideDetailsBtnText@errorPresentationDialog@@SGXPB_W@Z  (Idle)
01:000187D8 ?hideDetailsBtnText@errorPresentationDialog@@SGPB_WXZ  (Idle)
01:000187E0 ?closeApplicationBtnText@errorPresentationDialog@@SGXPB_W@Z  (Idle)
01:000187EC ?closeApplicationBtnText@errorPresentationDialog@@SGPB_WXZ  (Idle)
01:000187F4 ?definiteUserErrorIcon@errorPresentationDialog@@SGXPBUresid@vpiDomains@@@Z  (Idle)
01:00018800 ?definiteUserErrorIcon@errorPresentationDialog@@SGPBUresid@vpiDomains@@XZ  (Idle)
01:00018808 ?userErrorIcon@errorPresentationDialog@@SGXPBUresid@vpiDomains@@@Z  (Idle)
01:00018814 ?userErrorIcon@errorPresentationDialog@@SGPBUresid@vpiDomains@@XZ  (Idle)
01:0001881C ?internalErrorIcon@errorPresentationDialog@@SGXPBUresid@vpiDomains@@@Z  (Idle)
01:00018828 ?internalErrorIcon@errorPresentationDialog@@SGPBUresid@vpiDomains@@XZ  (Idle)
01:00018830 ?reportErrorDelegate@errorPresentationDialog@@SGXX@Z  (Idle)
01:0001883C ?reportErrorDelegate@errorPresentationDialog@@SGXXZ  (Idle)
01:00018844 ?extraInfoWriter@errorPresentationDialog@@SGXX@Z  (Idle)
01:00018850 ?extraInfoWriter@errorPresentationDialog@@SGXXZ  (Idle)
01:0001A4D0 errorPresentationDialog?_initObject@@@QAGXQAV1@H@Z 
01:0001A508 ?@create_object@errorPresentationDialog@@SGQAV1@@XZ 
01:0001A524 errorPresentationDialog?_InternalFinalizer@@@QAGXQAV1@@Z 
--- From 'Obj\list.AD480F98.obj'
01:0001A540 ?_anonymous$c0$1$comparelexically/1nf$list@1@SAXPAUanonymous$c0$1$comparelexically/1nf$listc_struct@1@PAU?$__list_struct@PAX@@1PAPAUcompareResult_struct@_builtIn@@@Z 
01:0001A584 ?_compareLexically@list@@SAXQAVrTypeLibrary@TypeLibraries@RunTime@VIP@@XPAX@Z  (Idle)
01:0001A5BC ?_compareLexically@list@@SAXQAVrTypeLibrary@TypeLibraries@RunTime@VIP@@XPAU?$__list_struct@PAX@@2PAPAUcompareResult_struct@_builtIn@@@Z 
--- From 'Obj\controls.5CEFAE16.obj'
01:0001A670 ?_length@list@@SAXQAVrTypeLibrary@TypeLibraries@RunTime@VIP@@PAU?$__list_struct@PAX@@AAUpositive@@@Z 
--- From 'Obj\list.AD480F98.obj'
01:0001A68C ?_length2@list@@SAXQAVrTypeLibrary@TypeLibraries@RunTime@VIP@@PAU?$__list_struct@PAX@@PBUpositive@@AAU2@@Z 
--- From 'Obj\controls.5CEFAE16.obj'
01:0001A6C8 ?isMember@list@@SAXQAVrTypeLibrary@TypeLibraries@RunTime@VIP@@PAXPAU?$__list_struct@PAX@@@Z 
--- From 'Obj\list.AD480F98.obj'
01:0001A718 ?isMemberBy@list@@SAXQAVrTypeLibrary@TypeLibraries@RunTime@VIP@@0XPAXPAU?$__list_struct@PAX@@@Z  (Idle)
01:0001A744 ?anonymous$c0$1$comp2eq/1nf$list@1@SAXPAUanonymous$c0$1$comp2eq/1nf$listc_struct@1@PAXPAX@Z 
01:0001A784 ?_comp2eq@list@@SAXQAVrTypeLibrary@TypeLibraries@RunTime@VIP@@0XPAX@Z 
01:0001A7C4 ?isMemberEq@list@@SAXQAVrTypeLibrary@TypeLibraries@RunTime@VIP@@0XPAXPAU?$__list_struct@PAX@@@Z 
01:0001A828 ?_tryGetMemberBy@list@@SAXQAVrTypeLibrary@TypeLibraries@RunTime@VIP@@0XPAXPAU?$__list_struct@PAX@@PAPAX@Z  (Idle)
01:0001A854 ?_tryGetMemberEq@list@@SAXQAVrTypeLibrary@TypeLibraries@RunTime@VIP@@0XPAXPAU?$__list_struct@PAX@@PAPAX@Z 
--- From 'Obj\controls.5CEFAE16.obj'
01:0001A8BC ?_getMember_nd@list@@SAXQAVrTypeLibrary@TypeLibraries@RunTime@VIP@@PAU?$__list_struct@PAX@@PAPAX@Z 
--- From 'Obj\list.AD480F98.obj'
01:0001A900 ?_getTupleMember_nd@list@@SAXQAVrTypeLibrary@TypeLibraries@RunTime@VIP@@0PAUtuple_struct@core@@PAU?$__list_struct@PAX@@PAU?$__list_struct@PAX@@PAPAU23@PAPAXPAPAX@Z  (Idle)
--- From 'Obj\gdiplus.80149785.obj'
01:0001A934 ?memberIndex_nd@list@@SAXQAVrTypeLibrary@TypeLibraries@RunTime@VIP@@PAPAXAAUpositive@@PAU?$__list_struct@PAX@@@Z 
--- From 'Obj\list.AD480F98.obj'
01:0001A948 ?memberIndexAcc_nd@list@@SAXQAVrTypeLibrary@TypeLibraries@RunTime@VIP@@PAPAXAAUpositive@@PAU?$__list_struct@PAX@@PBU2@@Z 
01:0001A9A4 ?_zipHead_nd@list@@SAXQAVrTypeLibrary@TypeLibraries@RunTime@VIP@@0PAU?$__list_struct@PAX@@2PAPAUtuple_struct@core@@PAPAXPAPAX@Z  (Idle)
01:0001AA30 ?_zip_nd@list@@SAXQAVrTypeLibrary@TypeLibraries@RunTime@VIP@@0PAU?$__list_struct@PAX@@2PAPAUtuple_struct@core@@PAPAXPAPAX@Z 
01:0001AAE8 ?_zip_nd@list@@SAXQAVrTypeLibrary@TypeLibraries@RunTime@VIP@@00PAU?$__list_struct@PAX@@33PAPAUtuple_struct@core@@PAPAXPAPAXPAPAX@Z  (Idle)
01:0001AC34 ?_zip_nd@list@@SAXQAVrTypeLibrary@TypeLibraries@RunTime@VIP@@000PAU?$__list_struct@PAX@@444PAPAUtuple_struct@core@@PAPAXPAPAXPAPAXPAPAX@Z  (Idle)
01:0001AE40 ?_zip_nd@list@@SAXQAVrTypeLibrary@TypeLibraries@RunTime@VIP@@0000PAU?$__list_struct@PAX@@5555PAPAUtuple_struct@core@@PAPAXPAPAXPAPAXPAPAXPAPAX@Z  (Idle)
01:0001B0B8 ?_zip_nd@list@@SAXQAVrTypeLibrary@TypeLibraries@RunTime@VIP@@00000PAU?$__list_struct@PAX@@66666PAPAUtuple_struct@core@@PAPAXPAPAXPAPAXPAPAXPAPAXPAPAX@Z  (Idle)
01:0001B3B0 ?_zipWith@list@@SAXQAVrTypeLibrary@TypeLibraries@RunTime@VIP@@00XPAU?$__list_struct@PAX@@4PAPAU?$__list_struct@PAPAX@@@Z  (Idle)
01:0001B448 ?_zip@list@@SAXQAVrTypeLibrary@TypeLibraries@RunTime@VIP@@0PAU?$__list_struct@PAX@@2PAPAU?$__list_struct@PAPAUtuple_struct@core@@PAPAXPAPAX@@@Z  (Idle)
01:0001B4B8 ?_zip@list@@SAXQAVrTypeLibrary@TypeLibraries@RunTime@VIP@@00PAU?$__list_struct@PAX@@33PAPAU?$__list_struct@PAPAUtuple_struct@core@@PAPAXPAPAXPAPAX@@@Z  (Idle)
01:0001B530 ?_zip@list@@SAXQAVrTypeLibrary@TypeLibraries@RunTime@VIP@@000PAU?$__list_struct@PAX@@444PAPAU?$__list_struct@PAPAUtuple_struct@core@@PAPAXPAPAXPAPAXPAPAX@@@Z  (Idle)
01:0001B5AC ?_zip@list@@SAXQAVrTypeLibrary@TypeLibraries@RunTime@VIP@@0000PAU?$__list_struct@PAX@@5555PAPAU?$__list_struct@PAPAUtuple_struct@core@@PAPAXPAPAXPAPAXPAPAXPAPAX@@@Z  (Idle)
01:0001B630 ?_zip@list@@SAXQAVrTypeLibrary@TypeLibraries@RunTime@VIP@@00000PAU?$__list_struct@PAX@@66666PAPAU?$__list_struct@PAPAUtuple_struct@core@@PAPAXPAPAXPAPAXPAPAXPAPAXPAPAX@@@Z  (Idle)
01:0001B6B8 ?unzip@list@@SAXQAVrTypeLibrary@TypeLibraries@RunTime@VIP@@0PAU?$__list_struct@PAUtuple_struct@core@@PAXPAX@@PAPAU?$__list_struct@PAPAX@@3@Z  (Idle)
01:0001B750 ?unzip@list@@SAXQAVrTypeLibrary@TypeLibraries@RunTime@VIP@@00PAU?$__list_struct@PAUtuple_struct@core@@PAXPAXPAX@@PAPAU?$__list_struct@PAPAX@@44@Z  (Idle)
01:0001B820 ?unzip@list@@SAXQAVrTypeLibrary@TypeLibraries@RunTime@VIP@@000PAU?$__list_struct@PAUtuple_struct@core@@PAXPAXPAXPAX@@PAPAU?$__list_struct@PAPAX@@555@Z  (Idle)
01:0001B928 ?unzip@list@@SAXQAVrTypeLibrary@TypeLibraries@RunTime@VIP@@0000PAU?$__list_struct@PAUtuple_struct@core@@PAXPAXPAXPAXPAX@@PAPAU?$__list_struct@PAPAX@@6666@Z  (Idle)
01:0001BA6C ?unzip@list@@SAXQAVrTypeLibrary@TypeLibraries@RunTime@VIP@@00000PAU?$__list_struct@PAUtuple_struct@core@@PAXPAXPAXPAXPAXPAX@@PAPAU?$__list_struct@PAPAX@@77777@Z  (Idle)
01:0001BBE8 ?_anonymous$c0$1$sort/1$list@1@SAXPAUanonymous$c0$1$sort/1$listc_struct@1@PAXPAXPAPAUcompareResult_struct@_builtIn@@@Z 
--- From 'Obj\gdiplus.80149785.obj'
01:0001BC00 ?_sort@list@@SAXQAVrTypeLibrary@TypeLibraries@RunTime@VIP@@PAU?$__list_struct@PAX@@PAPAU?$__list_struct@PAPAX@@@Z 
--- From 'Obj\list.AD480F98.obj'
01:0001BC4C ?_cmp@list@@SAXQAVrTypeLibrary@TypeLibraries@RunTime@VIP@@PAXPAXPAPAUcompareResult_struct@_builtIn@@@Z 
01:0001BC54 ?_anonymous$c0$1$sort/2nf$list@1@SAXPAUanonymous$c0$1$sort/2nf$listc_struct@1@PAXPAXPAPAUcompareResult_struct@_builtIn@@@Z 
01:0001BC88 ?_sort@list@@SAXQAVrTypeLibrary@TypeLibraries@RunTime@VIP@@PAU?$__list_struct@PAX@@PAUsortOrder_struct@core@@PAPAU?$__list_struct@PAPAX@@@Z  (Idle)
01:0001BCF0 ?_anonymous$c0$1$sortby/3nf$list@1@SAXPAUanonymous$c0$1$sortby/3nf$listc_struct@1@PAXPAXPAPAUcompareResult_struct@_builtIn@@@Z 
01:0001BD20 ?_sortBy@list@@SAXQAVrTypeLibrary@TypeLibraries@RunTime@VIP@@XPAU?$__list_struct@PAX@@PAUsortOrder_struct@core@@PAPAU?$__list_struct@PAPAX@@@Z  (Idle)
--- From 'Obj\gui.0D1EF882.obj'
01:0001BD7C ?_sortBy@list@@SAXQAVrTypeLibrary@TypeLibraries@RunTime@VIP@@XPAU?$__list_struct@PAX@@PAPAU?$__list_struct@PAPAX@@@Z 
--- From 'Obj\list.AD480F98.obj'
01:0001BDA8 ?_merge@list@@SAXQAVrTypeLibrary@TypeLibraries@RunTime@VIP@@XPAU?$__list_struct@PAU?$__list_struct@PAX@@@@PAPAU?$__list_struct@PAPAX@@@Z 
01:0001BE18 ?mergeL@list@@SAXQAVrTypeLibrary@TypeLibraries@RunTime@VIP@@XPAU?$__list_struct@PAU?$__list_struct@PAX@@@@PAPAU?$__list_struct@PAPAU?$__list_struct@PAPAX@@@@@Z 
01:0001BEA8 ?_merge2@list@@SAXQAVrTypeLibrary@TypeLibraries@RunTime@VIP@@XPAU?$__list_struct@PAX@@2PAPAU?$__list_struct@PAPAX@@@Z 
01:0001BFA0 ?_mkRuns@list@@SAXQAVrTypeLibrary@TypeLibraries@RunTime@VIP@@XPAU?$__list_struct@PAX@@PAPAU?$__list_struct@PAPAU?$__list_struct@PAPAX@@@@@Z 
01:0001C0C0 ?takeRun@list@@SAXQAVrTypeLibrary@TypeLibraries@RunTime@VIP@@XPAXPAU?$__list_struct@PAX@@PAPAU?$__list_struct@PAPAX@@4@Z 
01:0001C1A8 ?takeRunDown@list@@SAXQAVrTypeLibrary@TypeLibraries@RunTime@VIP@@XPAXPAU?$__list_struct@PAX@@3PAPAU?$__list_struct@PAPAX@@5@Z 
--- From 'Obj\controls.5CEFAE16.obj'
01:0001C27C ?_append@list@@SAXQAVrTypeLibrary@TypeLibraries@RunTime@VIP@@PAU?$__list_struct@PAX@@1PAPAU?$__list_struct@PAPAX@@@Z 
--- From 'Obj\list.AD480F98.obj'
01:0001C2A0 ?_append1@list@@SAXQAVrTypeLibrary@TypeLibraries@RunTime@VIP@@PAU?$__list_struct@PAX@@1PAPAU?$__list_struct@PAPAX@@@Z 
01:0001C300 ?_append@list@@SAXQAVrTypeLibrary@TypeLibraries@RunTime@VIP@@PAU?$__list_struct@PAX@@11PAPAU?$__list_struct@PAPAX@@@Z  (Idle)
01:0001C334 ?_append@list@@SAXQAVrTypeLibrary@TypeLibraries@RunTime@VIP@@PAU?$__list_struct@PAX@@111PAPAU?$__list_struct@PAPAX@@@Z  (Idle)
01:0001C364 ?_append@list@@SAXQAVrTypeLibrary@TypeLibraries@RunTime@VIP@@PAU?$__list_struct@PAX@@1111PAPAU?$__list_struct@PAPAX@@@Z  (Idle)
01:0001C394 ?_appendList@list@@SAXQAVrTypeLibrary@TypeLibraries@RunTime@VIP@@PAU?$__list_struct@PAU?$__list_struct@PAX@@@@PAPAU?$__list_struct@PAPAX@@@Z  (Idle)
01:0001C410 ?_reverse@list@@SAXQAVrTypeLibrary@TypeLibraries@RunTime@VIP@@PAU?$__list_struct@PAX@@PAPAU?$__list_struct@PAPAX@@@Z 
01:0001C438 ?_reverse1@list@@SAXQAVrTypeLibrary@TypeLibraries@RunTime@VIP@@PAU?$__list_struct@PAX@@1PAPAU?$__list_struct@PAPAX@@@Z 
01:0001C488 ?_remove@list@@SAXQAVrTypeLibrary@TypeLibraries@RunTime@VIP@@PAU?$__list_struct@PAX@@PAXPAPAU?$__list_struct@PAPAX@@@Z  (Idle)
01:0001C520 ?_removeBy@list@@SAXQAVrTypeLibrary@TypeLibraries@RunTime@VIP@@0XPAU?$__list_struct@PAX@@PAXPAPAU?$__list_struct@PAPAX@@@Z  (Idle)
01:0001C54C ?_removeEq@list@@SAXQAVrTypeLibrary@TypeLibraries@RunTime@VIP@@0XPAU?$__list_struct@PAX@@PAXPAPAU?$__list_struct@PAPAX@@@Z 
--- From 'Obj\sciLexerSupport.FEC4A01D.obj'
01:0001C5F4 ?_removeAll@list@@SAXQAVrTypeLibrary@TypeLibraries@RunTime@VIP@@PAU?$__list_struct@PAX@@PAXPAPAU?$__list_struct@PAPAX@@@Z 
--- From 'Obj\list.AD480F98.obj'
01:0001C694 ?_removeAllBy@list@@SAXQAVrTypeLibrary@TypeLibraries@RunTime@VIP@@0XPAU?$__list_struct@PAX@@PAXPAPAU?$__list_struct@PAPAX@@@Z  (Idle)
01:0001C6C0 ?_removeAllEq@list@@SAXQAVrTypeLibrary@TypeLibraries@RunTime@VIP@@0XPAU?$__list_struct@PAX@@PAXPAPAU?$__list_struct@PAPAX@@@Z 
01:0001C76C ?_removeDuplicates@list@@SAXQAVrTypeLibrary@TypeLibraries@RunTime@VIP@@PAU?$__list_struct@PAX@@PAPAU?$__list_struct@PAPAX@@@Z  (Idle)
01:0001C7A0 ?_removeDuplicatesBy@list@@SAXQAVrTypeLibrary@TypeLibraries@RunTime@VIP@@XPAU?$__list_struct@PAX@@PAPAU?$__list_struct@PAPAX@@@Z  (Idle)
01:0001C7D4 ?_removeDuplicates1@list@@SAXQAVrTypeLibrary@TypeLibraries@RunTime@VIP@@PAU?$__list_struct@PAX@@QAVsetM@@@PAXPAPAU?$__list_struct@PAPAX@@@Z 
01:0001C8A0 ?_removeDuplicatesEq@list@@SAXQAVrTypeLibrary@TypeLibraries@RunTime@VIP@@XPAU?$__list_struct@PAX@@PAPAU?$__list_struct@PAPAX@@@Z  (Idle)
01:0001C944 ?_anonymous$c0$1$removeConsecutiveDuplicates/1$list@1@SAXPAUanonymous$c0$1$removeConsecutiveDuplicates/1$listc_struct@1@PAXPAXPAPAUcompareResult_struct@_builtIn@@@Z 
01:0001C95C ?_removeConsecutiveDuplicates@list@@SAXQAVrTypeLibrary@TypeLibraries@RunTime@VIP@@PAU?$__list_struct@PAX@@PAPAU?$__list_struct@PAPAX@@@Z  (Idle)
01:0001C9A8 ?_removeConsecutiveDuplicatesEq@list@@SAXQAVrTypeLibrary@TypeLibraries@RunTime@VIP@@XPAU?$__list_struct@PAX@@PAPAU?$__list_struct@PAPAX@@@Z  (Idle)
01:0001CA80 ?_removeConsecutiveDuplicatesBy@list@@SAXQAVrTypeLibrary@TypeLibraries@RunTime@VIP@@XPAU?$__list_struct@PAX@@PAPAU?$__list_struct@PAPAX@@@Z 
--- From 'Obj\controls.5CEFAE16.obj'
01:0001CB54 ?_difference@list@@SAXQAVrTypeLibrary@TypeLibraries@RunTime@VIP@@PAU?$__list_struct@PAX@@1PAPAU?$__list_struct@PAPAX@@@Z 
--- From 'Obj\list.AD480F98.obj'
01:0001CC00 ?_differenceBy@list@@SAXQAVrTypeLibrary@TypeLibraries@RunTime@VIP@@0XPAU?$__list_struct@PAX@@3PAPAU?$__list_struct@PAPAX@@@Z  (Idle)
01:0001CC2C ?_differenceEq@list@@SAXQAVrTypeLibrary@TypeLibraries@RunTime@VIP@@0XPAU?$__list_struct@PAX@@3PAPAU?$__list_struct@PAPAX@@@Z 
01:0001CCDC ?_nDuplicates@list@@SAXQAVrTypeLibrary@TypeLibraries@RunTime@VIP@@PAXPBUpositive@@PAPAU?$__list_struct@PAPAX@@@Z  (Idle)
--- From 'Obj\gui.0D1EF882.obj'
01:0001CD2C ?_tryGetIndex@list@@SAXQAVrTypeLibrary@TypeLibraries@RunTime@VIP@@PAXPAU?$__list_struct@PAX@@AAUpositive@@@Z 
--- From 'Obj\list.AD480F98.obj'
01:0001CD48 ?_tryGetIndex@list@@SAXQAVrTypeLibrary@TypeLibraries@RunTime@VIP@@PAXPAU?$__list_struct@PAX@@PBUpositive@@AAU2@@Z 
01:0001CDB0 ?_tryGetIndexBy@list@@SAXQAVrTypeLibrary@TypeLibraries@RunTime@VIP@@0XPAXPAU?$__list_struct@PAX@@AAUpositive@@@Z  (Idle)
01:0001CE00 ?_tryGetIndexEq@list@@SAXQAVrTypeLibrary@TypeLibraries@RunTime@VIP@@0XPAXPAU?$__list_struct@PAX@@AAUpositive@@@Z  (Idle)
01:0001CE1C ?_tryGetIndexEq@list@@SAXQAVrTypeLibrary@TypeLibraries@RunTime@VIP@@0XPAXPAU?$__list_struct@PAX@@PBUpositive@@AAU2@@Z 
01:0001CE98 ?_tryGetLast@list@@SAXQAVrTypeLibrary@TypeLibraries@RunTime@VIP@@PAU?$__list_struct@PAX@@PAPAX@Z  (Idle)
01:0001CED8 ?_tryLastItem@list@@SAXQAVrTypeLibrary@TypeLibraries@RunTime@VIP@@PAU?$__list_struct@PAX@@PAPAX@Z  (Idle)
--- From 'Obj\controls.5CEFAE16.obj'
01:0001CEDC ?_nth@list@@SAXQAVrTypeLibrary@TypeLibraries@RunTime@VIP@@PBUpositive@@PAU?$__list_struct@PAX@@PAPAX@Z 
--- From 'Obj\list.AD480F98.obj'
01:0001CF4C ?_tryGetNth@list@@SAXQAVrTypeLibrary@TypeLibraries@RunTime@VIP@@PBUpositive@@PAU?$__list_struct@PAX@@PAPAX@Z 
01:0001CFAC ?setNth@list@@SAXQAVrTypeLibrary@TypeLibraries@RunTime@VIP@@PBUpositive@@PAU?$__list_struct@PAX@@PAXPAPAU?$__list_struct@PAPAX@@@Z  (Idle)
01:0001D0A4 ?split@list@@SAXQAVrTypeLibrary@TypeLibraries@RunTime@VIP@@PBUpositive@@PAU?$__list_struct@PAX@@PAPAU?$__list_struct@PAPAX@@3@Z  (Idle)
01:0001D154 ?_take@list@@SAXQAVrTypeLibrary@TypeLibraries@RunTime@VIP@@PBUpositive@@PAU?$__list_struct@PAX@@PAPAU?$__list_struct@PAPAX@@@Z  (Idle)
01:0001D178 ?_drop@list@@SAXQAVrTypeLibrary@TypeLibraries@RunTime@VIP@@PBUpositive@@PAU?$__list_struct@PAX@@PAPAU?$__list_struct@PAPAX@@@Z  (Idle)
01:0001D1D4 ?_anonymous$c0$1$maximum/1$list@1@SAXPAUanonymous$c0$1$maximum/1$listc_struct@1@PAXPAXPAPAUcompareResult_struct@_builtIn@@@Z 
01:0001D1EC ?_maximum@list@@SAXQAVrTypeLibrary@TypeLibraries@RunTime@VIP@@PAU?$__list_struct@PAX@@PAPAX@Z  (Idle)
01:0001D238 ?_maximumBy@list@@SAXQAVrTypeLibrary@TypeLibraries@RunTime@VIP@@XPAU?$__list_struct@PAX@@PAPAX@Z 
01:0001D288 ?_anonymous$c0$1$minimum/1$list@1@SAXPAUanonymous$c0$1$minimum/1$listc_struct@1@PAXPAXPAPAUcompareResult_struct@_builtIn@@@Z 
01:0001D2A0 ?_minimum@list@@SAXQAVrTypeLibrary@TypeLibraries@RunTime@VIP@@PAU?$__list_struct@PAX@@PAPAX@Z  (Idle)
01:0001D2EC ?_anonymous$c0$1$minimumby/2nf$list@1@SAXPAUanonymous$c0$1$minimumby/2nf$listc_struct@1@PAXPAXPAPAUcompareResult_struct@_builtIn@@@Z 
01:0001D31C ?_minimumBy@list@@SAXQAVrTypeLibrary@TypeLibraries@RunTime@VIP@@XPAU?$__list_struct@PAX@@PAPAX@Z 
01:0001D3A0 ?_extremum@list@@SAXQAVrTypeLibrary@TypeLibraries@RunTime@VIP@@XPAXPAU?$__list_struct@PAX@@PAPAX@Z 
01:0001D418 ?_union@list@@SAXQAVrTypeLibrary@TypeLibraries@RunTime@VIP@@PAU?$__list_struct@PAX@@1PAPAU?$__list_struct@PAPAX@@@Z  (Idle)
01:0001D4C0 ?_unionBy@list@@SAXQAVrTypeLibrary@TypeLibraries@RunTime@VIP@@XPAU?$__list_struct@PAX@@2PAPAU?$__list_struct@PAPAX@@@Z  (Idle)
01:0001D4EC ?_unionEq@list@@SAXQAVrTypeLibrary@TypeLibraries@RunTime@VIP@@XPAU?$__list_struct@PAX@@2PAPAU?$__list_struct@PAPAX@@@Z 
01:0001D59C ?_intersection@list@@SAXQAVrTypeLibrary@TypeLibraries@RunTime@VIP@@PAU?$__list_struct@PAX@@1PAPAU?$__list_struct@PAPAX@@@Z  (Idle)
01:0001D63C ?_intersectionBy@list@@SAXQAVrTypeLibrary@TypeLibraries@RunTime@VIP@@XPAU?$__list_struct@PAX@@2PAPAU?$__list_struct@PAPAX@@@Z  (Idle)
01:0001D668 ?_intersectionEq@list@@SAXQAVrTypeLibrary@TypeLibraries@RunTime@VIP@@XPAU?$__list_struct@PAX@@2PAPAU?$__list_struct@PAPAX@@@Z 
01:0001D714 ?_filter@list@@SAXQAVrTypeLibrary@TypeLibraries@RunTime@VIP@@PAU?$__list_struct@PAX@@XPAPAU?$__list_struct@PAPAX@@@Z  (Idle)
01:0001D798 ?filter@list@@SAXQAVrTypeLibrary@TypeLibraries@RunTime@VIP@@PAU?$__list_struct@PAX@@XPAPAU?$__list_struct@PAPAX@@3@Z  (Idle)
01:0001D880 ?_decompose@list@@SAXQAVrTypeLibrary@TypeLibraries@RunTime@VIP@@0PAU?$__list_struct@PAX@@XPAPAU?$__list_struct@PAPAUtuple_struct@core@@PAPAXPAPAU?$__list_struct@PAPAX@@@@@Z  (Idle)
--- From 'Obj\controls.5CEFAE16.obj'
01:0001DA1C ?_map@list@@SAXQAVrTypeLibrary@TypeLibraries@RunTime@VIP@@0PAU?$__list_struct@PAX@@XPAPAU?$__list_struct@PAPAX@@@Z 
--- From 'Obj\list.AD480F98.obj'
01:0001DAA4 ?_filteredMap@list@@SAXQAVrTypeLibrary@TypeLibraries@RunTime@VIP@@0PAU?$__list_struct@PAX@@XPAPAU?$__list_struct@PAPAX@@@Z  (Idle)
--- From 'Obj\controlSupport.376C23EE.obj'
01:0001DB34 ?_fold@list@@SAXQAVrTypeLibrary@TypeLibraries@RunTime@VIP@@0PAU?$__list_struct@PAX@@XPAXPAPAX@Z 
01:0001DB9C ?forAll@list@@SAXQAVrTypeLibrary@TypeLibraries@RunTime@VIP@@PAU?$__list_struct@PAX@@X@Z 
--- From 'Obj\list.AD480F98.obj'
01:0001DBE4 ?exists@list@@SAXQAVrTypeLibrary@TypeLibraries@RunTime@VIP@@PAU?$__list_struct@PAX@@X@Z  (Idle)
01:0001DC08 ?_exists@list@@SAXQAVrTypeLibrary@TypeLibraries@RunTime@VIP@@PAU?$__list_struct@PAX@@XPAPAX@Z 
01:0001DC6C ?all@list@@SAXQAVrTypeLibrary@TypeLibraries@RunTime@VIP@@PAU?$__list_struct@PAX@@X@Z  (Idle)
01:0001DCB4 ?exceptionDifferentLength_explicit@list@@SAXPAUprogramPoint_struct@core@@@Z 
01:0001DCE8 ?exceptionEmpty_explicit@list@@SAXPAUprogramPoint_struct@core@@@Z 
--- From 'Obj\math.2C2938E4.obj'
01:0001DD20 ?raise_asinOutOfBounds_explicit@math_exception@@SAXPAUprogramPoint_struct@core@@PAN@Z  (Idle)
01:0001DD90 ?raise_acoshOutOfBounds_explicit@math_exception@@SAXPAUprogramPoint_struct@core@@PAN@Z  (Idle)
01:0001DE00 ?raise_atanhOutOfBounds_explicit@math_exception@@SAXPAUprogramPoint_struct@core@@PAN@Z  (Idle)
01:0001DE70 ?raise_acotanhOutOfBounds_explicit@math_exception@@SAXPAUprogramPoint_struct@core@@PAN@Z  (Idle)
01:0001DEE0 ?raise_cotanhInfinityResult_explicit@math_exception@@SAXPAUprogramPoint_struct@core@@PAN@Z  (Idle)
--- From 'Obj\controls.5CEFAE16.obj'
01:0001DF50 ?isNaN@math@@SAXPAN@Z 
--- From 'Obj\math.2C2938E4.obj'
01:0001DFD4 ?check_asin_nearBounds@math@@SAXPAPBUinCircle@@@Z  (Idle)
01:0001E018 ?_getBoundsForValue@math@@SAXPAPBUinCircle@@PAPAN@Z  (Idle)
01:0001E04C ?_arcsin@math@@SAXPAPBUinCircle@@PAPAN@Z  (Idle)
01:0001E1A4 ?_sinh@math@@SAXPANPAPAN@Z  (Idle)
01:0001E220 ?_tryToUnsigned@math@@SAXPB_WPAI@Z  (Idle)
01:0001E238 ?_tryToInteger@math@@SAXPB_WPAH@Z  (Idle)
01:0001E250 ?_tryToReal@math@@SAXPB_WPAPAN@Z  (Idle)
01:0001E268 ?_toUnsigned@math@@SAXPB_WPAI@Z  (Idle)
01:0001E280 ?_toInteger@math@@SAXPB_WPAH@Z  (Idle)
01:0001E298 ?_toReal@math@@SAXPB_WPAPAN@Z  (Idle)
01:0001E2B0 ?_prepareResultForBigValue@math@@SAXPANPAAAUuReal@@@Z  (Idle)
01:0001E41C ?_arcsinh@math@@SAXPANPAPAN@Z  (Idle)
01:0001E470 ?_arccos@math@@SAXPAPBUinCircle@@PAPAN@Z  (Idle)
01:0001E4BC ?_cosh@math@@SAXPANPAAAUuReal@@@Z  (Idle)
01:0001E550 ?_prepareResultForValue@math@@SAXPAPBUuReal@@PAAAU2@@Z  (Idle)
01:0001E67C ?_arccosh@math@@SAXPAPBUuReal@@PAPAN@Z  (Idle)
01:0001E6F4 ?_get_tanhBoundsForValue@math@@SAXPANPAAAUinCircle@@@Z  (Idle)
01:0001E728 ?_tanh@math@@SAXPANPAAAUinCircle@@@Z  (Idle)
01:0001E7DC ?_arctanh@math@@SAXPAPBUinCircle@@PAPAN@Z  (Idle)
01:0001E890 ?_cotanh@math@@SAXPANPAPAN@Z  (Idle)
01:0001E94C ?_arccotanh@math@@SAXPANPAPAN@Z  (Idle)
01:0001EA04 ?_sqr@math@@SAXPANPAAAUuReal@@@Z 
--- From 'Obj\messageControl.6297CBEC.obj'
01:0001EA40 ?_round@math@@SAXPANPAH@Z 
--- From 'Obj\math.2C2938E4.obj'
01:0001EA7C ?_roundToUnsigned@math@@SAXPANPAI@Z  (Idle)
01:0001EAB8 ?_roundToInteger64@math@@SAXPANPAPA_J@Z  (Idle)
01:0001EB14 ?_roundToUnsigned64@math@@SAXPANPAPA_K@Z  (Idle)
--- From 'Obj\gui.0D1EF882.obj'
01:0001EB70 ?_trunc@math@@SAXPANPAH@Z 
--- From 'Obj\math.2C2938E4.obj'
01:0001EBAC ?_fraction@math@@SAXPANPAPAN@Z  (Idle)
01:0001EBFC ?_ceil@math@@SAXPANPAH@Z  (Idle)
01:0001EC34 ?_ceilToReal@math@@SAXPANPAPAN@Z 
01:0001ECE4 ?_floor@math@@SAXPANPAH@Z  (Idle)
01:0001ED30 ?_floorToReal@math@@SAXPANPAPAN@Z  (Idle)
--- From 'Obj\messageControl.6297CBEC.obj'
01:0001ED98 ?_max@math@@SAXHHPAH@Z 
--- From 'Obj\math.2C2938E4.obj'
01:0001EDBC ?_max@math@@SAXHHHPAH@Z  (Idle)
--- From 'Obj\gui.0D1EF882.obj'
01:0001EDE4 ?_min@math@@SAXHHPAH@Z 
--- From 'Obj\math.2C2938E4.obj'
01:0001EE08 ?_min@math@@SAXHHHPAH@Z  (Idle)
01:0001EE30 ?_restrict@math@@SAXHHHPAH@Z  (Idle)
01:0001EE64 ?divides_dt@math@@SAXHH@Z  (Idle)
01:0001EEA0 ?_power64i@math@@SAXPA_JIPAPA_J@Z  (Idle)
01:0001EEA8 ?_power64u@math@@SAXPA_KIPAPA_K@Z  (Idle)
01:0001EEB0 ?_power64iu@math@@SAXPA_JIPAPA_J@Z 
01:0001EF04 ?_power64acc@math@@SAXPA_JI0PAPA_J@Z 
01:0001F000 ?_max@math@@SAXIIPAI@Z  (Idle)
01:0001F024 ?_max@math@@SAXPANPANPAPAN@Z  (Idle)
--- From 'Obj\gdiplus.80149785.obj'
01:0001F05C ?_max@math@@SAXMMPAM@Z 
--- From 'Obj\math.2C2938E4.obj'
01:0001F0C0 ?_max@math@@SAXPA_J0PAPA_J@Z  (Idle)
01:0001F110 ?_max@math@@SAXPBUintegerNative@@0AAU2@@Z  (Idle)
01:0001F134 ?_max@math@@SAXPA_K0PAPA_K@Z  (Idle)
01:0001F184 ?_max@math@@SAXPBUunsignedNative@@0AAU2@@Z  (Idle)
01:0001F1A8 ?_max@math@@SAXIIIPAI@Z  (Idle)
01:0001F1D8 ?_max@math@@SAXPANPANPANPAPAN@Z  (Idle)
01:0001F208 ?_max@math@@SAXMMMPAM@Z  (Idle)
01:0001F244 ?_min@math@@SAXIIPAI@Z  (Idle)
01:0001F268 ?_min@math@@SAXPANPANPAPAN@Z  (Idle)
--- From 'Obj\gdiplus.80149785.obj'
01:0001F2A0 ?_min@math@@SAXMMPAM@Z 
--- From 'Obj\math.2C2938E4.obj'
01:0001F304 ?_min@math@@SAXIIIPAI@Z  (Idle)
01:0001F334 ?_min@math@@SAXPANPANPANPAPAN@Z  (Idle)
01:0001F364 ?_min@math@@SAXMMMPAM@Z  (Idle)
01:0001F3A0 ?_restrict@math@@SAXIIIPAI@Z  (Idle)
01:0001F3D4 ?_restrict@math@@SAXPANPANPANPAPAN@Z  (Idle)
01:0001F408 ?divides_dt@math@@SAXII@Z  (Idle)
01:0001F424 ?_power64iu@math@@SAXPA_KIPAPA_K@Z 
01:0001F478 ?_power64acc@math@@SAXPA_KI0PAPA_K@Z 
--- From 'Obj\binary.00AD4D8C.obj'
01:0001F580 ?new@outputStream_binary@@SAXQAV1@@@Z  (Idle)
01:0001F620 ?size@outputStream_binary@@SGPBUbyteCount@@QAV1@@@Z 
01:0001F6C0 ?setMode@outputStream_binary@@SGXQAVstream@@@PAUmode_struct@2@@Z 
01:0001F6FC ?flush@outputStream_binary@@SGXQAVoutputStream@@@@Z 
01:0001F70C ?close@outputStream_binary@@SGXQAVstream@@@@Z 
01:0001F754 ?bufferFullCallBack@outputStream_binary@@SAXQAV1@@PAPAXAAUbyteCount@@@Z  (Idle)
01:0001F7D0 ?get_buffer_from_db@outputStream_binary@@SAXQAV1@@IPAPAXAAUbyteCount@@@Z 
01:0001F838 ?_getBinary@outputStream_binary@@SAXQAV1@@QAPAE@Z 
01:0001F8F0 ?_getMemory@outputStream_binary@@SAXQAV1@@PAPAX@Z 
01:0001F9A8 ?writeBuffersToBinary@outputStream_binary@@SAXQAV1@@PAX@Z 
01:0001FA24 ?writeSingleBufferToBinary@outputStream_binary@@SAXPAXPBUbyteCount@@PAX1@Z 
01:0001FA58 ?getPosition@outputStream_binary@@SGPBUfileSize@fileSystem_api@@QAVstream@@@@Z 
01:0001FB24 ?setPosition@outputStream_binary@@SGXQAVstream@@@PBUfileSize@fileSystem_api@@@Z 
01:0001FB90 ?handleSetOffset@outputStream_binary@@SAXQAV1@@PBUbyteCount@@@Z 
01:0001FC18 ?updateCurrentBuffer@outputStream_binary@@SAXQAV1@@@Z 
01:0001FD84 ?findBufferForOffset@outputStream_binary@@SAXQAV1@@PBUbyteCount@@PAIPAPAXAAU3@4@Z 
01:0001FE10 ?handleBiggerOffset@outputStream_binary@@SAXQAV1@@PBUbyteCount@@@Z 
01:0001FF94 ?_newBuffer@outputStream_binary@@SAXQAV1@@PBUbyteCount@@PAPAX@Z 
01:00020028 ?_getSizeBefore@outputStream_binary@@SAXQAV1@@IAAUbyteCount@@@Z 
01:000200AC ?bufferNotFound_exception@outputStream_binary@@SAXI@Z 
01:000200EC ?checkUsePrevBuff@outputStream_binary@@SAXQAV1@@@Z  (Idle)
01:00020148 ?getBuffer@outputStream_binary@@SGXQAVbufferSupport@@@PAPAXAAUbyteCount@@@Z 
01:000201D0 ?getBufferLocked@outputStream_binary@@SGXQAVbufferSupport@@@PAPAXAAUbyteCount@@@Z 
--- From 'Obj\gui_api.7E4A6614.obj'
01:000201EC ?_new@outputStream_binary@@SAXPAPAV1@@@Z 
--- From 'Obj\binary.00AD4D8C.obj'
01:00020214 ?_object_facts_initializer@outputStream_binary@@SGXQAV1@@@Z 
01:00020234 ?new@inputStream_binary@@SAXQAV1@@QAE@Z  (Idle)
01:00020288 ?setMode@inputStream_binary@@SGXQAVstream@@@PAUmode_struct@2@@Z 
01:000202C4 ?close@inputStream_binary@@SGXQAVstream@@@@Z 
01:000202DC ?getCRLFconversion@inputStream_binary@@SGPAUboolean_struct@_builtIn@@QAVstream@@@@Z 
01:000202F0 ?setCRLFconversion@inputStream_binary@@SGXQAVstream@@@PAUboolean_struct@_builtIn@@@Z 
01:00020318 ?getPosition@inputStream_binary@@SGPBUfileSize@fileSystem_api@@QAVstream@@@@Z 
01:0002033C ?setPosition@inputStream_binary@@SGXQAVstream@@@PBUfileSize@fileSystem_api@@@Z 
01:000203A8 ?getBuffer@inputStream_binary@@SGXQAVbufferSupport@@@PAPAXAAUbyteCount@@@Z 
01:000203C4 ?getBufferLocked@inputStream_binary@@SGXQAVbufferSupport@@@PAPAXAAUbyteCount@@@Z 
01:000203E0 ?_new@inputStream_binary@@SAXQAEPAPAVinputStream@@@@Z  (Idle)
01:00020408 ?_object_facts_initializer@inputStream_binary@@SGXQAV1@@@Z 
01:00020420 ?raise_invalidCompressionFormat_explicit@binary_exception@@SAXPAUprogramPoint_struct@core@@QAE@Z  (Idle)
01:00020490 ?raise_internalDecodeError_explicit@binary_exception@@SAXPAUprogramPoint_struct@core@@QAE@Z  (Idle)
01:00020500 ?raise_indexOutOfRange_explicit@binary_exception@@SAXPAUprogramPoint_struct@core@@PBUbyteCount@@@Z  (Idle)
01:00020574 ?raise_wrongBinaryFormat_explicit@binary_exception@@SAXPAUprogramPoint_struct@core@@QAE@Z  (Idle)
01:000205E4 ?raise_wrongBinaryFormat_explicit@binary_exception@@SAXPAUprogramPoint_struct@core@@PBUbinaryNonAtomic@@@Z  (Idle)
01:00020654 ?_create0binaryAtomic@binary@@SAXQAPAE@Z  (Idle)
01:00020674 ?_create0binaryNonAtomic@binary@@SAXAAU2@@Z  (Idle)
--- From 'Obj\gdiplus.80149785.obj'
01:00020694 ?_createNonAtomic@binary@@SAXPBUbyteCount@@AAUbinaryNonAtomic@@@Z 
--- From 'Obj\binary.00AD4D8C.obj'
01:000206D4 ?_createNonAtomic@binary@@SAXPBUpositive@@PBUbyteCount@@AAUbinaryNonAtomic@@@Z  (Idle)
--- From 'Obj\controls.5CEFAE16.obj'
01:000206F4 ?_createAtomic@binary@@SAXPBUbyteCount@@QAPAE@Z 
--- From 'Obj\binary.00AD4D8C.obj'
01:00020738 ?_createAtomic@binary@@SAXPBUpositive@@PBUbyteCount@@QAPAE@Z  (Idle)
01:00020758 ?_makeBinary@binary@@SAXPBUbyteCount@@QAPAE@Z 
01:000207B0 ?_makeBinaryNonAtomic@binary@@SAXPBUbyteCount@@AAUbinaryNonAtomic@@@Z 
01:00020808 ?_allocateNonAtomicBinary@binary@@SAXPBUbyteCount@@PAPAX@Z 
01:00020854 ?_createCopyNonAtomic@binary@@SAXPBUbinaryNonAtomic@@AAU2@@Z  (Idle)
01:000208D0 ?_createCopyAtomic@binary@@SAXQAEQAPAE@Z  (Idle)
01:00020950 ?_createNonAtomicFromPointer@binary@@SAXPAXPBUbyteCount@@AAUbinaryNonAtomic@@@Z  (Idle)
--- From 'Obj\registry_api.2BAF66BB.obj'
01:00020994 ?_createAtomicFromPointer@binary@@SAXPAXPBUbyteCount@@QAPAE@Z 
--- From 'Obj\binary.00AD4D8C.obj'
01:000209D8 ?_createAtomicFromIntegerList@binary@@SAXPAU?$__list_struct@Uinteger@@@@QAPAE@Z  (Idle)
--- From 'Obj\exception.1550E8BC.obj'
01:00020A30 ?_getSize@binary@@SAXQAEAAUbyteCount@@@Z 
--- From 'Obj\binary.00AD4D8C.obj'
01:00020A4C ?_getBinaryHeaderPtr@binary@@SAXQAEPAPAX@Z  (Idle)
01:00020A84 ?_reSizeNonAtomic@binary@@SAXPBUbinaryNonAtomic@@PBUbyteCount@@AAU2@@Z  (Idle)
01:00020B30 ?_reSizeAtomic@binary@@SAXQAEPBUbyteCount@@QAPAE@Z  (Idle)
01:00020BDC ?_concatNonAtomic@binary@@SAXPBUbinaryNonAtomic@@0AAU2@@Z  (Idle)
01:00020C54 ?_concatAtomic@binary@@SAXQAEQAEQAPAE@Z  (Idle)
01:00020CCC ?_insertAtomic@binary@@SAXQAEPBUbyteCount@@QAEQAPAE@Z  (Idle)
01:00020DA4 ?_insertNonAtomic@binary@@SAXPBUbinaryNonAtomic@@PBUbyteCount@@QAEAAU2@@Z  (Idle)
01:00020E7C ?_deleteAtomic@binary@@SAXQAEPBUbyteCount@@1QAPAE@Z  (Idle)
01:00020F1C ?_deleteNonAtomic@binary@@SAXPBUbinaryNonAtomic@@PBUbyteCount@@1AAU2@@Z  (Idle)
--- From 'Obj\vpi.E4453945.obj'
01:00020FBC ?_getIndexed_unsigned8@binary@@SAXQAEPBUpositive@@AAU3@@Z 
--- From 'Obj\exe_api.DA526B1E.obj'
01:00021008 ?_getIndexed_unsigned16@binary@@SAXQAEPBUpositive@@AAU3@@Z 
--- From 'Obj\binary.00AD4D8C.obj'
01:00021058 ?_getIndexed_unsigned64@binary@@SAXQAEPBUpositive@@PAPA_K@Z  (Idle)
01:000210A8 ?_getIndexed_integer8@binary@@SAXQAEPBUpositive@@AAU3@@Z  (Idle)
01:000210F4 ?_getIndexed_integer16@binary@@SAXQAEPBUpositive@@AAU3@@Z  (Idle)
01:00021144 ?_getIndexed_integer64@binary@@SAXQAEPBUpositive@@PAPA_J@Z  (Idle)
--- From 'Obj\exception.1550E8BC.obj'
01:00021194 ?_getIndexed_unsignedNative@binary@@SAXQAEPBUpositive@@AAU3@@Z 
--- From 'Obj\gui.0D1EF882.obj'
01:000211E4 ?_getIndexed_unsigned@binary@@SAXQAEPBUpositive@@PAI@Z 
--- From 'Obj\binary.00AD4D8C.obj'
01:00021234 ?_getIndexed_integerNative@binary@@SAXQAEPBUpositive@@AAU3@@Z  (Idle)
01:00021284 ?_getIndexed_integer@binary@@SAXQAEPBUpositive@@PAH@Z  (Idle)
01:000212D4 ?_getIndexed_real32@binary@@SAXQAEPBUpositive@@PAM@Z  (Idle)
01:00021324 ?_getIndexed_real@binary@@SAXQAEPBUpositive@@PAPAN@Z  (Idle)
01:00021374 ?_getIndexed_pointer@binary@@SAXPBUbinaryNonAtomic@@PBUpositive@@PAPAX@Z  (Idle)
01:000213C4 ?_getIndexed_object@binary@@SAXPBUbinaryNonAtomic@@PBUpositive@@PAPAV4@@@Z  (Idle)
01:00021420 ?_getIndexed_string@binary@@SAXPBUbinaryNonAtomic@@PBUpositive@@PAPB_W@Z  (Idle)
01:0002147C ?setIndexed_unsigned8@binary@@SAXQAEPBUpositive@@PBU3@@Z  (Idle)
01:000214C8 ?setIndexed_unsigned16@binary@@SAXQAEPBUpositive@@PBU3@@Z  (Idle)
01:00021518 ?setIndexed_unsigned64@binary@@SAXQAEPBUpositive@@PA_K@Z  (Idle)
01:00021568 ?setIndexed_integer8@binary@@SAXQAEPBUpositive@@PBU3@@Z  (Idle)
01:000215B4 ?setIndexed_integer16@binary@@SAXQAEPBUpositive@@PBU3@@Z  (Idle)
01:00021604 ?setIndexed_integer64@binary@@SAXQAEPBUpositive@@PA_J@Z  (Idle)
01:00021654 ?setIndexed_integerNative@binary@@SAXQAEPBUpositive@@PBU3@@Z  (Idle)
--- From 'Obj\vpi.E4453945.obj'
01:000216A4 ?setIndexed_integer@binary@@SAXQAEPBUpositive@@H@Z 
--- From 'Obj\binary.00AD4D8C.obj'
01:000216F4 ?setIndexed_unsignedNative@binary@@SAXQAEPBUpositive@@PBU3@@Z  (Idle)
01:00021744 ?setIndexed_unsigned@binary@@SAXQAEPBUpositive@@I@Z  (Idle)
01:00021794 ?setIndexed_real32@binary@@SAXQAEPBUpositive@@M@Z  (Idle)
01:000217E4 ?setIndexed_real@binary@@SAXQAEPBUpositive@@PAN@Z  (Idle)
01:00021834 ?setIndexed_pointer@binary@@SAXPBUbinaryNonAtomic@@PBUpositive@@PAX@Z  (Idle)
01:00021884 ?setIndexed_object@binary@@SAXPBUbinaryNonAtomic@@PBUpositive@@QAV4@@@Z  (Idle)
01:000218D4 ?setIndexed_string@binary@@SAXPBUbinaryNonAtomic@@PBUpositive@@PB_W@Z  (Idle)
01:00021924 ?_getBinaryNonAtomic@binary@@SAXPBUbinaryNonAtomic@@PBUbyteCount@@1AAU2@@Z  (Idle)
01:000219AC ?_getBinaryAtomic@binary@@SAXQAEPBUbyteCount@@1QAPAE@Z  (Idle)
01:00021A34 ?setBinaryNonAtomic@binary@@SAXPBUbinaryNonAtomic@@PBUbyteCount@@QAE@Z  (Idle)
01:00021AB8 ?setBinaryAtomic@binary@@SAXQAEPBUbyteCount@@QAE@Z  (Idle)
--- From 'Obj\vpi.E4453945.obj'
01:00021B3C ?setValue@binary@@SAXQAEPBUbyteCount@@PAUvalue_struct@core@@@Z 
--- From 'Obj\binary.00AD4D8C.obj'
01:00022044 $getValue$binary_class$predicate$(i,i,unsigned64(o))$b$_c89  (Idle)
01:00022098 ?_getString@binary@@SAXPAXPBUcharCount@@PAPB_W@Z  (Idle)
01:0002218C ?checkOffsetForSetGetValue@binary@@SAXQAEPBUbyteCount@@1@Z 
01:000221C4 ?fillFromIntegerList@binary@@SAXQAEPBUpositive@@PAU?$__list_struct@Uinteger@@@@@Z 
01:00022210 ?copyTailIfNeeded@binary@@SAXQAEPBUbyteCount@@1QAE1@Z 
01:00022274 ?splitBinaryNonAtomic@binary@@SAXPBUbinaryNonAtomic@@PBUbyteCount@@AAU2@2@Z  (Idle)
01:000222B4 ?splitBinaryAtomic@binary@@SAXQAEPBUbyteCount@@QAPAE2@Z  (Idle)
01:000222F4 ?_binaryToStringList@binary@@SAXQAEPAPAU?$__list_struct@Ustring@@@@@Z  (Idle)
01:00022330 ?_getStringList@binary@@SAXPAXPBUbyteCount@@PAPAU?$__list_struct@Ustring@@@@@Z 
01:00022490 ?_search@binary@@SAXQAEQAEAAUbyteCount@@@Z  (Idle)
01:000224D8 ?_binary8ToStringList@binary@@SAXQAEPAPAU?$__list_struct@Ustring@@@@@Z  (Idle)
01:00022500 ?_binary8ToStringList@binary@@SAXQAEPAUcodePage_struct@core@@PAPAU?$__list_struct@Ustring@@@@@Z 
01:00022548 ?_getStringListForBinary8@binary@@SAXPAXPBUbyteCount@@PAUcodePage_struct@core@@PAPAU?$__list_struct@Ustring@@@@@Z 
01:00022698 binaryIsAtomicExpectedNonAtomic 
01:000226C4 doNothing 
01:000226CC ?_getIndexed_unsigned32@binary@@SAXQAEPBUpositive@@PAI@Z  (Idle)
01:000226D4 ?setIndexed_unsigned32@binary@@SAXQAEPBUpositive@@I@Z  (Idle)
01:000226DC ?_getIndexed_integer32@binary@@SAXQAEPBUpositive@@PAH@Z  (Idle)
01:000226E4 ?setIndexed_integer32@binary@@SAXQAEPBUpositive@@H@Z  (Idle)
01:000226EC ?_calculateCRC@binary@@SAXQAEPAI@Z  (Idle)
01:00022708 ?_getPointer2nullaryBinary@binary@@SAXPAPAX@Z 
--- From 'Obj\registry_api.2BAF66BB.obj'
01:0002271C ?_getSize@binary@@SAXPBUbinaryNonAtomic@@AAUbyteCount@@@Z 
--- From 'Obj\binary.00AD4D8C.obj'
01:00022738 ?_getBinaryHeaderPtr@binary@@SAXPBUbinaryNonAtomic@@PAPAX@Z  (Idle)
01:00022770 ?_insertNonAtomic@binary@@SAXPBUbinaryNonAtomic@@PBUbyteCount@@0AAU2@@Z  (Idle)
01:00022844 ?_getIndexed_unsigned8@binary@@SAXPBUbinaryNonAtomic@@PBUpositive@@AAU4@@Z  (Idle)
01:00022890 ?_getIndexed_unsigned16@binary@@SAXPBUbinaryNonAtomic@@PBUpositive@@AAU4@@Z  (Idle)
01:000228E0 ?_getIndexed_unsigned64@binary@@SAXPBUbinaryNonAtomic@@PBUpositive@@PAPA_K@Z  (Idle)
01:00022930 ?_getIndexed_integer8@binary@@SAXPBUbinaryNonAtomic@@PBUpositive@@AAU4@@Z  (Idle)
01:0002297C ?_getIndexed_integer16@binary@@SAXPBUbinaryNonAtomic@@PBUpositive@@AAU4@@Z  (Idle)
01:000229CC ?_getIndexed_integer64@binary@@SAXPBUbinaryNonAtomic@@PBUpositive@@PAPA_J@Z  (Idle)
01:00022A1C ?_getIndexed_unsignedNative@binary@@SAXPBUbinaryNonAtomic@@PBUpositive@@AAU4@@Z  (Idle)
01:00022A6C ?_getIndexed_unsigned@binary@@SAXPBUbinaryNonAtomic@@PBUpositive@@PAI@Z  (Idle)
01:00022ABC ?_getIndexed_integerNative@binary@@SAXPBUbinaryNonAtomic@@PBUpositive@@AAU4@@Z  (Idle)
01:00022B0C ?_getIndexed_integer@binary@@SAXPBUbinaryNonAtomic@@PBUpositive@@PAH@Z  (Idle)
01:00022B5C ?_getIndexed_real32@binary@@SAXPBUbinaryNonAtomic@@PBUpositive@@PAM@Z  (Idle)
01:00022BAC ?_getIndexed_real@binary@@SAXPBUbinaryNonAtomic@@PBUpositive@@PAPAN@Z  (Idle)
01:00022BFC ?setIndexed_unsigned8@binary@@SAXPBUbinaryNonAtomic@@PBUpositive@@PBU4@@Z  (Idle)
01:00022C48 ?setIndexed_unsigned16@binary@@SAXPBUbinaryNonAtomic@@PBUpositive@@PBU4@@Z  (Idle)
01:00022C98 ?setIndexed_unsigned64@binary@@SAXPBUbinaryNonAtomic@@PBUpositive@@PA_K@Z  (Idle)
01:00022CE8 ?setIndexed_integer8@binary@@SAXPBUbinaryNonAtomic@@PBUpositive@@PBU4@@Z  (Idle)
01:00022D34 ?setIndexed_integer16@binary@@SAXPBUbinaryNonAtomic@@PBUpositive@@PBU4@@Z  (Idle)
01:00022D84 ?setIndexed_integer64@binary@@SAXPBUbinaryNonAtomic@@PBUpositive@@PA_J@Z  (Idle)
01:00022DD4 ?setIndexed_integerNative@binary@@SAXPBUbinaryNonAtomic@@PBUpositive@@PBU4@@Z  (Idle)
01:00022E24 ?setIndexed_integer@binary@@SAXPBUbinaryNonAtomic@@PBUpositive@@H@Z  (Idle)
01:00022E74 ?setIndexed_unsignedNative@binary@@SAXPBUbinaryNonAtomic@@PBUpositive@@PBU4@@Z  (Idle)
01:00022EC4 ?setIndexed_unsigned@binary@@SAXPBUbinaryNonAtomic@@PBUpositive@@I@Z  (Idle)
01:00022F14 ?setIndexed_real32@binary@@SAXPBUbinaryNonAtomic@@PBUpositive@@M@Z  (Idle)
01:00022F64 ?setIndexed_real@binary@@SAXPBUbinaryNonAtomic@@PBUpositive@@PAN@Z  (Idle)
01:00022FB4 ?setBinaryNonAtomic@binary@@SAXPBUbinaryNonAtomic@@PBUbyteCount@@0@Z  (Idle)
01:00023038 ?setBinaryAtomic@binary@@SAXPBUbinaryNonAtomic@@PBUbyteCount@@QAE@Z  (Idle)
01:000230BC ?setBinaryAtomic@binary@@SAXPBUbinaryNonAtomic@@PBUbyteCount@@0@Z  (Idle)
01:00023140 ?setValue@binary@@SAXPBUbinaryNonAtomic@@PBUbyteCount@@PAUvalue_struct@core@@@Z  (Idle)
01:00023648 $getValue$binary_class$predicate$(i,i,unsigned(o))$b$_c90  (Idle)
01:0002369C $getValue$binary_class$predicate$(i,i,integer64(o))$b$_c91  (Idle)
--- From 'Obj\exe_api.DA526B1E.obj'
01:000236F0 $getValue$binary_class$predicate$(i,i,integer(o))$b$_c92 
--- From 'Obj\binary.00AD4D8C.obj'
01:00023744 $getValue$binary_class$predicate$(i,i,real(o))$b$_c93  (Idle)
01:00023798 $getValue$binary_class$predicate$(i,i,char(o))$b$_c94  (Idle)
01:000237F0 $getValue$binary_class$predicate$(i,i,string(o))$b$_c95  (Idle)
01:00023860 $getValue$binary_class$predicate$(i,i,localtimevalue(o))$b$_c96  (Idle)
01:000238B4 $getValue$binary_class$predicate$(i,i,gmttimevalue(o))$b$_c97  (Idle)
01:00023908 $getValue$binary_class$predicate$(i,i,unsigned64(o))$b$_c98  (Idle)
01:0002395C $getValue$binary_class$predicate$(i,i,unsigned(o))$b$_c99  (Idle)
01:000239B0 $getValue$binary_class$predicate$(i,i,integer64(o))$b$_c100  (Idle)
01:00023A04 $getValue$binary_class$predicate$(i,i,integer(o))$b$_c101  (Idle)
01:00023A58 $getValue$binary_class$predicate$(i,i,real(o))$b$_c102  (Idle)
01:00023AAC $getValue$binary_class$predicate$(i,i,pointer(o))$b$_c103  (Idle)
01:00023B00 $getValue$binary_class$predicate$(i,i,object(o))$b$_c104  (Idle)
01:00023B54 $getValue$binary_class$predicate$(i,i,char(o))$b$_c105  (Idle)
01:00023BAC $getValue$binary_class$predicate$(i,i,string(o))$b$_c106  (Idle)
01:00023C1C $getValue$binary_class$predicate$(i,i,localtimevalue(o))$b$_c107  (Idle)
01:00023C70 $getValue$binary_class$predicate$(i,i,gmttimevalue(o))$b$_c108  (Idle)
01:00023CC4 ?checkOffsetForSetGetValue@binary@@SAXPBUbinaryNonAtomic@@PBUbyteCount@@1@Z 
01:00023CFC ?copyTailIfNeeded@binary@@SAXPBUbinaryNonAtomic@@PBUbyteCount@@101@Z 
01:00023D60 ?_getIndexed_unsigned32@binary@@SAXPBUbinaryNonAtomic@@PBUpositive@@PAI@Z  (Idle)
01:00023D68 ?setIndexed_unsigned32@binary@@SAXPBUbinaryNonAtomic@@PBUpositive@@I@Z  (Idle)
01:00023D70 ?_getIndexed_integer32@binary@@SAXPBUbinaryNonAtomic@@PBUpositive@@PAH@Z  (Idle)
01:00023D78 ?setIndexed_integer32@binary@@SAXPBUbinaryNonAtomic@@PBUpositive@@H@Z  (Idle)
01:00023F1C outputStream_binary?_initObject@@@QAGXQAV1@H@Z 
01:00023F50 ?@create_object@outputStream_binary@@SGQAV1@@XZ 
01:00023F6C outputStream_binary?_InternalFinalizer@@@QAGXQAV1@@Z 
01:00024148 inputStream_binary?_initObject@@@QAGXQAV1@H@Z 
01:0002417C ?@create_object@inputStream_binary@@SGQAV1@@XZ 
01:00024198 inputStream_binary?_InternalFinalizer@@@QAGXQAV1@@Z 
--- From 'Obj\tooltipSupport.83DE8A73.obj'
01:000241B0 ?tooltipHwnd@tooltipSupport@@SGPBUhwnd@@QAV1@@@Z 
01:0002422C ?_createTipWindow@tooltipSupport@@SAXQAV1@@AAUhwnd@@@Z 
01:00024380 ?subclassWndProcStatic@tooltipSupport@@SGPBUlResult@@PBUhwnd@@IPBUwParam@@PBUlParam@@@Z 
01:00024428 ?subclassWndProc@tooltipSupport@@SGPBUlResult@@QAV1@@PBUhwnd@@IPBUwParam@@PBUlParam@@@Z 
01:00024998 ?style@tooltipSupport@@SGXQAV1@@PAUstyle_struct@toolTip@@@Z 
01:00024AFC ?_getIconCode@tooltipSupport@@SAXPAUicon_struct@toolTip@@AAUwParam@@@Z 
01:00024BA4 ?multiLine@tooltipSupport@@SGXQAV1@@PAUboolean_struct@_builtIn@@@Z 
01:00024BF4 ?maxWidth@tooltipSupport@@SGXQAV1@@PAUoptional_struct@core@@H@Z 
01:00024C4C ?initialTime@tooltipSupport@@SGXQAV1@@H@Z 
01:00024CA0 ?initialTime@tooltipSupport@@SGHQAV1@@@Z 
01:00024CF8 ?reshowTime@tooltipSupport@@SGXQAV1@@H@Z 
01:00024D4C ?reshowTime@tooltipSupport@@SGHQAV1@@@Z 
01:00024DA4 ?popTime@tooltipSupport@@SGXQAV1@@H@Z 
01:00024DF8 ?popTime@tooltipSupport@@SGHQAV1@@@Z 
01:00024E50 ?_renderControlTip@tooltipSupport@@SAXQAV1@@QAVcontrol@@@PAPB_W@Z 
01:00024EFC ?_renderTipText@tooltipSupport@@SAXPAUtipText_struct@toolTip@@PAPB_W@Z 
01:00024F54 ?addControl@tooltipSupport@@SAXQAV1@@QAVcontrol@@@@Z 
01:00024F68 ?addControl@tooltipSupport@@SAXQAV1@@QAVcontrol@@@PAUtipText_struct@toolTip@@@Z 
01:00024F98 ?anonymous$o0$1$addcontrol_inner/2np$tooltipSupport@1@SAXPAUanonymous$o0$1$addcontrol_inner/2np$tooltipSupportc_struct@1@QAVwindow@@@@Z 
01:0002504C ?addControl_inner@tooltipSupport@@SAXQAV1@@QAVcontrol@@@PAUoptional_struct@core@@PAUtipText_struct@toolTip@@@Z 
01:000252DC ?removeControl@tooltipSupport@@SAXQAV1@@QAVcontrol@@@@Z 
01:00025478 ?anonymous$o0$1$updatecontroltip/2np$tooltipSupport@1@SAXPAUanonymous$o0$1$updatecontroltip/2np$tooltipSupportc_struct@1@@Z 
01:00025510 ?updateControlTip@tooltipSupport@@SAXQAV1@@QAVcontrol@@@PAUboolean_struct@_builtIn@@@Z 
01:000257B4 ?beginTrackingTooltip@tooltipSupport@@SAXQAV1@@PAUpnt_struct@vpiDomains@@PAUtipText_struct@toolTip@@@Z 
01:0002580C ?updateTrackingPosition@tooltipSupport@@SAXQAV1@@PAUpnt_struct@vpiDomains@@@Z 
01:0002597C ?endTrackingTooltip@tooltipSupport@@SAXQAV1@@@Z 
01:00025A4C ?isTracking@tooltipSupport@@SAXQAV1@@@Z 
--- From 'Obj\toolTip.7F7B3527.obj'
01:00025A64 ?endAllTrackingTooltips@tooltipSupport@@SAXXZ 
--- From 'Obj\tooltipSupport.83DE8A73.obj'
01:00025AD4 ?dispose@tooltipSupport@@SAXQAV1@@@Z 
--- From 'Obj\toolTip.7F7B3527.obj'
01:00025B18 ?new@tooltipSupport@@SAXQAV1@@@Z 
--- From 'Obj\tooltipSupport.83DE8A73.obj'
01:00025B20 ?_new@tooltipSupport@@SAXPAPAV1@@@Z  (Idle)
01:00025B44 ?_object_facts_initializer@tooltipSupport@@SGXQAV1@@@Z 
--- From 'Obj\toolTip.7F7B3527.obj'
01:00025BF4 tooltipSupport?_initObject@@@QAGXQAV1@H@Z 
--- From 'Obj\tooltipSupport.83DE8A73.obj'
01:00025C20 ?@create_object@tooltipSupport@@SGQAV1@@XZ 
--- From 'Obj\toolTip.7F7B3527.obj'
01:00025C3C tooltipSupport?_InternalFinalizer@@@QAGXQAV1@@Z 
--- From 'Obj\monitorQueue.008796C3.obj'
01:00025C50 ?enqueue@monitorQueue@@SAXQAV1@@PAXPAX@Z 
01:00025CDC ?enqueueAtFront@monitorQueue@@SAXQAV1@@PAXPAX@Z 
01:00025D68 ?_dequeue@monitorQueue@@SAXQAV1@@PAXPAPAX@Z 
01:00025EB4 ?_tryDequeue@monitorQueue@@SAXQAV1@@PAXPAPAX@Z 
01:00026040 ?new@monitorQueue@@SAXQAV1@@PAXQAVrTypeLibrary@TypeLibraries@RunTime@VIP@@@Z  (Idle)
--- From 'Obj\gui.0D1EF882.obj'
01:0002604C ?_new@monitorQueue@@SAXQAVrTypeLibrary@TypeLibraries@RunTime@VIP@@PAPAV1@@PAPAX@Z 
--- From 'Obj\monitorQueue.008796C3.obj'
01:00026074 ?_object_typelib_initializer@monitorQueue@@SGXQAV1@@PAXQAVrTypeLibrary@TypeLibraries@RunTime@VIP@@@Z 
01:0002608C ?_dequeue/0nf_guard@monitorQueue@@SAXQAV1@@PAX@Z  (Idle)
01:000260AC ?_object_facts_initializer@monitorQueue@@SGXQAV1@@PAX@Z 
01:000260C8 ?_monitor_initializer@monitorQueue@@SAXQAV1@@PAX@Z 
01:000260EC ?_set_guard_events@monitorQueue@@SAXQAV1@@PAX@Z 
01:0002613C ?_leave_guarded_monitor@monitorQueue@@SAXQAV1@@PAX@Z 
01:0002615C ?_close_monitor@monitorQueue@@SGXQAV1@@PAX@Z 
01:00026188 ?finalize@monitorQueue@@SGXQAV1@@PAX@Z 
01:000261A8 monitorQueue{@Elem}?_initObject@@@QAGXQAV1@H@Z 
01:000261D8 ?@create_object@monitorQueue@@SGQAV1@@PAXQAVrTypeLibrary@TypeLibraries@RunTime@VIP@@@Z 
01:000261FC monitorQueue{@Elem}?_InternalFinalizer@@@QAGXQAV1@@Z 
--- From 'Obj\multiThread.B0EA2379.obj'
01:00026250 ?create@waitableTimer@@SAXQAV1@@PAUboolean_struct@_builtIn@@@Z  (Idle)
01:00026274 ?createNamed@waitableTimer@@SAXQAV1@@PB_WPAUboolean_struct@_builtIn@@@Z 
01:000262A4 ?openTimer@waitableTimer@@SAXQAV1@@PB_W@Z  (Idle)
01:000262D4 ?setTimer@waitableTimer@@SAXQAV1@@PAPBUtimeIntervalValue@@HPAUboolean_struct@_builtIn@@@Z 
01:000262FC ?setTimer@waitableTimer@@SAXQAV1@@PAPBUtimeIntervalValue@@HXPAXPAUboolean_struct@_builtIn@@@Z 
01:00026324 ?freeze@waitableTimer@@SAXQAV1@@@Z 
01:0002634C ?_create@waitableTimer@@SAXPAUboolean_struct@_builtIn@@PAPAV1@@@Z  (Idle)
01:00026374 ?_createNamed@waitableTimer@@SAXPB_WPAUboolean_struct@_builtIn@@PAPAV1@@@Z  (Idle)
01:000263A0 ?_openTimer@waitableTimer@@SAXPB_WPAPAV1@@@Z  (Idle)
01:000263C8 ?start@thread@@SAXQAV1@@X@Z  (Idle)
01:000263E4 ?start@thread@@SAXQAV1@@XPBUbyteCount@@@Z  (Idle)
01:000263F8 ?createSuspended@thread@@SAXQAV1@@X@Z  (Idle)
01:00026414 ?createSuspended@thread@@SAXQAV1@@XPBUbyteCount@@@Z  (Idle)
01:00026428 ?_getThreadId@thread@@SAXQAV1@@AAUthreadID@multiThread_native@@@Z 
01:0002643C ?threadEntry@thread@@SGIPAX@Z 
01:00026538 ?create@thread@@SAXQAV1@@XPBUbyteCount@@I@Z 
01:000265EC ?attach@thread@@SAXQAV1@@PBUthreadHandle@multiThread_native@@@Z  (Idle)
01:00026600 ?attach@thread@@SAXQAV1@@PBUthreadHandle@multiThread_native@@PBUthreadId@4@@Z 
01:0002661C ?_getPriority@thread@@SAXQAV1@@AAUthreadPriority@multiThread_native@@@Z 
01:00026660 ?setPriority@thread@@SAXQAV1@@PBUthreadPriority@multiThread_native@@@Z 
01:000266A0 ?_suspend@thread@@SAXQAV1@@PAI@Z 
01:000266E4 ?_resume@thread@@SAXQAV1@@PAI@Z 
01:00026728 ?isActive@thread@@SAXQAV1@@@Z 
01:0002675C ?_getExitCode@thread@@SAXQAV1@@PAI@Z 
01:0002679C ?terminate@thread@@SAXQAV1@@I@Z 
01:000267DC ?getTimes@thread@@SAXQAV1@@PAAAUgmtTimeValue@@111@Z 
01:000268A4 ?assertKeepAlive@thread@@SAXPAUthreadEntryParam_struct@1@@Z 
01:00026984 ?retractKeepAlive@thread@@SAXPAUthreadEntryParam_struct@1@@Z 
01:00026B20 ?raise_@thread@@SAXPB_W@Z 
01:00026B48 ?setThreadName@thread@@SAXIPB_W@Z 
01:00026BD4 ?threadName@thread@@SGXQAV1@@PB_W@Z 
01:00026C10 ?threadName@thread@@SGPB_WQAV1@@@Z 
01:00026C28 ?_start@thread@@SAXXPAPAV1@@@Z  (Idle)
01:00026C50 ?_start@thread@@SAXXPBUbyteCount@@PAPAV1@@@Z  (Idle)
01:00026C7C ?_createSuspended@thread@@SAXXPAPAV1@@@Z  (Idle)
01:00026CA4 ?_createSuspended@thread@@SAXXPBUbyteCount@@PAPAV1@@@Z  (Idle)
01:00026CD0 ?_attach@thread@@SAXPBUthreadHandle@multiThread_native@@PAPAV1@@@Z  (Idle)
01:00026CF8 ?_attach@thread@@SAXPBUthreadHandle@multiThread_native@@PBUthreadId@3@PAPAV1@@@Z  (Idle)
01:00026D24 ?_object_facts_initializer@thread@@SGXQAV1@@@Z 
01:00026D44 ?exitCode@thread@@SGXQAV1@@I@Z 
01:00026D54 ?exitCode@thread@@SGIQAV1@@@Z 
01:00026D60 ?new@syncObject@@SAXQAV1@@PBUsyncHandle@windowsAPI@@PAUboolean_struct@_builtIn@@@Z 
01:00026D9C ?_getHandle@syncObject@@SAXQAV1@@AAUsyncHandle@windowsAPI@@@Z 
01:00026DB0 ?_wait@syncObject@@SAXQAV1@@PAI@Z 
01:00026DCC ?_wait@syncObject@@SAXQAV1@@IPAI@Z 
01:00026EC4 $waitAny$syncObject_class$predicate$(i,o)$b$_c2  (Idle)
01:00026EE0 $waitAll$syncObject_class$predicate$(i,o)$b$_c4  (Idle)
01:00026EFC $waitAll$syncObject_class$predicate$(i,i,o)$b$_c5 
01:00026F18 $waitAny$syncObject_class$predicate$(i,i,o)$b$_c3 
01:00026F34 ?close@syncObject@@SAXQAV1@@@Z 
01:00026F54 ?finalize@syncObject@@SGXQAV1@@@Z 
01:00026F80 $waitList$syncObject_implement$predicate$(i,i,i,o)$c$_m4 
01:00027018 $copyHandles$syncObject_implement$predicate$(i,i)$c$_m5 
01:00027088 ?_new@syncObject@@SAXPBUsyncHandle@windowsAPI@@PAUboolean_struct@_builtIn@@PAPAV1@@@Z  (Idle)
01:000270B4 ?_object_facts_initializer@syncObject@@SGXQAV1@@@Z 
01:000270CC ?create@semaphore@@SAXQAV1@@II@Z  (Idle)
01:000270F8 ?createNamed@semaphore@@SAXQAV1@@PB_WII@Z 
01:0002712C ?openSemaphore@semaphore@@SAXQAV1@@PB_W@Z  (Idle)
01:0002715C ?_release@semaphore@@SAXQAV1@@IPAI@Z 
01:00027184 ?_create@semaphore@@SAXIIPAPAV1@@@Z  (Idle)
01:000271B0 ?_createNamed@semaphore@@SAXPB_WIIPAPAV1@@@Z  (Idle)
01:000271E0 ?_openSemaphore@semaphore@@SAXPB_WPAPAV1@@@Z  (Idle)
01:00027208 ?create@mutex@@SAXQAV1@@PAUboolean_struct@_builtIn@@@Z  (Idle)
01:00027268 ?createNamed@mutex@@SAXQAV1@@PB_W@Z  (Idle)
01:00027318 ?release@mutex@@SAXQAV1@@@Z 
01:00027340 ?createOrOpenNamed@mutex@@SAXQAV1@@PB_W@Z  (Idle)
01:00027348 ?createNamed@mutex@@SAXQAV1@@PB_WPAUboolean_struct@_builtIn@@@Z  (Idle)
01:0002737C ?openMutex@mutex@@SAXQAV1@@PB_W@Z  (Idle)
01:00027384 ?_create@mutex@@SAXPAUboolean_struct@_builtIn@@PAPAV1@@@Z  (Idle)
01:000273AC ?_createNamed@mutex@@SAXPB_WPAPAV1@@@Z  (Idle)
01:000273D4 ?_createNamed@mutex@@SAXPB_WPAUboolean_struct@_builtIn@@PAPAV1@@@Z  (Idle)
01:00027400 ?_createOrOpenNamed@mutex@@SAXPB_WPAPAV1@@@Z  (Idle)
01:00027428 ?_openMutex@mutex@@SAXPB_WPAPAV1@@@Z  (Idle)
01:00027450 ?create@event@@SAXQAV1@@PAUboolean_struct@_builtIn@@1@Z  (Idle)
01:0002747C ?createNamed@event@@SAXQAV1@@PB_WPAUboolean_struct@_builtIn@@2@Z 
01:000274B0 ?openEvent@event@@SAXQAV1@@PB_W@Z  (Idle)
01:000274E0 ?createByHandle@event@@SAXQAV1@@PBUsyncHandle@windowsAPI@@@Z  (Idle)
01:000274F4 ?setSignaled@event@@SAXQAV1@@PAUboolean_struct@_builtIn@@@Z 
01:00027544 ?pulse@event@@SAXQAV1@@@Z 
01:0002756C ?_create@event@@SAXPAUboolean_struct@_builtIn@@0PAPAV1@@@Z  (Idle)
01:00027598 ?_createNamed@event@@SAXPB_WPAUboolean_struct@_builtIn@@1PAPAV1@@@Z  (Idle)
01:000275C8 ?_openEvent@event@@SAXPB_WPAPAV1@@@Z  (Idle)
01:000275F0 ?_createByHandle@event@@SAXPBUsyncHandle@windowsAPI@@PAPAV1@@@Z  (Idle)
01:00027618 ?new@criticalSection@@SAXQAV1@@@Z  (Idle)
01:00027648 ?new@criticalSection@@SAXQAV1@@I@Z  (Idle)
01:000276AC ?enter@criticalSection@@SAXQAV1@@@Z 
01:000276C4 ?tryEnter@criticalSection@@SAXQAV1@@@Z 
01:000276E4 ?leave@criticalSection@@SAXQAV1@@@Z 
01:000276FC ?_setSpinCount@criticalSection@@SAXQAV1@@IPAI@Z 
01:0002771C ?delete@criticalSection@@SAXQAV1@@@Z 
01:0002773C ?finalize@criticalSection@@SGXQAV1@@@Z 
--- From 'Obj\gui.0D1EF882.obj'
01:000277C4 ?_new@criticalSection@@SAXPAPAV1@@@Z 
--- From 'Obj\multiThread.B0EA2379.obj'
01:000277EC ?_new@criticalSection@@SAXIPAPAV1@@@Z  (Idle)
01:00027814 ?create@consoleSync@@SAXQAV1@@@Z  (Idle)
01:0002785C ?checkHandle@consoleSync@@SAXPBUfileHandle@@@Z 
01:00027894 ?_create@consoleSync@@SAXPAPAVsyncObject@@@@Z  (Idle)
01:00027924 waitableTimer?_initObject@@@QAGXQAV1@H@Z 
01:0002794C ?@create_object@waitableTimer@@SGQAV1@@XZ 
01:00027968 waitableTimer?_InternalFinalizer@@@QAGXQAV1@@Z 
01:000279E0 thread?_initObject@@@QAGXQAV1@H@Z 
01:00027A1C ?@create_object@thread@@SGQAV1@@XZ 
01:00027A38 thread?_InternalFinalizer@@@QAGXQAV1@@Z 
01:00027A50 syncObject?_initObject@@@QAGXQAV1@H@Z 
01:00027A70 ?@create_object@syncObject@@SGQAV1@@XZ 
01:00027A8C syncObject?_InternalFinalizer@@@QAGXQAV1@@Z 
01:00027B3C semaphore?_initObject@@@QAGXQAV1@H@Z 
01:00027B64 ?@create_object@semaphore@@SGQAV1@@XZ 
01:00027B80 semaphore?_InternalFinalizer@@@QAGXQAV1@@Z 
01:00027C08 mutex?_initObject@@@QAGXQAV1@H@Z 
01:00027C30 ?@create_object@mutex@@SGQAV1@@XZ 
01:00027C4C mutex?_InternalFinalizer@@@QAGXQAV1@@Z 
01:00027CC4 event?_initObject@@@QAGXQAV1@H@Z 
01:00027CEC ?@create_object@event@@SGQAV1@@XZ 
01:00027D08 event?_InternalFinalizer@@@QAGXQAV1@@Z 
01:00027D20 criticalSection?_initObject@@@QAGXQAV1@H@Z 
01:00027D34 ?@create_object@criticalSection@@SGQAV1@@XZ 
01:00027D50 criticalSection?_InternalFinalizer@@@QAGXQAV1@@Z 
01:00027DF0 consoleSync?_initObject@@@QAGXQAV1@H@Z 
01:00027E18 ?@create_object@consoleSync@@SGQAV1@@XZ 
01:00027E34 consoleSync?_InternalFinalizer@@@QAGXQAV1@@Z 
--- From 'Obj\setM_redBlack.0E86AC6B.obj'
01:00027E50 ?new@setM_redBlack@@SAXQAV1@@PAXQAVrTypeLibrary@TypeLibraries@RunTime@VIP@@@Z  (Idle)
01:00027E78 ?new@setM_redBlack@@SAXQAV1@@PAXQAVrTypeLibrary@TypeLibraries@RunTime@VIP@@PAU?$__list_struct@PAX@@@Z  (Idle)
01:00027E98 ?newSingleton@setM_redBlack@@SAXQAV1@@PAXQAVrTypeLibrary@TypeLibraries@RunTime@VIP@@PAX@Z  (Idle)
01:00027EB8 ?newCustom@setM_redBlack@@SAXQAV1@@PAXQAVrTypeLibrary@TypeLibraries@RunTime@VIP@@X@Z  (Idle)
01:00027EE0 ?newInternal@setM_redBlack@@SAXQAV1@@PAXQAVrTypeLibrary@TypeLibraries@RunTime@VIP@@PAUset_struct@redBlackSet@@PAX@Z 
01:00027EFC ?contains@setM_redBlack@@SAXQAVcollection@@@PAXPAX@Z 
01:00027F30 ?_getAll_nd@setM_redBlack@@SAXQAVcollection@@@PAXPAPAX@Z 
01:00027F60 ?insert@setM_redBlack@@SAXQAVmodifiable@@@PAXPAX@Z 
01:00027F98 ?remove@setM_redBlack@@SAXQAVmodifiable@@@PAXPAX@Z 
01:00027FD0 ?clear@setM_redBlack@@SAXQAVmodifiable@@@PAX@Z 
01:00028004 ?_upFrom_nd@setM_redBlack@@SAXQAVset@@@PAXPAXPAPAX@Z 
01:00028040 ?_downFrom_nd@setM_redBlack@@SAXQAVset@@@PAXPAXPAPAX@Z 
--- From 'Obj\gui.0D1EF882.obj'
01:0002807C ?_new@setM_redBlack@@SAXQAVrTypeLibrary@TypeLibraries@RunTime@VIP@@PAPAVsetM@@@PAPAX@Z 
--- From 'Obj\setM_redBlack.0E86AC6B.obj'
01:000280A8 ?_new@setM_redBlack@@SAXQAVrTypeLibrary@TypeLibraries@RunTime@VIP@@PAU?$__list_struct@PAX@@PAPAVsetM@@@PAPAX@Z  (Idle)
01:000280D8 ?_newSingleton@setM_redBlack@@SAXQAVrTypeLibrary@TypeLibraries@RunTime@VIP@@PAXPAPAVsetM@@@PAPAX@Z  (Idle)
01:00028108 ?_newCustom@setM_redBlack@@SAXQAVrTypeLibrary@TypeLibraries@RunTime@VIP@@XPAPAVsetM@@@PAPAX@Z 
01:00028138 ?_object_typelib_initializer@setM_redBlack@@SGXQAV1@@PAXQAVrTypeLibrary@TypeLibraries@RunTime@VIP@@@Z 
01:0002831C setM_redBlack{@Type}?_initObject@@@QAGXQAV1@H@Z 
01:00028358 ?@create_object@setM_redBlack@@SGQAV1@@PAXQAVrTypeLibrary@TypeLibraries@RunTime@VIP@@@Z 
01:0002837C setM_redBlack{@Type}?_InternalFinalizer@@@QAGXQAV1@@Z 
--- From 'Obj\sciLexerSupport.FEC4A01D.obj'
01:00028390 ?isAppThemed@uxTheme_api@@SAXXZ 
--- From 'Obj\varM.B20C5C3C.obj'
01:000283E0 ?new@varM_unsigned@@SAXQAV1@@@Z  (Idle)
01:000283F0 ?new@varM_unsigned@@SAXQAV1@@I@Z  (Idle)
01:00028404 ?add@varM_unsigned@@SAXQAV1@@I@Z 
01:00028420 ?sub@varM_unsigned@@SAXQAV1@@I@Z 
01:0002843C ?max@varM_unsigned@@SAXQAV1@@I@Z 
01:00028458 ?min@varM_unsigned@@SAXQAV1@@I@Z 
--- From 'Obj\sciLexerSupport.FEC4A01D.obj'
01:00028474 ?_new@varM_unsigned@@SAXPAPAV1@@@Z 
--- From 'Obj\varM.B20C5C3C.obj'
01:0002849C ?_new@varM_unsigned@@SAXIPAPAV1@@@Z  (Idle)
01:000284C4 ?value@varM_unsigned@@SAXQAVvarM@@@PAXPAX@Z 
01:000284D8 ?_value@varM_unsigned@@SAXQAVvarM@@@PAXPAPAX@Z 
01:000284EC ?new@varM_reference@@SAXQAV1@@PAXQAVrTypeLibrary@TypeLibraries@RunTime@VIP@@PAUreference_struct@1/1@PAX@Z  (Idle)
01:00028500 ?_value@varM_reference@@SAXQAVvarM@@@PAXPAPAX@Z 
01:00028518 ?value@varM_reference@@SAXQAVvarM@@@PAXPAX@Z 
01:00028560 ?_new@varM_reference@@SAXQAVrTypeLibrary@TypeLibraries@RunTime@VIP@@PAUreference_struct@1/1@PAXPAPAVvarM@@@PAPAX@Z  (Idle)
01:00028590 ?_object_typelib_initializer@varM_reference@@SGXQAV1@@PAXQAVrTypeLibrary@TypeLibraries@RunTime@VIP@@@Z 
01:000285A8 ?new@varM_integer@@SAXQAV1@@@Z  (Idle)
01:000285B8 ?new@varM_integer@@SAXQAV1@@H@Z  (Idle)
01:000285CC ?add@varM_integer@@SAXQAV1@@H@Z 
01:000285E4 ?sub@varM_integer@@SAXQAV1@@H@Z 
01:000285FC ?max@varM_integer@@SAXQAV1@@H@Z 
01:00028618 ?min@varM_integer@@SAXQAV1@@H@Z 
01:00028634 ?_new@varM_integer@@SAXPAPAV1@@@Z  (Idle)
01:0002865C ?_new@varM_integer@@SAXHPAPAV1@@@Z  (Idle)
01:00028684 ?value@varM_integer@@SAXQAVvarM@@@PAXPAX@Z 
01:00028698 ?_value@varM_integer@@SAXQAVvarM@@@PAXPAPAX@Z 
01:000286AC ?new@varM_Boolean@@SAXQAV1@@@Z  (Idle)
01:000286C0 ?new@varM_Boolean@@SAXQAV1@@PAUboolean_struct@_builtIn@@@Z  (Idle)
01:000286D4 ?and_@varM_Boolean@@SAXQAV1@@PAUboolean_struct@_builtIn@@@Z 
01:000286F0 ?or_@varM_Boolean@@SAXQAV1@@PAUboolean_struct@_builtIn@@@Z 
01:0002870C ?xor@varM_Boolean@@SAXQAV1@@PAUboolean_struct@_builtIn@@@Z 
01:0002873C ?not_@varM_Boolean@@SAXQAV1@@@Z 
01:00028768 ?isTrue@varM_Boolean@@SAXQAV1@@@Z 
01:00028784 ?_new@varM_Boolean@@SAXPAPAV1@@@Z  (Idle)
01:000287AC ?_new@varM_Boolean@@SAXPAUboolean_struct@_builtIn@@PAPAV1@@@Z  (Idle)
01:000287D4 ?value@varM_Boolean@@SAXQAVvarM@@@PAXPAX@Z 
01:000287E8 ?_value@varM_Boolean@@SAXQAVvarM@@@PAXPAPAX@Z 
01:000287FC ?new@varM@@SAXQAV1@@PAXQAVrTypeLibrary@TypeLibraries@RunTime@VIP@@PAX@Z  (Idle)
--- From 'Obj\guiSupport.F74ABA7D.obj'
01:00028810 ?_new@varM@@SAXQAVrTypeLibrary@TypeLibraries@RunTime@VIP@@PAXPAPAV1@@PAPAX@Z 
--- From 'Obj\varM.B20C5C3C.obj'
01:0002883C ?_object_typelib_initializer@varM@@SGXQAV1@@PAXQAVrTypeLibrary@TypeLibraries@RunTime@VIP@@@Z 
01:00028854 ?value@varM@@SAXQAV1@@PAXPAX@Z 
01:00028868 ?_value@varM@@SAXQAV1@@PAXPAPAX@Z 
01:00028884 varM_unsigned?_initObject@@@QAGXQAV1@H@Z 
01:00028898 ?@create_object@varM_unsigned@@SGQAV1@@XZ 
01:000288B4 varM_unsigned?_InternalFinalizer@@@QAGXQAV1@@Z 
01:000288C8 varM_reference{@Term}?_initObject@@@QAGXQAV1@H@Z 
01:000288EC ?@create_object@varM_reference@@SGQAV1@@PAXQAVrTypeLibrary@TypeLibraries@RunTime@VIP@@@Z 
01:00028910 varM_reference{@Term}?_InternalFinalizer@@@QAGXQAV1@@Z 
01:00028924 varM_integer?_initObject@@@QAGXQAV1@H@Z 
01:00028938 ?@create_object@varM_integer@@SGQAV1@@XZ 
01:00028954 varM_integer?_InternalFinalizer@@@QAGXQAV1@@Z 
01:00028968 varM_Boolean?_initObject@@@QAGXQAV1@H@Z 
01:0002897C ?@create_object@varM_Boolean@@SGQAV1@@XZ 
01:00028998 varM_Boolean?_InternalFinalizer@@@QAGXQAV1@@Z 
01:000289AC varM{@Term}?_initObject@@@QAGXQAV1@H@Z 
01:000289D0 ?@create_object@varM@@SGQAV1@@PAXQAVrTypeLibrary@TypeLibraries@RunTime@VIP@@@Z 
01:000289F4 varM{@Term}?_InternalFinalizer@@@QAGXQAV1@@Z 
--- From 'Obj\clipboard.110730D5.obj'
01:00028A00 ?putString@clipboard@@SAXPB_W@Z  (Idle)
01:00028A24 ?putString@clipboard@@SAXQAVwindow@@@PB_W@Z 
01:00028A84 ?putUserDefined@clipboard@@SAXQAVwindow@@@PB_WQAE@Z  (Idle)
01:00028AE4 ?openClipboardInner@clipboard@@SAXQAVwindow@@@@Z  (Idle)
01:00028B44 ?put@clipboard@@SAXQAVwindow@@@IPBUhGlobal@windowsAPI@@@Z 
01:00028BCC ?putHtml@clipboard@@SAXPB_W0@Z  (Idle)
01:00028C08 ?putHtml@clipboard@@SAXPB_W000@Z  (Idle)
--- From 'Obj\sciLexer.ADC40A53.obj'
01:00028C48 ?putHtml@clipboard@@SAXQAVwindow@@@PB_W1@Z 
--- From 'Obj\clipboard.110730D5.obj'
01:00028C68 ?putHtml@clipboard@@SAXQAVwindow@@@PB_W111@Z 
01:00028E2C ?_tryGetString@clipboard@@SAXPAPB_W@Z  (Idle)
01:00028E60 ?_tryGetHTML@clipboard@@SAXPAPB_W@Z  (Idle)
01:00028EB4 ?_tryGetUserDefined@clipboard@@SAXPB_WQAPAE@Z  (Idle)
01:00028EFC ?_tryGetFormatData@clipboard@@SAXQAVrTypeLibrary@TypeLibraries@RunTime@VIP@@IXPAPAX@Z 
01:00028FA8 ?_lf_crlf@clipboard@@SAXPB_WPAPB_W@Z 
01:0002901C ?_onNative@clipboard@@SAXQAVwindow@@@IPBUwParam@@PBUlParam@@PAPAUnativeResponse_struct@2@@Z 
01:00029070 ?updateClipboardEvent@clipboard@@SGQAVevent0@@@QAVwindow@@@XZ  (Idle)
--- From 'Obj\sciLexer.ADC40A53.obj'
01:00029120 ?_newGet_integerControl@commonDialogs@@SAXQAVwindow@@@PB_W1PAPAVcommonDialog@@@PAPAV4@@PAH@Z 
--- From 'Obj\commonDialogs.C2E51EE2.obj'
01:00029140 ?_anonymous$c0$1$newget_integercontrol/4nf$commonDialogs@1@SAXPAUanonymous$c0$1$newget_integercontrol/4nf$commonDialogsc_struct@1@QAVintegerControl@@@PAH@Z 
01:00029164 ?_newGet_integerControl@commonDialogs@@SAXQAVwindow@@@PB_W11PAPAVcommonDialog@@@PAPAV4@@PAH@Z 
01:00029218 ?_tryGet_integer@commonDialogs@@SAXQAVwindow@@@PB_W1PAH@Z  (Idle)
01:00029238 ?_tryGet_integer@commonDialogs@@SAXQAVwindow@@@PB_W11PAH@Z 
01:00029274 ?_newGet_realControl@commonDialogs@@SAXQAVwindow@@@PB_W1PAPAVcommonDialog@@@PAPAV4@@PAPAN@Z  (Idle)
01:00029294 ?_anonymous$c0$1$newget_realcontrol/4nf$commonDialogs@1@SAXPAUanonymous$c0$1$newget_realcontrol/4nf$commonDialogsc_struct@1@QAVrealControl@@@PAPAN@Z 
01:000292B8 ?_newGet_realControl@commonDialogs@@SAXQAVwindow@@@PB_W11PAPAVcommonDialog@@@PAPAV4@@PAPAN@Z 
01:0002936C ?_tryGet_real@commonDialogs@@SAXQAVwindow@@@PB_W1PAPAN@Z  (Idle)
01:0002938C ?_tryGet_real@commonDialogs@@SAXQAVwindow@@@PB_W11PAPAN@Z 
01:000293C8 ?_newGet_editControl@commonDialogs@@SAXQAVwindow@@@PB_W1PAPAVcommonDialog@@@PAPAV4@@PAPB_W@Z  (Idle)
01:000293E8 ?_anonymous$c0$1$newget_editcontrol/4nf$commonDialogs@1@SAXPAUanonymous$c0$1$newget_editcontrol/4nf$commonDialogsc_struct@1@QAVeditControl@@@PAPB_W@Z 
01:00029408 ?_newGet_editControl@commonDialogs@@SAXQAVwindow@@@PB_W11PAPAVcommonDialog@@@PAPAV4@@PAPB_W@Z 
01:000294A4 ?_anonymous$c0$1$newget_editcontrol/5nf$commonDialogs@1@SAXPAUanonymous$c0$1$newget_editcontrol/5nf$commonDialogsc_struct@1@QAVcontrol@@@PAPAUvalidateResult_struct@4@@Z 
01:0002954C ?_newGet_editControl@commonDialogs@@SAXQAVwindow@@@PB_W11XPAPAVcommonDialog@@@PAPAV4@@PAPB_W@Z  (Idle)
01:000295C8 ?_tryGet_string@commonDialogs@@SAXQAVwindow@@@PB_W1PAPB_W@Z  (Idle)
01:000295E8 ?_tryGet_string@commonDialogs@@SAXQAVwindow@@@PB_W11PAPB_W@Z 
01:00029624 ?_tryGet_string@commonDialogs@@SAXQAVwindow@@@PB_W11XPAPB_W@Z  (Idle)
01:00029664 ?_tryGet@commonDialog@@SAXQAV1@@PAXPAXPAPAX@Z 
01:000296A8 ?onShow@commonDialog@@SAXQAV1@@PAXPAXQAVwindow@@@PBUlParam@gui_native@@@Z 
01:00029960 ?_setPromptWidth@commonDialog@@SAXQAV1@@PAXPAXPAUoptional_struct@core@@QAVtextControl@@@PAH@Z 
01:00029A3C ?_anonymous$o0$1$new/6np$commonDialog{@Control,@Elem}@commonDialog@@SAXPAUanonymous$o0$1$new/6np$commonDialog{@Control,@Elem}c_struct@1/2@QAVbutton@@@PAPAUactionResponse_struct@4@@Z 
01:00029AD0 ?new@commonDialog@@SAXQAV1@@PAXPAXQAVrTypeLibrary@TypeLibraries@RunTime@VIP@@1QAVwindow@@@PB_W4QAVcontrol@@@PAXX@Z  (Idle)
01:00029DA8 ?_new@commonDialog@@SAXQAVrTypeLibrary@TypeLibraries@RunTime@VIP@@0QAVwindow@@@PB_W3QAVcontrol@@@PAXXPAPAV1@@PAPAXPAPAX@Z 
01:00029DEC ?_object_typelib_initializer@commonDialog@@SGXQAV1@@PAXPAXQAVrTypeLibrary@TypeLibraries@RunTime@VIP@@1@Z 
01:00029E08 ?_control@commonDialog@@SAXQAV1@@PAXPAXPAPAX@Z 
01:0002BA8C commonDialog{@Control,@Elem}?_initObject@@@QAGXQAV1@H@Z 
01:0002BAD8 ?@create_object@commonDialog@@SGQAV1@@PAXPAXQAVrTypeLibrary@TypeLibraries@RunTime@VIP@@0@Z 
01:0002BB00 commonDialog{@Control,@Elem}?_InternalFinalizer@@@QAGXQAV1@@Z 
--- From 'Obj\templateExpander.BA7B80C5.obj'
01:0002BB10 ?substitute@templateExpander@@SAXQAVinputStream@@@QAVoutputStream@@@PB_WX@Z  (Idle)
--- From 'Obj\controls.5CEFAE16.obj'
01:0002BB74 ?substitute_string@templateExpander@@SAXPB_WQAVoutputStream@@@0X@Z 
01:0002BC70 ?new@userControlSupport@@SAXQAV1@@@Z 
--- From 'Obj\sciLexerSupport.FEC4A01D.obj'
01:0002BD64 ?new@userControlSupport@@SAXQAV1@@QAVcontainerWindow@@@@Z 
--- From 'Obj\controlSupport.376C23EE.obj'
01:0002BD80 ?setDrawWindowExtension@userControlSupport@@SAXQAVdrawWindow@@@QAVdrawWindowExtension@@@@Z 
01:0002BD98 ?_onControlNative@userControlSupport@@SAXQAV1@@QAVwindow@@@IPBUwParam@@PBUlParam@@PAPAUnativeResponse_struct@3@@Z 
01:0002BEA0 ?show@userControlSupport@@SAXQAVwindow@@@@Z 
01:0002C0A0 ?onBackgroundGetFocus@userControlSupport@@SAXQAV1@@QAVwindow@@@@Z 
01:0002C0C0 ?_getDrawWindow@userControlSupport@@SAXQAV1@@PAPAVdrawWindow@@@@Z 
01:0002C0D4 ?setContainer@userControlSupport@@SAXQAVcontrol@@@QAVcontainerWindow@@@@Z 
01:0002C16C ?addToParentContainer@userControlSupport@@SAXQAV1@@QAVcontainerWindow@@@@Z 
01:0002C1A4 ?_tryGetControl@userControlSupport@@SAXQAVcontainerWindow@@@PAPAVcontrol@@@@Z 
01:0002C1C4 ?_validate@userControlSupport@@SAXQAVcontrol@@@PAPAUvalidateResult_struct@2@@Z 
01:0002C224 ?_onControlEraseBackground@userControlSupport@@SAXQAV1@@QAVdrawWindow@@@QAVwindowGDI@@@PAPAUeraseBackgroundResponse_struct@3@@Z 
01:0002C248 ?setHorizontalScroll@userControlSupport@@SAXQAV1@@@Z 
01:0002C25C ?setHorizontalScroll@userControlSupport@@SAXQAV1@@PAUboolean_struct@_builtIn@@@Z 
01:0002C2BC ?_getHorizontalScroll@userControlSupport@@SAXQAV1@@PAPAUboolean_struct@_builtIn@@@Z 
01:0002C2D0 ?setVerticalScroll@userControlSupport@@SAXQAV1@@@Z 
01:0002C2E4 ?setVerticalScroll@userControlSupport@@SAXQAV1@@PAUboolean_struct@_builtIn@@@Z 
01:0002C344 ?_getVerticalScroll@userControlSupport@@SAXQAV1@@PAPAUboolean_struct@_builtIn@@@Z 
01:0002C358 ?setTransparent@userControlSupport@@SAXQAV1@@@Z 
01:0002C36C ?setTransparent@userControlSupport@@SAXQAV1@@PAUboolean_struct@_builtIn@@@Z 
01:0002C3CC ?_getTransparent@userControlSupport@@SAXQAV1@@PAPAUboolean_struct@_builtIn@@@Z 
01:0002C3E0 ?setBorder@userControlSupport@@SAXQAV1@@@Z 
01:0002C3F4 ?setBorder@userControlSupport@@SAXQAV1@@PAUboolean_struct@_builtIn@@@Z 
01:0002C454 ?_getBorder@userControlSupport@@SAXQAV1@@PAPAUboolean_struct@_builtIn@@@Z 
01:0002C468 ?_new@userControlSupport@@SAXQAVcontainerWindow@@@PAPAV1@@@Z  (Idle)
01:0002C490 ?_new@userControlSupport@@SAXPAPAV1@@@Z  (Idle)
01:0002C4B8 ?_object_facts_initializer@userControlSupport@@SGXQAV1@@@Z 
01:0002C4E4 ?handlePaint@userControlSupport@@SAXQAVdrawWindowExtension@@@QAVdrawWindow@@@PAUrct_struct@vpiDomains@@QAVwindowGDI@@@@Z 
01:0002C510 ?_handleEraseBackground@userControlSupport@@SAXQAVdrawWindowExtension@@@QAVdrawWindow@@@PAPAUeraseBackgroundResponse_struct@3@@Z 
01:0002C53C ?handleMouseDown@userControlSupport@@SAXQAVdrawWindowExtension@@@QAVdrawWindow@@@PAUpnt_struct@vpiDomains@@PBUkeyModifier@5@H@Z 
01:0002C568 ?handleMouseUp@userControlSupport@@SAXQAVdrawWindowExtension@@@QAVdrawWindow@@@PAUpnt_struct@vpiDomains@@PBUkeyModifier@5@H@Z 
01:0002C594 ?handleMouseMove@userControlSupport@@SAXQAVdrawWindowExtension@@@QAVdrawWindow@@@PAUpnt_struct@vpiDomains@@PBUkeyModifier@5@PAU?$__list_struct@Uinteger@@@@@Z 
01:0002C5C0 ?handleMouseDbl@userControlSupport@@SAXQAVdrawWindowExtension@@@QAVdrawWindow@@@PAUpnt_struct@vpiDomains@@PBUkeyModifier@5@H@Z 
01:0002C5EC ?_handleChar@userControlSupport@@SAXQAVdrawWindowExtension@@@QAVdrawWindow@@@HPBUkeyModifier@vpiDomains@@PAPAUcharResponse_struct@3@@Z 
01:0002C618 ?_handleKeyDown@userControlSupport@@SAXQAVdrawWindowExtension@@@QAVdrawWindow@@@HPBUkeyModifier@vpiDomains@@PAPAUkeyDownResponse_struct@3@@Z 
01:0002C644 ?_handleKeyUp@userControlSupport@@SAXQAVdrawWindowExtension@@@QAVdrawWindow@@@HPBUkeyModifier@vpiDomains@@PAPAUkeyUpResponse_struct@3@@Z 
01:0002C670 ?handleVScroll@userControlSupport@@SAXQAVdrawWindowExtension@@@QAVdrawWindow@@@PBUscrollCode@vpiDomains@@H@Z 
01:0002C69C ?handleHScroll@userControlSupport@@SAXQAVdrawWindowExtension@@@QAVdrawWindow@@@PBUscrollCode@vpiDomains@@H@Z 
01:0002C6C8 ?handleShow@userControlSupport@@SAXQAVwindowExtension@@@QAVwindow@@@PBUlParam@gui_native@@@Z 
01:0002C6F4 ?handleDestroy@userControlSupport@@SAXQAVwindowExtension@@@QAVwindow@@@@Z 
01:0002C720 ?handleSize@userControlSupport@@SAXQAVwindowExtension@@@QAVwindow@@@HH@Z 
01:0002C74C ?handleMove@userControlSupport@@SAXQAVwindowExtension@@@QAVwindow@@@HH@Z 
01:0002C778 ?handleFocus@userControlSupport@@SAXQAVwindowExtension@@@QAVwindow@@@@Z 
01:0002C7A4 ?handleLoseFocus@userControlSupport@@SAXQAVwindowExtension@@@QAVwindow@@@@Z 
01:0002C7D0 ?handleMenuCommand@userControlSupport@@SAXQAVwindowExtension@@@QAVwindow@@@PBUmenuTag@vpiDomains@@@Z 
01:0002C7FC ?handleTimer@userControlSupport@@SAXQAVwindowExtension@@@QAVwindow@@@PBUtimerId@vpiDomains@@@Z 
01:0002C828 ?_handleNative@userControlSupport@@SAXQAVwindowExtension@@@QAVwindow@@@IPBUwParam@gui_native@@PBUlParam@5@PAPAUnativeResponse_struct@3@@Z 
01:0002C854 ?handleUser@userControlSupport@@SAXQAVwindowExtension@@@QAVwindow@@@PBUunsignedNative@@PBUintegerNative@@@Z 
01:0002C880 ?handleStateChange@userControlSupport@@SAXQAVwindowExtension@@@QAVwindow@@@PAUstateInfo_struct@vpiDomains@@@Z 
01:0002C8AC ?setStyle@styleFlagsEx@@SAXQAV1@@I@Z 
01:0002C8D4 ?resetStyle@styleFlagsEx@@SAXQAV1@@I@Z 
01:0002C908 ?setStyleEx@styleFlagsEx@@SAXQAV1@@I@Z 
01:0002C930 ?resetStyleEx@styleFlagsEx@@SAXQAV1@@I@Z 
01:0002C964 ?_getStyleBoolean@styleFlagsEx@@SAXQAV1@@IPAPAUboolean_struct@_builtIn@@@Z 
01:0002C9A0 ?setStyleBoolean@styleFlagsEx@@SAXQAV1@@IPAUboolean_struct@_builtIn@@@Z 
01:0002C9BC ?_getStyleExBoolean@styleFlagsEx@@SAXQAV1@@IPAPAUboolean_struct@_builtIn@@@Z 
01:0002C9F8 ?setStyleExBoolean@styleFlagsEx@@SAXQAV1@@IPAUboolean_struct@_builtIn@@@Z 
01:0002CA14 ?setWsflags@styleFlagsEx@@SAXQAV1@@PAU?$__list_struct@Uwsflag@@@@@Z 
01:0002CA60 ?resetWsflags@styleFlagsEx@@SAXQAV1@@PAU?$__list_struct@Uwsflag@@@@@Z 
01:0002CAAC ?setWsflag@styleFlagsEx@@SAXQAV1@@PBUwsflag@@@Z 
01:0002CB38 ?resetWsflag@styleFlagsEx@@SAXQAV1@@PBUwsflag@@@Z 
01:0002CBC4 ?mapStyle@styleFlagsEx@@SAXPBUwsflag@@PAI@Z 
01:0002CD20 ?mapStyleEx@styleFlagsEx@@SAXPBUwsflag@@PAI@Z 
01:0002CE60 ?new@styleFlagsEx@@SAXQAV1@@@Z  (Idle)
01:0002CE68 ?_new@styleFlagsEx@@SAXPAPAV1@@@Z  (Idle)
01:0002CE8C ?_object_facts_initializer@styleFlagsEx@@SGXQAV1@@@Z 
01:0002CEA4 ?style@styleFlagsEx@@SGXQAV1@@I@Z 
01:0002CEB4 ?style@styleFlagsEx@@SGIQAV1@@@Z 
01:0002CEC0 ?styleEx@styleFlagsEx@@SGXQAV1@@I@Z 
01:0002CED0 ?styleEx@styleFlagsEx@@SGIQAV1@@@Z 
--- From 'Obj\controls.5CEFAE16.obj'
01:0002CEDC ?new@standardControlSupport@@SAXQAV1@@PBUwintype@vpiDomains@@@Z 
--- From 'Obj\controlSupport.376C23EE.obj'
01:0002CF38 ?show@standardControlSupport@@SAXQAVwindow@@@@Z 
01:0002D0F0 ?_new@standardControlSupport@@SAXPBUwintype@vpiDomains@@PAPAVcontrol@@@@Z  (Idle)
01:0002D118 ?new@nullControlSupport@@SAXQAV1@@QAVcontainerWindow@@@@Z  (Idle)
01:0002D134 ?new@nullControlSupport@@SAXQAV1@@@Z 
--- From 'Obj\controls.5CEFAE16.obj'
01:0002D16C ?_new@nullControlSupport@@SAXQAVcontainerWindow@@@PAPAV1@@@Z 
--- From 'Obj\controlSupport.376C23EE.obj'
01:0002D194 ?_new@nullControlSupport@@SAXPAPAV1@@@Z  (Idle)
01:0002D1B8 ?new@drawControlSupport@@SAXQAV1@@@Z  (Idle)
01:0002D294 ?new@drawControlSupport@@SAXQAV1@@QAVcontainerWindow@@@@Z  (Idle)
01:0002D2B0 ?_getDefaultUserControlExtension@drawControlSupport@@SAXQAV1@@PAPAVdrawControlExtension@@@@Z 
01:0002D2C4 ?_getUserControlExtension@drawControlSupport@@SAXQAV1@@PAPAVdrawControlExtension@@@@Z 
01:0002D2E8 ?setUserControlExtension@drawControlSupport@@SAXQAV1@@QAVdrawControlExtension@@@@Z 
01:0002D30C ?setDrawWindowExtension@drawControlSupport@@SAXQAVdrawWindow@@@QAVdrawWindowExtension@@@@Z 
01:0002D324 ?show@drawControlSupport@@SAXQAVwindow@@@@Z 
01:0002D408 ?setContainer@drawControlSupport@@SAXQAVcontrol@@@QAVcontainerWindow@@@@Z 
01:0002D4A4 ?addToParentContainer@drawControlSupport@@SAXQAV1@@QAVcontainerWindow@@@@Z 
01:0002D4DC ?redirectEditEvents@drawControlSupport@@SAXQAV1@@QAVcontrol@@@@Z 
01:0002D504 ?redirectTextEvents@drawControlSupport@@SAXQAV1@@QAVcontrol@@@@Z 
01:0002D52C ?_onControlEraseBackground@drawControlSupport@@SAXQAV1@@QAVdrawWindow@@@QAVwindowGDI@@@PAPAUeraseBackgroundResponse_struct@3@@Z 
01:0002D548 ?_anonymous$o0$1$getdlgcode/0nf$drawControlSupport@1@SAXPAUkeyHook_struct@1@IPAI@Z 
01:0002D578 ?_getDlgCode@drawControlSupport@@SAXQAV1@@PAI@Z  (Idle)
01:0002D5C0 ?_mapKeyHook@drawControlSupport@@SAXPAUkeyHook_struct@1@PAI@Z 
01:0002D608 ?_onControlNative@drawControlSupport@@SAXQAV1@@QAVwindow@@@IPBUwParam@@PBUlParam@@PAPAUnativeResponse_struct@3@@Z 
01:0002D7D4 ?setHorizontalScroll@drawControlSupport@@SAXQAV1@@@Z 
01:0002D7E8 ?setHorizontalScroll@drawControlSupport@@SAXQAV1@@PAUboolean_struct@_builtIn@@@Z 
01:0002D848 ?_getHorizontalScroll@drawControlSupport@@SAXQAV1@@PAPAUboolean_struct@_builtIn@@@Z 
01:0002D85C ?setVerticalScroll@drawControlSupport@@SAXQAV1@@@Z 
01:0002D870 ?setVerticalScroll@drawControlSupport@@SAXQAV1@@PAUboolean_struct@_builtIn@@@Z 
01:0002D8D0 ?_getVerticalScroll@drawControlSupport@@SAXQAV1@@PAPAUboolean_struct@_builtIn@@@Z 
01:0002D8E4 ?setTransparent@drawControlSupport@@SAXQAV1@@@Z 
01:0002D8F8 ?setTransparent@drawControlSupport@@SAXQAV1@@PAUboolean_struct@_builtIn@@@Z 
01:0002D958 ?_getTransparent@drawControlSupport@@SAXQAV1@@PAPAUboolean_struct@_builtIn@@@Z 
01:0002D96C ?setBorder@drawControlSupport@@SAXQAV1@@@Z 
01:0002D980 ?setBorder@drawControlSupport@@SAXQAV1@@PAUboolean_struct@_builtIn@@@Z 
01:0002D9E0 ?_getBorder@drawControlSupport@@SAXQAV1@@PAPAUboolean_struct@_builtIn@@@Z 
01:0002D9F4 ?_new@drawControlSupport@@SAXQAVcontainerWindow@@@PAPAV1@@@Z  (Idle)
01:0002DA1C ?_new@drawControlSupport@@SAXPAPAV1@@@Z  (Idle)
01:0002DA44 ?_object_facts_initializer@drawControlSupport@@SGXQAV1@@@Z 
01:0002DA70 ?keyboardHook@drawControlSupport@@SGXQAV1@@PAU?$__list_struct@UkeyHook@@@@@Z 
01:0002DA80 ?keyboardHook@drawControlSupport@@SGPAU?$__list_struct@UkeyHook@@@@QAV1@@@Z 
01:0002DA8C ?handlePaint@drawControlSupport@@SAXQAVdrawWindowExtension@@@QAVdrawWindow@@@PAUrct_struct@vpiDomains@@QAVwindowGDI@@@@Z 
01:0002DAB8 ?_handleEraseBackground@drawControlSupport@@SAXQAVdrawWindowExtension@@@QAVdrawWindow@@@PAPAUeraseBackgroundResponse_struct@3@@Z 
01:0002DAE4 ?handleMouseDown@drawControlSupport@@SAXQAVdrawWindowExtension@@@QAVdrawWindow@@@PAUpnt_struct@vpiDomains@@PBUkeyModifier@5@H@Z 
01:0002DB10 ?handleMouseUp@drawControlSupport@@SAXQAVdrawWindowExtension@@@QAVdrawWindow@@@PAUpnt_struct@vpiDomains@@PBUkeyModifier@5@H@Z 
01:0002DB3C ?handleMouseMove@drawControlSupport@@SAXQAVdrawWindowExtension@@@QAVdrawWindow@@@PAUpnt_struct@vpiDomains@@PBUkeyModifier@5@PAU?$__list_struct@Uinteger@@@@@Z 
01:0002DB68 ?handleMouseDbl@drawControlSupport@@SAXQAVdrawWindowExtension@@@QAVdrawWindow@@@PAUpnt_struct@vpiDomains@@PBUkeyModifier@5@H@Z 
01:0002DB94 ?_handleChar@drawControlSupport@@SAXQAVdrawWindowExtension@@@QAVdrawWindow@@@HPBUkeyModifier@vpiDomains@@PAPAUcharResponse_struct@3@@Z 
01:0002DBC0 ?_handleKeyDown@drawControlSupport@@SAXQAVdrawWindowExtension@@@QAVdrawWindow@@@HPBUkeyModifier@vpiDomains@@PAPAUkeyDownResponse_struct@3@@Z 
01:0002DBEC ?_handleKeyUp@drawControlSupport@@SAXQAVdrawWindowExtension@@@QAVdrawWindow@@@HPBUkeyModifier@vpiDomains@@PAPAUkeyUpResponse_struct@3@@Z 
01:0002DC18 ?handleVScroll@drawControlSupport@@SAXQAVdrawWindowExtension@@@QAVdrawWindow@@@PBUscrollCode@vpiDomains@@H@Z 
01:0002DC44 ?handleHScroll@drawControlSupport@@SAXQAVdrawWindowExtension@@@QAVdrawWindow@@@PBUscrollCode@vpiDomains@@H@Z 
01:0002DC70 ?handleShow@drawControlSupport@@SAXQAVwindowExtension@@@QAVwindow@@@PBUlParam@gui_native@@@Z 
01:0002DC9C ?handleDestroy@drawControlSupport@@SAXQAVwindowExtension@@@QAVwindow@@@@Z 
01:0002DCC8 ?handleSize@drawControlSupport@@SAXQAVwindowExtension@@@QAVwindow@@@HH@Z 
01:0002DCF4 ?handleMove@drawControlSupport@@SAXQAVwindowExtension@@@QAVwindow@@@HH@Z 
01:0002DD20 ?handleFocus@drawControlSupport@@SAXQAVwindowExtension@@@QAVwindow@@@@Z 
01:0002DD4C ?handleLoseFocus@drawControlSupport@@SAXQAVwindowExtension@@@QAVwindow@@@@Z 
01:0002DD78 ?handleMenuCommand@drawControlSupport@@SAXQAVwindowExtension@@@QAVwindow@@@PBUmenuTag@vpiDomains@@@Z 
01:0002DDA4 ?handleTimer@drawControlSupport@@SAXQAVwindowExtension@@@QAVwindow@@@PBUtimerId@vpiDomains@@@Z 
01:0002DDD0 ?_handleNative@drawControlSupport@@SAXQAVwindowExtension@@@QAVwindow@@@IPBUwParam@gui_native@@PBUlParam@5@PAPAUnativeResponse_struct@3@@Z 
01:0002DDFC ?handleUser@drawControlSupport@@SAXQAVwindowExtension@@@QAVwindow@@@PBUunsignedNative@@PBUintegerNative@@@Z 
01:0002DE28 ?handleStateChange@drawControlSupport@@SAXQAVwindowExtension@@@QAVwindow@@@PAUstateInfo_struct@vpiDomains@@@Z 
--- From 'Obj\controls.5CEFAE16.obj'
01:0002DE54 ?new@controlSupport@@SAXQAV1@@QAVcontrol@@@@Z 
--- From 'Obj\controlSupport.376C23EE.obj'
01:0002DF4C ?newId@controlSupport@@SAXQAV1@@QAVcontrol@@@H@Z  (Idle)
01:0002DF70 ?_getDefaultControlExtension@controlSupport@@SAXQAV1@@PAPAVcontrolExtension@@@@Z 
01:0002DF84 ?_getControlExtension@controlSupport@@SAXQAV1@@PAPAVcontrolExtension@@@@Z 
01:0002DF98 ?setControlExtension@controlSupport@@SAXQAV1@@QAVcontrolExtension@@@@Z 
01:0002DFD4 ?dispatchEvent@controlSupport@@SAXQAV1@@PAUcontrolInfo_struct@vpiDomains@@@Z 
01:0002DFDC ?dispatchNotification@controlSupport@@SAXQAV1@@PBUunsigned16@@@Z 
01:0002DFE4 ?_dispatchWmNotify@controlSupport@@SAXQAV1@@IPAUnmhdr_struct@gui_native@@PAPAUnativeResponse_struct@window@@@Z 
01:0002DFF8 ?_getContainer@controlSupport@@SAXQAV1@@PAPAVcontainerWindow@@@@Z 
01:0002E03C ?_tryGetContainer@controlSupport@@SAXQAV1@@PAPAVcontainerWindow@@@@Z 
01:0002E060 ?setContainer@controlSupport@@SAXQAV1@@QAVcontainerWindow@@@@Z 
01:0002E16C ?resetContainer@controlSupport@@SAXQAV1@@@Z 
01:0002E2B0 ?_getCtrlId@controlSupport@@SAXQAV1@@PAH@Z 
01:0002E2C4 ?setCtrlId@controlSupport@@SAXQAV1@@H@Z 
01:0002E30C ?setRect@controlSupport@@SAXQAV1@@PAUrct_struct@vpiDomains@@@Z 
01:0002E380 ?_getRect@controlSupport@@SAXQAV1@@PAPAUrct_struct@vpiDomains@@@Z 
01:0002E394 ?setPosition@controlSupport@@SAXQAV1@@PAUpnt_struct@vpiDomains@@@Z 
01:0002E414 ?setPosition@controlSupport@@SAXQAV1@@HH@Z 
01:0002E440 ?_getPosition@controlSupport@@SAXQAV1@@PAPAUpnt_struct@vpiDomains@@@Z 
01:0002E48C ?getPosition@controlSupport@@SAXQAV1@@PAHPAH@Z 
01:0002E4B8 ?setSize@controlSupport@@SAXQAV1@@HH@Z 
01:0002E530 ?getSize@controlSupport@@SAXQAV1@@PAHPAH@Z 
01:0002E578 ?setWidth@controlSupport@@SAXQAV1@@H@Z 
01:0002E5A0 ?_getWidth@controlSupport@@SAXQAV1@@PAH@Z 
01:0002E5C0 ?setHeight@controlSupport@@SAXQAV1@@H@Z 
01:0002E5F0 ?_getHeight@controlSupport@@SAXQAV1@@PAH@Z 
01:0002E610 ?setFocus@controlSupport@@SAXQAV1@@@Z 
01:0002E6B8 ?isActive@controlSupport@@SAXQAV1@@@Z 
01:0002E72C ?_getParent_nd@controlSupport@@SAXPBUwindowHandle@vpiDomains@@AAU23@@Z 
01:0002E7A8 ?onControlSize@controlSupport@@SAXQAV1@@QAVwindow@@@@Z 
01:0002E7B4 ?onControlMove@controlSupport@@SAXQAV1@@QAVwindow@@@@Z 
01:0002E7C0 ?onDestroy@controlSupport@@SAXQAV1@@QAVwindow@@@@Z 
01:0002E7DC ?updateControlUnitRect@controlSupport@@SAXQAV1@@@Z 
01:0002E87C ?updateLayout@controlSupport@@SAXQAV1@@@Z 
01:0002E998 ?updateCtlLayout@controlSupport@@SAXQAVcontrol@@@PAUdockStyle_struct@2@PAUrct_struct@vpiDomains@@2@Z 
01:0002EB44 ?setTabStop@controlSupport@@SAXQAV1@@@Z 
01:0002EB58 ?setTabStop@controlSupport@@SAXQAV1@@PAUboolean_struct@_builtIn@@@Z 
01:0002EC54 ?_getTabStop@controlSupport@@SAXQAV1@@PAPAUboolean_struct@_builtIn@@@Z 
01:0002ECBC ?addValidateResponder@controlSupport@@SAXQAV1@@X@Z 
01:0002ECE4 ?removeValidateResponder@controlSupport@@SAXQAV1@@X@Z 
01:0002EDAC ?_validate@controlSupport@@SAXQAV1@@PAPAUvalidateResult_struct@control@@@Z 
01:0002EE48 ?tryValidateWithErrorDialog@controlSupport@@SAXQAV1@@@Z 
01:0002EEC8 ?setLabel@controlSupport@@SAXQAV1@@PB_W@Z 
01:0002EEDC ?_getLabel@controlSupport@@SAXQAV1@@PAPB_W@Z 
01:0002EF20 ?tooltipText@controlSupport@@SGPAUtipText_struct@toolTip@@QAV1@@@Z 
01:0002EF38 ?anonymous$o0$1$tooltiptext/1np$controlSupport@1@SAXPAUanonymous$o0$1$tooltiptext/1np$controlSupportc_struct@1@@Z 
01:0002EFFC ?tooltipText@controlSupport@@SGXQAV1@@PAUtipText_struct@toolTip@@@Z 
01:0002F05C ?_findTooltip@controlSupport@@SAXQAV1@@PAPAVcontrolTooltip@@@@Z 
01:0002F0CC ?setAnchors@controlSupport@@SAXQAV1@@PAU?$__list_struct@UanchorEdge@@@@@Z 
01:0002F188 ?dockStyle@controlSupport@@SGXQAV1@@PAUdockStyle_struct@control@@@Z 
01:0002F268 ?dockStyle@controlSupport@@SGPAUdockStyle_struct@control@@QAV1@@@Z 
01:0002F280 ?checkSizeListener@controlSupport@@SAXQAV1@@@Z 
01:0002F3F4 ?removeSizeListener@controlSupport@@SAXQAV1@@@Z 
01:0002F484 ?resetAnchorSize@controlSupport@@SAXQAV1@@@Z 
01:0002F4A0 ?_tryDetermineUnitSize@controlSupport@@SAXQAVcontainerWindow@@@PAPAUtuple_struct@core@@PAHPAH@Z 
01:0002F564 ?onParentContainerSize@controlSupport@@SAXQAV1@@QAVwindow@@@@Z 
01:0002F714 ?anchorToContainer@controlSupport@@SAXQAV1@@PAUboolean_struct@_builtIn@@1PAUanchorDimension_struct@1@HHHPAHPAH@Z 
01:0002F828 ?_getPreviousReminder@controlSupport@@SAXQAV1@@PAUanchorDimension_struct@1@PAH@Z 
01:0002F850 ?fixPreviousReminder@controlSupport@@SAXQAV1@@PAUanchorDimension_struct@1@H@Z 
01:0002F874 ?exploreAnchorList@controlSupport@@SAXPAU?$__list_struct@UanchorEdge@control@@@@PAUboolean_struct@_builtIn@@111PAPAU45@555@Z 
01:0002F90C ?_getAnchors@controlSupport@@SAXQAV1@@PAPAU?$__list_struct@UanchorEdge@@@@@Z 
01:0002FA6C ?controlEraseBackground@controlSupport@@SGPAUeraseBackgroundResponse_struct@drawWindow@@QAV1@@QAV3@@QAVwindowGDI@@@@Z 
01:0002FB64 ?_selectControlColorBrush@controlSupport@@SAXQAV1@@PBUhDC@gui_native@@IHAAUcontrolColorCookie@@@Z 
01:0002FBE4 ?restoreControlColorBrush@controlSupport@@SAXQAV1@@PBUhDC@gui_native@@PBUcontrolColorCookie@@@Z 
01:0002FC04 ?_new@controlSupport@@SAXQAVcontrol@@@PAPAV1@@@Z  (Idle)
01:0002FC2C ?_newId@controlSupport@@SAXQAVcontrol@@@HPAPAV1@@@Z  (Idle)
01:0002FC58 ?_object_facts_initializer@controlSupport@@SGXQAV1@@@Z 
01:0002FCAC ?publicSelf@controlSupport@@SGXQAV1@@QAVcontrol@@@@Z 
01:0002FCBC ?publicSelf@controlSupport@@SGQAVcontrol@@@QAV1@@@Z 
01:0002FCC8 ?toolTip@controlSupport@@SGXQAV1@@PAUoptional_struct@core@@QAVcontrolTooltip@@@@Z 
01:0002FCD8 ?toolTip@controlSupport@@SGPAUoptional_struct@core@@QAVcontrolTooltip@@@QAV1@@@Z 
01:0002FCE4 ?handleShow@controlSupport@@SAXQAVwindowExtension@@@QAVwindow@@@PBUlParam@gui_native@@@Z 
01:0002FD00 ?handleDestroy@controlSupport@@SAXQAVwindowExtension@@@QAVwindow@@@@Z 
01:0002FD1C ?handleSize@controlSupport@@SAXQAVwindowExtension@@@QAVwindow@@@HH@Z 
01:0002FD38 ?handleMove@controlSupport@@SAXQAVwindowExtension@@@QAVwindow@@@HH@Z 
01:0002FD54 ?handleFocus@controlSupport@@SAXQAVwindowExtension@@@QAVwindow@@@@Z 
01:0002FD70 ?handleLoseFocus@controlSupport@@SAXQAVwindowExtension@@@QAVwindow@@@@Z 
01:0002FD8C ?handleMenuCommand@controlSupport@@SAXQAVwindowExtension@@@QAVwindow@@@PBUmenuTag@vpiDomains@@@Z 
01:0002FDA8 ?handleTimer@controlSupport@@SAXQAVwindowExtension@@@QAVwindow@@@PBUtimerId@vpiDomains@@@Z 
01:0002FDC4 ?_handleNative@controlSupport@@SAXQAVwindowExtension@@@QAVwindow@@@IPBUwParam@gui_native@@PBUlParam@5@PAPAUnativeResponse_struct@3@@Z 
01:0002FDE0 ?handleUser@controlSupport@@SAXQAVwindowExtension@@@QAVwindow@@@PBUunsignedNative@@PBUintegerNative@@@Z 
01:0002FDFC ?handleStateChange@controlSupport@@SAXQAVwindowExtension@@@QAVwindow@@@PAUstateInfo_struct@vpiDomains@@@Z 
01:0002FE18 ?new@commonControlSupport@@SAXQAV1@@QAVcontrol@@@PB_W@Z  (Idle)
01:0002FE6C ?show@commonControlSupport@@SAXQAVwindow@@@@Z 
01:0002FFAC ?_sendMessageIfShown@commonControlSupport@@SAXQAV1@@IPBUwParam@gui_native@@PBUlParam@4@AAUlResult@4@@Z 
01:00030008 ?setOrClearStyleBits@commonControlSupport@@SAXQAV1@@PAUboolean_struct@_builtIn@@I@Z 
01:000300C0 ?_areStyleBitsSet@commonControlSupport@@SAXQAV1@@IPAPAUboolean_struct@_builtIn@@@Z 
01:00030104 ?_new@commonControlSupport@@SAXQAVcontrol@@@PB_WPAPAV1@@@Z  (Idle)
01:00030130 ?_object_facts_initializer@commonControlSupport@@SGXQAV1@@@Z 
--- From 'Obj\controls.5CEFAE16.obj'
01:00032C00 userControlSupport?_initObject@@@QAGXQAV1@H@Z 
--- From 'Obj\controlSupport.376C23EE.obj'
01:00032C54 ?@create_object@userControlSupport@@SGQAV1@@XZ 
--- From 'Obj\controls.5CEFAE16.obj'
01:00032C70 userControlSupport?_InternalFinalizer@@@QAGXQAV1@@Z 
--- From 'Obj\controlSupport.376C23EE.obj'
01:00032C94 styleFlagsEx?_initObject@@@QAGXQAV1@H@Z 
01:00032CB4 ?@create_object@styleFlagsEx@@SGQAV1@@XZ 
01:00032CD0 styleFlagsEx?_InternalFinalizer@@@QAGXQAV1@@Z 
--- From 'Obj\controls.5CEFAE16.obj'
01:00033B44 standardControlSupport?_initObject@@@QAGXQAV1@H@Z 
--- From 'Obj\controlSupport.376C23EE.obj'
01:00033B88 ?@create_object@standardControlSupport@@SGQAV1@@XZ 
--- From 'Obj\controls.5CEFAE16.obj'
01:00033BA4 standardControlSupport?_InternalFinalizer@@@QAGXQAV1@@Z 
--- From 'Obj\controlSupport.376C23EE.obj'
01:000352A4 nullControlSupport?_initObject@@@QAGXQAV1@H@Z 
01:000352C8 ?@create_object@nullControlSupport@@SGQAV1@@XZ 
01:000352E4 nullControlSupport?_InternalFinalizer@@@QAGXQAV1@@Z 
01:000372DC drawControlSupport?_initObject@@@QAGXQAV1@H@Z 
01:0003732C ?@create_object@drawControlSupport@@SGQAV1@@XZ 
01:00037348 drawControlSupport?_InternalFinalizer@@@QAGXQAV1@@Z 
--- From 'Obj\controls.5CEFAE16.obj'
01:000373EC controlSupport?_initObject@@@QAGXQAV1@H@Z 
--- From 'Obj\controlSupport.376C23EE.obj'
01:00037418 ?@create_object@controlSupport@@SGQAV1@@XZ 
--- From 'Obj\controls.5CEFAE16.obj'
01:00037434 controlSupport?_InternalFinalizer@@@QAGXQAV1@@Z 
--- From 'Obj\controlSupport.376C23EE.obj'
01:000382C8 commonControlSupport?_initObject@@@QAGXQAV1@H@Z 
01:00038314 ?@create_object@commonControlSupport@@SGQAV1@@XZ 
01:00038330 commonControlSupport?_InternalFinalizer@@@QAGXQAV1@@Z 
--- From 'Obj\string8.D6F68BA1.obj'
01:00038350 ?toWideChar@string8_api@@SAXPAUcodePage_struct@core@@PADPBUbyteCountOptional@@PB_WPBUcharCount@@@Z 
01:000383BC ?_lenWideChar@string8_api@@SAXPAUcodePage_struct@core@@PADPBUbyteCountOptional@@AAUcharCount@@@Z 
01:00038448 ?toMultiByte@string8_api@@SAXPAUcodePage_struct@core@@PB_WPBUcharCountOptional@@PADPBUbyteCount@@@Z 
01:000384B8 ?_lenMultiByte@string8_api@@SAXPAUcodePage_struct@core@@PB_WPBUcharCountOptional@@AAUbyteCount@@@Z 
--- From 'Obj\string8_api.BA8033D7.obj'
01:00038548 ?_toApiCodePage@string8_api@@SAXPAUcodePage_struct@core@@PAI@Z 
--- From 'Obj\string8.D6F68BA1.obj'
01:00038580 ?isValidCodePage@string8@@SAXI@Z  (Idle)
01:0003859C ?isValidToRead@string8@@SAXPAD@Z  (Idle)
--- From 'Obj\sciLexer.ADC40A53.obj'
01:000385BC ?_fromUtf8@string8@@SAXPADPAPB_W@Z 
01:000385E4 ?_toUtf8@string8@@SAXPB_WPAPAD@Z 
--- From 'Obj\multiThread_api.967EC9F4.obj'
01:0003860C ?_mapFromString@string8@@SAXPB_WPAPAD@Z 
--- From 'Obj\string8.D6F68BA1.obj'
01:00038634 ?_mapFromString@string8@@SAXPB_WPAUcodePage_struct@core@@PAPAD@Z 
--- From 'Obj\regEx.0DEBB752.obj'
01:000386A0 ?_mapToString@string8@@SAXPADPAPB_W@Z 
--- From 'Obj\string8.D6F68BA1.obj'
01:000386C8 ?_mapToString@string8@@SAXPADPAUcodePage_struct@core@@PAPB_W@Z 
01:000386E4 ?_mapToString@string8@@SAXPADPAUcodePage_struct@core@@PBUbyteCountOptional@@PAPB_W@Z 
01:000387A8 ?_mapFromChar@string8@@SAX_WAAUchar8@@@Z  (Idle)
--- From 'Obj\sciLexer.ADC40A53.obj'
01:000387D0 ?_mapFromChar@string8@@SAX_WPAUcodePage_struct@core@@AAUchar8@@@Z 
--- From 'Obj\string8.D6F68BA1.obj'
01:00038848 ?_mapToChar@string8@@SAXPBUchar8@@PA_W@Z  (Idle)
--- From 'Obj\sciLexer.ADC40A53.obj'
01:00038870 ?_mapToChar@string8@@SAXPBUchar8@@PAUcodePage_struct@core@@PA_W@Z 
--- From 'Obj\string8.D6F68BA1.obj'
01:000388EC ?_createCopy@string8@@SAXPADPAPAD@Z 
--- From 'Obj\registry.41898AB3.obj'
01:00038980 ?raise_wrongValue_explicit@registry_exception@@SAXPAUprogramPoint_struct@core@@PBUhResult@@PAUrootKey_struct@registry@@PB_W3@Z  (Idle)
01:00038B00 ?raise_noPath_explicit@registry_exception@@SAXPAUprogramPoint_struct@core@@PBUhResult@@PAUrootKey_struct@registry@@PB_W3@Z  (Idle)
01:00038C80 ?raise_cannotCreateKey_explicit@registry_exception@@SAXPAUprogramPoint_struct@core@@PBUhResult@@PAUrootKey_struct@registry@@PB_W@Z  (Idle)
01:00038DB0 ?_getSystemDescription@registry_exception@@SAXPBUhResult@@PAPB_W@Z 
01:00038DEC ?_getRootKeyName@registry_exception@@SAXPAUrootKey_struct@registry@@PAPB_W@Z 
01:00038E58 ?createKey@registry@@SAXPAUrootKey_struct@1@PB_W@Z  (Idle)
01:00038E6C ?createKey@registry@@SAXPAUrootKey_struct@1@PB_WPAUregistryView_struct@1@@Z 
01:00038EC8 ?existKey@registry@@SAXPAUrootKey_struct@1@PB_W@Z  (Idle)
01:00038EDC ?existKey@registry@@SAXPAUrootKey_struct@1@PB_WPAUregistryView_struct@1@@Z 
01:00038F30 ?deleteKey@registry@@SAXPAUrootKey_struct@1@PB_W@Z  (Idle)
01:00038F44 ?deleteKey@registry@@SAXPAUrootKey_struct@1@PB_WPAUregistryView_struct@1@@Z 
01:0003903C ?is32on32@registry@@SAXI@Z 
01:00039090 ?deleteKeyList@registry@@SAXPAUrootKey_struct@1@PB_WPAU?$__list_struct@Ustring@@@@PAUregistryView_struct@1@@Z 
01:000390F0 ?setValue@registry@@SAXPAUrootKey_struct@1@PB_WPAU?$__list_struct@UnamedValue@@@@@Z  (Idle)
01:00039104 ?setValue@registry@@SAXPAUrootKey_struct@1@PB_WPAU?$__list_struct@UnamedValue@@@@PAUregistryView_struct@1@@Z 
01:00039228 ?setValuesToKey@registry@@SAXPBUhkey@@PAU?$__list_struct@UnamedValue@@@@@Z 
01:00039278 ?_getValue@registry@@SAXPAUrootKey_struct@1@PB_W1PAPAUvalue_struct@core@@@Z 
01:00039294 ?_getValue@registry@@SAXPAUrootKey_struct@1@PB_W1PAUregistryView_struct@1@PAPAUvalue_struct@core@@@Z 
01:00039348 ?_tryGetValue@registry@@SAXPAUrootKey_struct@1@PB_W1PAPAUvalue_struct@core@@@Z 
01:00039364 ?_tryGetValue@registry@@SAXPAUrootKey_struct@1@PB_W1PAUregistryView_struct@1@PAPAUvalue_struct@core@@@Z 
01:00039468 ?removeValue@registry@@SAXPAUrootKey_struct@1@PB_WPAU?$__list_struct@Ustring@@@@@Z  (Idle)
01:0003947C ?removeValue@registry@@SAXPAUrootKey_struct@1@PB_WPAU?$__list_struct@Ustring@@@@PAUregistryView_struct@1@@Z 
01:0003952C ?removeListValues@registry@@SAXPBUhkey@@PAU?$__list_struct@Ustring@@@@@Z 
01:00039588 ?_getSubkeys@registry@@SAXPAUrootKey_struct@1@PB_WPAPAU?$__list_struct@Ustring@@@@@Z  (Idle)
01:000395A4 ?_getSubkeys@registry@@SAXPAUrootKey_struct@1@PB_WPAUregistryView_struct@1@PAPAU?$__list_struct@Ustring@@@@@Z 
01:00039654 ?_getAllValues@registry@@SAXPAUrootKey_struct@1@PB_WPAPAU?$__list_struct@UnamedValue@@@@@Z  (Idle)
01:00039670 ?_getAllValues@registry@@SAXPAUrootKey_struct@1@PB_WPAUregistryView_struct@1@PAPAU?$__list_struct@UnamedValue@@@@@Z 
01:00039720 ?_keyWrite@registry@@SAXPAUregistryView_struct@1@AAUregsAM@@@Z 
01:0003973C ?_keyRead@registry@@SAXPAUregistryView_struct@1@AAUregsAM@@@Z 
01:00039758 ?_applyView@registry@@SAXPAUregistryView_struct@1@PBUregsAM@@AAU4@@Z 
01:000397B0 ?_getRootKeyHandle@registry@@SAXPAUrootKey_struct@1@AAUhkey@@@Z 
--- From 'Obj\regEx.0DEBB752.obj'
01:00039820 ?search@regEx@@SAXPB_W0AAUcharCount@@2@Z 
01:00039854 ?search@regEx@@SAXPB_W0PAUboolean_struct@_builtIn@@AAUcharCount@@3@Z 
01:00039880 ?search@regEx@@SAXPB_W0PAUboolean_struct@_builtIn@@PBUcharCount@@PBUcharOffset@@AAU4@5@Z 
01:00039910 ?_replace@regEx@@SAXPB_W00PAPB_W@Z 
01:0003992C ?_search_and_replace@regEx@@SAXPB_W0PAUboolean_struct@_builtIn@@PBUcharCount@@PBUcharOffset@@0AAU4@6PAPB_W@Z  (Idle)
01:0003998C ?match@regEx@@SAXPB_W0PAUboolean_struct@_builtIn@@AAUcharCount@@3PAPAU?$__list_struct@Ustring@@@@@Z  (Idle)
01:000399C4 ?match@regEx@@SAXPB_W0PAUboolean_struct@_builtIn@@PBUcharCount@@PBUcharOffset@@AAU4@5PAPAU?$__list_struct@Ustring@@@@@Z 
01:00039AF4 ?_ignoreCaseFlag@regEx@@SAXPAUboolean_struct@_builtIn@@AAUflags@@@Z 
01:00039B18 ?resultCallback@regEx@@SGXQAVqueueM@@@PAUtuple_struct@core@@PBUcharCountOptional@@PBUcharCount@@PBUintegerNative@@1@Z 
01:00039B84 ?_init@regEx@@SAXPAH@Z  (Idle)
01:00039BA4 ?exceptionRaiser8@regEx@@SGXPAD@Z 
01:00039BF0 ?stringCopy@regEx@@SGPB_W0@Z 
01:00039C18 ?_class_facts_initializer@regEx@@SGXXZ 
--- From 'Obj\mapM_redBlack.0FBEF488.obj'
01:00039C40 ?new@mapM_redBlack@@SAXQAV1@@PAXPAXQAVrTypeLibrary@TypeLibraries@RunTime@VIP@@1@Z  (Idle)
01:00039C88 ?newCustom@mapM_redBlack@@SAXQAV1@@PAXPAXQAVrTypeLibrary@TypeLibraries@RunTime@VIP@@1X@Z  (Idle)
01:00039CC4 ?set@mapM_redBlack@@SAXQAVmapM@@@PAXPAXPAXPAX@Z 
01:00039D08 ?_tryGet@mapM_redBlack@@SAXQAVmap@@@PAXPAXPAXPAPAX@Z 
01:00039D50 ?_getAll_nd@mapM_redBlack@@SAXQAVcollection@@@PAXPAPAX@Z 
01:00039D90 ?removeKey@mapM_redBlack@@SAXQAVmapM@@@PAXPAXPAX@Z 
01:00039DE8 ?clear@mapM_redBlack@@SAXQAVmodifiable@@@PAX@Z 
01:00039E24 ?_upFrom_nd@mapM_redBlack@@SAXQAVmap@@@PAXPAXPAXPAPAUtuple_struct@core@@PAPAXPAPAX@Z 
01:00039E6C ?_downFrom_nd@mapM_redBlack@@SAXQAVmap@@@PAXPAXPAXPAPAUtuple_struct@core@@PAPAXPAPAX@Z 
01:00039EB4 ?_new@mapM_redBlack@@SAXQAVrTypeLibrary@TypeLibraries@RunTime@VIP@@0PAPAVmapM@@@PAPAXPAPAX@Z 
01:00039EE8 ?_newCustom@mapM_redBlack@@SAXQAVrTypeLibrary@TypeLibraries@RunTime@VIP@@0XPAPAVmapM@@@PAPAXPAPAX@Z  (Idle)
01:00039F1C ?_object_typelib_initializer@mapM_redBlack@@SGXQAV1@@PAXPAXQAVrTypeLibrary@TypeLibraries@RunTime@VIP@@1@Z 
01:0003A2CC mapM_redBlack{@Key,@Data}?_initObject@@@QAGXQAV1@H@Z 
01:0003A310 ?@create_object@mapM_redBlack@@SGQAV1@@PAXPAXQAVrTypeLibrary@TypeLibraries@RunTime@VIP@@0@Z 
01:0003A338 mapM_redBlack{@Key,@Data}?_InternalFinalizer@@@QAGXQAV1@@Z 
--- From 'Obj\Shell_api.179771F5.obj'
01:0003A350 ?shellExecute@shell_api@@SAXPBUhwnd@@PB_W111H@Z  (Idle)
01:0003A3C8 ?shellExecuteEx@shell_api@@SAXPAUshellExecuteInfo_struct@shell_native@@@Z  (Idle)
01:0003A408 ?_shellExecuteErrorDescription@shell_api@@SAXIPAPB_W@Z 
01:0003A54C ?_sHCreateStreamOnFileEx@shell_api@@SAXPB_WIPAPAViStream_native@@@@Z  (Idle)
01:0003A56C ?_sHCreateStreamOnFileEx@shell_api@@SAXPB_WIIPAUboolean_struct@_builtIn@@PAPAViStream_native@@@@Z 
--- From 'Obj\registry_api.2BAF66BB.obj'
01:0003A5D0 _RegDeleteKeyExW@16 
01:0003A5F4 ?_regOpenKeyEx@registry_api@@SAXPBUhKey@@PB_WPBUregsAM@@AAU2@@Z 
01:0003A63C ?_regTryOpenKeyEx@registry_api@@SAXPBUhKey@@PB_WPBUregsAM@@AAU2@@Z 
01:0003A664 ?regCloseKey@registry_api@@SAXPBUhKey@@@Z 
01:0003A6EC ?_regCreateKeyEx@registry_api@@SAXPBUhKey@@PB_WIPBUregsAM@@PAUsecurityAttr_struct@registry_native@@PAIAAU2@@Z 
01:0003A734 ?regDeleteKey@registry_api@@SAXPBUhKey@@PB_W@Z 
01:0003A774 ?regDeleteKeyEx@registry_api@@SAXPBUhKey@@PB_WPBUregsAM@@@Z 
01:0003A7B8 ?_regEnumKeyEx@registry_api@@SAXPBUhKey@@PAPAU?$__list_struct@Ustring@@@@@Z 
01:0003A850 ?_regEnumKeyEx1@registry_api@@SAXPBUhKey@@IPB_WPBUcharCount@@PAPAU?$__list_struct@Ustring@@@@@Z 
01:0003A8CC ?_tryRegEnumKeyExOne@registry_api@@SAXPBUhKey@@IPB_WPBUcharCount@@PAPB_W@Z 
01:0003AA00 ?regSetValueEx@registry_api@@SAXPBUhKey@@PB_WPAUvalue_struct@core@@@Z 
01:0003AA70 ?_regQueryValueEx@registry_api@@SAXPBUhKey@@PB_WPAPAUvalue_struct@core@@@Z 
01:0003AAD4 ?_regTryQueryValueEx@registry_api@@SAXPBUhKey@@PB_WPAPAUvalue_struct@core@@@Z 
01:0003AB28 ?_regQueryValueEx1@registry_api@@SAXPBUhKey@@PB_WPAUpByteCount_struct@memory@@PAPAUvalue_struct@core@@@Z 
01:0003ABB0 ?regDeleteValue@registry_api@@SAXPBUhKey@@PB_W@Z 
01:0003ABE4 ?_regEnumValue@registry_api@@SAXPBUhKey@@PAPAU?$__list_struct@UnamedValue@@@@@Z 
01:0003AC24 ?_regEnumValue1@registry_api@@SAXPBUhKey@@IPB_WPBUcharCount@@PAPAU?$__list_struct@UnamedValue@@@@@Z 
01:0003ACA0 ?_tryRegEnumValueOne@registry_api@@SAXPBUhKey@@IPB_WPBUcharCount@@PAPAUnamedValue_struct@core@@@Z 
01:0003AFFC ?_packValue@registry_api@@SAXIPAXPBUbyteCount@@PAPAUvalue_struct@core@@@Z 
01:0003B290 ?unpackValue@registry_api@@SAXPAUvalue_struct@core@@PAIPAPAXAAUbyteCount@@@Z 
01:0003B624 ?_convertToStringList@registry_api@@SAXPAXPBUbyteCount@@PAPAU?$__list_struct@Ustring@@@@@Z 
01:0003B6F8 ?check_name_value@registry_api@@SAXPBUhResult@@PB_W1PAUvalue_struct@core@@@Z 
01:0003B7A8 ?check_name@registry_api@@SAXPBUhResult@@PB_W1@Z 
--- From 'Obj\redBlackSet.CF7D536C.obj'
01:0003B830 ?_anonymous$c0$1$empty/0$redBlackSet@1@SAXPAUanonymous$c0$1$empty/0$redBlackSetc_struct@1@PAXPAXPAPAUcompareResult_struct@_builtIn@@@Z 
01:0003B848 ?_empty@redBlackSet@@SAXQAVrTypeLibrary@TypeLibraries@RunTime@VIP@@PAPAUset_struct@1@PAPAX@Z 
01:0003B8A0 ?_cmp@redBlackSet@@SAXQAVrTypeLibrary@TypeLibraries@RunTime@VIP@@PAXPAXPAPAUcompareResult_struct@_builtIn@@@Z 
01:0003B8A8 ?_emptyCustom@redBlackSet@@SAXQAVrTypeLibrary@TypeLibraries@RunTime@VIP@@XPAPAUset_struct@1@PAPAX@Z 
01:0003B8D4 ?_emptySameKind@redBlackSet@@SAXQAVrTypeLibrary@TypeLibraries@RunTime@VIP@@PAUset_struct@1@PAXPAPAU21@PAPAX@Z 
01:0003B90C ?isEmpty@redBlackSet@@SAXQAVrTypeLibrary@TypeLibraries@RunTime@VIP@@PAUset_struct@1@PAX@Z  (Idle)
01:0003B928 ?_getComparator@redBlackSet@@SAXQAVrTypeLibrary@TypeLibraries@RunTime@VIP@@XPAX@Z  (Idle)
01:0003B938 ?_insert@redBlackSet@@SAXQAVrTypeLibrary@TypeLibraries@RunTime@VIP@@PAUset_struct@1@PAXPAXPAPAU21@PAPAX@Z 
01:0003B9AC ?_delete@redBlackSet@@SAXQAVrTypeLibrary@TypeLibraries@RunTime@VIP@@PAUset_struct@1@PAXPAXPAPAU21@PAPAX@Z 
01:0003BA20 ?_tryDeleteFirst@redBlackSet@@SAXQAVrTypeLibrary@TypeLibraries@RunTime@VIP@@PAUset_struct@1@PAXPAPAXPAPAU21@PAPAX@Z  (Idle)
01:0003BA50 ?isMember@redBlackSet@@SAXQAVrTypeLibrary@TypeLibraries@RunTime@VIP@@PAXPAUset_struct@1@PAX@Z 
01:0003BA9C ?_getAll_nd@redBlackSet@@SAXQAVrTypeLibrary@TypeLibraries@RunTime@VIP@@PAUset_struct@1@PAXPAPAX@Z 
01:0003BAB4 ?_getAll_multi@redBlackSet@@SAXQAVrTypeLibrary@TypeLibraries@RunTime@VIP@@PAUset_struct@1@PAXPAPAX@Z  (Idle)
01:0003BACC ?_upFrom_nd@redBlackSet@@SAXQAVrTypeLibrary@TypeLibraries@RunTime@VIP@@PAUset_struct@1@PAXPAXPAPAX@Z 
01:0003BB20 ?_up_nd@redBlackSet@@SAXQAVrTypeLibrary@TypeLibraries@RunTime@VIP@@PAUset_struct@1@PAXPAPAX@Z  (Idle)
01:0003BB38 ?_tryGetMin@redBlackSet@@SAXQAVrTypeLibrary@TypeLibraries@RunTime@VIP@@PAUset_struct@1@PAXPAPAX@Z  (Idle)
01:0003BB5C ?_downFrom_nd@redBlackSet@@SAXQAVrTypeLibrary@TypeLibraries@RunTime@VIP@@PAUset_struct@1@PAXPAXPAPAX@Z 
01:0003BBB0 ?_down_nd@redBlackSet@@SAXQAVrTypeLibrary@TypeLibraries@RunTime@VIP@@PAUset_struct@1@PAXPAPAX@Z  (Idle)
01:0003BBC8 ?_tryGetMax@redBlackSet@@SAXQAVrTypeLibrary@TypeLibraries@RunTime@VIP@@PAUset_struct@1@PAXPAPAX@Z  (Idle)
01:0003BBEC ?find_nd_rep@redBlackSet@@SAXQAVrTypeLibrary@TypeLibraries@RunTime@VIP@@XPAXPAUsetRep_struct@1@PAX@Z 
01:0003BC5C ?find_nd_rep1@redBlackSet@@SAXQAVrTypeLibrary@TypeLibraries@RunTime@VIP@@XPAUcompareResult_struct@_builtIn@@PAXPAUsetRep_struct@1@PAX4@Z 
01:0003BCA0 ?_get_nd_rep@redBlackSet@@SAXQAVrTypeLibrary@TypeLibraries@RunTime@VIP@@PAUsetRep_struct@1@PAXPAPAX@Z 
01:0003BD30 ?_get_multi_rep@redBlackSet@@SAXQAVrTypeLibrary@TypeLibraries@RunTime@VIP@@PAUsetRep_struct@1@PAXPAPAX@Z 
01:0003BE08 ?_upFrom_nd_rep@redBlackSet@@SAXQAVrTypeLibrary@TypeLibraries@RunTime@VIP@@XPAXPAUsetRep_struct@1@PAXPAPAX@Z 
01:0003BE8C ?_upFrom_nd_rep1@redBlackSet@@SAXQAVrTypeLibrary@TypeLibraries@RunTime@VIP@@XPAUcompareResult_struct@_builtIn@@PAXPAUsetRep_struct@1@PAXPAX4PAPAX@Z 
01:0003BF40 ?_downFrom_nd_rep@redBlackSet@@SAXQAVrTypeLibrary@TypeLibraries@RunTime@VIP@@XPAXPAUsetRep_struct@1@PAXPAPAX@Z 
01:0003BFC4 ?_downFrom_nd_rep1@redBlackSet@@SAXQAVrTypeLibrary@TypeLibraries@RunTime@VIP@@XPAUcompareResult_struct@_builtIn@@PAXPAUsetRep_struct@1@PAXPAX4PAPAX@Z 
01:0003C078 ?_down_nd_rep@redBlackSet@@SAXQAVrTypeLibrary@TypeLibraries@RunTime@VIP@@PAUsetRep_struct@1@PAXPAPAX@Z 
01:0003C108 ?tryGetNode@redBlackSet@@SAXQAVrTypeLibrary@TypeLibraries@RunTime@VIP@@PAUsetRep_struct@1@PAXPAPAU21@PAPAXPAPAX2@Z 
01:0003C164 ?_insert_rep@redBlackSet@@SAXQAVrTypeLibrary@TypeLibraries@RunTime@VIP@@XPAXPAUsetRep_struct@1@PAXPAPAU21@PAPAX@Z 
01:0003C1BC ?_tryIns@redBlackSet@@SAXQAVrTypeLibrary@TypeLibraries@RunTime@VIP@@XPAXPAUsetRep_struct@1@PAXPAPAU21@PAPAX@Z 
01:0003C2FC ?_tryIns_black@redBlackSet@@SAXQAVrTypeLibrary@TypeLibraries@RunTime@VIP@@XPAUcompareResult_struct@_builtIn@@PAXPAUsetRep_struct@1@PAXPAX4PAPAU41@PAPAX@Z 
01:0003C390 ?_tryIns_red@redBlackSet@@SAXQAVrTypeLibrary@TypeLibraries@RunTime@VIP@@XPAUcompareResult_struct@_builtIn@@PAXPAUsetRep_struct@1@PAXPAX4PAPAU41@PAPAX@Z 
01:0003C444 ?_balance@redBlackSet@@SAXQAVrTypeLibrary@TypeLibraries@RunTime@VIP@@PAUsetRep_struct@1@PAXPAX1PAPAU21@PAPAX@Z 
01:0003CB14 ?_makeblack@redBlackSet@@SAXQAVrTypeLibrary@TypeLibraries@RunTime@VIP@@PAUsetRep_struct@1@PAXPAPAU21@PAPAX@Z 
01:0003CB8C ?_delete_rep@redBlackSet@@SAXQAVrTypeLibrary@TypeLibraries@RunTime@VIP@@XPAXPAUsetRep_struct@1@PAXPAPAU21@PAPAX@Z 
01:0003CBDC ?del@redBlackSet@@SAXQAVrTypeLibrary@TypeLibraries@RunTime@VIP@@XPAXPAUsetRep_struct@1@PAXPAPAU21@PAPAXPAPAUboolean_struct@_builtIn@@@Z 
01:0003CC98 ?del1@redBlackSet@@SAXQAVrTypeLibrary@TypeLibraries@RunTime@VIP@@XPAUcompareResult_struct@_builtIn@@PAXPAUsetRep_struct@1@PAXPAX4PAPAU41@PAPAXPAPAUboolean_struct@3@@Z 
01:0003CD2C ?delLeft@redBlackSet@@SAXQAVrTypeLibrary@TypeLibraries@RunTime@VIP@@XPAXPAUsetRep_struct@1@PAXPAX3PAPAU21@PAPAXPAPAUboolean_struct@_builtIn@@@Z 
01:0003CDC4 ?delRight@redBlackSet@@SAXQAVrTypeLibrary@TypeLibraries@RunTime@VIP@@XPAXPAUsetRep_struct@1@PAXPAX3PAPAU21@PAPAXPAPAUboolean_struct@_builtIn@@@Z 
01:0003CE64 ?_balLeft@redBlackSet@@SAXQAVrTypeLibrary@TypeLibraries@RunTime@VIP@@PAUsetRep_struct@1@PAXPAX1PAPAU21@PAPAX@Z 
01:0003D0E8 ?_balRight@redBlackSet@@SAXQAVrTypeLibrary@TypeLibraries@RunTime@VIP@@PAUsetRep_struct@1@PAXPAX1PAPAU21@PAPAX@Z 
01:0003D36C ?_sub1@redBlackSet@@SAXQAVrTypeLibrary@TypeLibraries@RunTime@VIP@@PAUsetRep_struct@1@PAXPAPAU21@PAPAX@Z 
01:0003D3E8 ?_mkNode@redBlackSet@@SAXQAVrTypeLibrary@TypeLibraries@RunTime@VIP@@PAUsetRep_struct@1@PAX1PAPAU21@PAPAX@Z 
01:0003D654 ?_mkNodeRR_BC@redBlackSet@@SAXQAVrTypeLibrary@TypeLibraries@RunTime@VIP@@PAUsetRep_struct@1@PAXPAX1PAX1PAPAU21@PAPAX@Z 
01:0003D764 ?_mkNodeBB_BC@redBlackSet@@SAXQAVrTypeLibrary@TypeLibraries@RunTime@VIP@@PAUsetRep_struct@1@PAXPAX1PAX1PAPAU21@PAPAX@Z 
--- From 'Obj\collectionMsupport.F70BFF5E.obj'
01:0003D850 ?new@collectionMsupport@collectionSupportM@@SAXQAV1@2@PAXQAVrTypeLibrary@TypeLibraries@RunTime@VIP@@QAVcollectionMsite@@2@PAX@Z 
01:0003D864 ?isEmpty@collectionMsupport@collectionSupportM@@SAXQAV1@2@PAX@Z 
01:0003D8B0 ?_tryGetFirst@collectionMsupport@collectionSupportM@@SAXQAV1@2@PAXPAPAX@Z 
01:0003D8DC ?asList@collectionMsupport@collectionSupportM@@SGPAU?$__list_struct@PAX@@QAV1@2@PAX@Z 
01:0003D94C ?insertList@collectionMsupport@collectionSupportM@@SAXQAV1@2@PAXPAU?$__list_struct@PAX@@@Z 
01:0003D99C ?insertCollection@collectionMsupport@collectionSupportM@@SAXQAV1@2@PAXQAVcollection@@@PAX@Z 
01:0003D9E4 ?removeList@collectionMsupport@collectionSupportM@@SAXQAV1@2@PAXPAU?$__list_struct@PAX@@@Z 
01:0003DA34 ?removeCollection@collectionMsupport@collectionSupportM@@SAXQAV1@2@PAXQAVcollection@@@PAX@Z 
01:0003DA7C ?_tryRemoveFirst@collectionMsupport@collectionSupportM@@SAXQAV1@2@PAXPAPAX@Z 
01:0003DAB0 ?_new@collectionMsupport@collectionSupportM@@SAXQAVrTypeLibrary@TypeLibraries@RunTime@VIP@@QAVcollectionMsite@@2@PAXPAPAV1@2@PAPAX@Z  (Idle)
01:0003DAE4 ?_object_typelib_initializer@collectionMsupport@collectionSupportM@@SGXQAV1@2@PAXQAVrTypeLibrary@TypeLibraries@RunTime@VIP@@@Z 
01:0003DB04 collectionSupportM\collectionMsupport{@Type}?_initObject@@@QAGXQAV1@H@Z 
01:0003DB28 ?@create_object@collectionMsupport@collectionSupportM@@SGQAV1@2@PAXQAVrTypeLibrary@TypeLibraries@RunTime@VIP@@@Z 
01:0003DB4C collectionSupportM\collectionMsupport{@Type}?_InternalFinalizer@@@QAGXQAV1@@Z 
--- From 'Obj\locale_api.7AB46CAD.obj'
01:0003DB60 ?_makeLangId@locale_api@@SAXIIPAI@Z  (Idle)
01:0003DB84 ?_primaryLangId@locale_api@@SAXIPAI@Z  (Idle)
01:0003DBA0 ?_subLangId@locale_api@@SAXIPAI@Z  (Idle)
01:0003DBBC ?_makeLcId@locale_api@@SAXIIAAUlcId@@@Z  (Idle)
01:0003DBE0 ?_makeSortLcId@locale_api@@SAXIIIPAI@Z  (Idle)
01:0003DC28 ?_langIdFromLcId@locale_api@@SAXIPAI@Z  (Idle)
01:0003DC44 ?_sortIdFromLcId@locale_api@@SAXIPAI@Z  (Idle)
01:0003DC6C ?_sortVersionFromLcId@locale_api@@SAXIPAI@Z  (Idle)
01:0003DC88 ?_getNumberFormat@locale_api@@SAXPB_WPAPB_W@Z  (Idle)
01:0003DCAC ?_getNumberFormat@locale_api@@SAXPB_WPBUlcId@@PAPB_W@Z 
01:0003DCD0 ?_getNumberFormat@locale_api@@SAXPB_WPBUlcId@@PAUnumberfmt_struct@locale_native@@PAPB_W@Z 
01:0003DD28 ?_getLocaleInfo_integer@locale_api@@SAXPBUlcType@@PAH@Z  (Idle)
01:0003DD4C ?_getLocaleInfo_integer@locale_api@@SAXPBUlcType@@PBUlcId@@PAH@Z 
01:0003DD78 ?_getLocaleInfo_string@locale_api@@SAXPBUlcType@@PAPB_W@Z  (Idle)
01:0003DD9C ?_getLocaleInfo_string@locale_api@@SAXPBUlcType@@PBUlcId@@PAPB_W@Z 
--- From 'Obj\stream.8B1D7847.obj'
01:0003DDF0 ?raise_endOfStream_explicit@stream_exception@@SAXPAUprogramPoint_struct@core@@@Z 
01:0003DE08 ?raise_notSupportedProperty_explicit@stream_exception@@SAXPAUprogramPoint_struct@core@@@Z 
01:0003DE20 ?raise_noCRLFconversion_explicit@stream_exception@@SAXPAUprogramPoint_struct@core@@@Z 
01:0003DE38 ?raise_wrongMode_explicit@stream_exception@@SAXPAUprogramPoint_struct@core@@PB_W@Z 
01:0003DEA8 ?raise_noStream_explicit@stream_exception@@SAXPAUprogramPoint_struct@core@@@Z  (Idle)
01:0003DEC0 ?setInputStream@stdioState@@SAXQAV1@@QAVinputStream@@@@Z 
01:0003DEE8 ?_getInputStream@stdioState@@SAXQAV1@@PAPAVinputStream@@@@Z 
01:0003DF1C ?_tryGetInputStream@stdioState@@SAXQAV1@@PAPAVinputStream@@@@Z 
01:0003DF40 ?setOutputStream@stdioState@@SAXQAV1@@QAVoutputStream@@@@Z 
01:0003DF68 ?_getOutputStream@stdioState@@SAXQAV1@@PAPAVoutputStream@@@@Z 
01:0003DFA0 ?_tryGetOutputStream@stdioState@@SAXQAV1@@PAPAVoutputStream@@@@Z 
01:0003DFC4 ?setErrorStream@stdioState@@SAXQAV1@@QAVoutputStream@@@@Z 
01:0003DFEC ?_getErrorStream@stdioState@@SAXQAV1@@PAPAVoutputStream@@@@Z 
01:0003E024 ?_tryGetErrorStream@stdioState@@SAXQAV1@@PAPAVoutputStream@@@@Z 
01:0003E048 ?new@stdioState@@SAXQAV1@@@Z  (Idle)
01:0003E050 ?_new@stdioState@@SAXPAPAV1@@@Z  (Idle)
01:0003E074 ?setInputStream@stdio@@SAXQAVinputStream@@@@Z  (Idle)
01:0003E09C ?_getInputStream@stdio@@SAXPAPAVinputStream@@@@Z  (Idle)
01:0003E0C4 ?_tryGetInputStream@stdio@@SAXPAPAVinputStream@@@@Z  (Idle)
--- From 'Obj\messageControl.6297CBEC.obj'
01:0003E0EC ?setOutputStream@stdio@@SAXQAVoutputStream@@@@Z 
--- From 'Obj\stream.8B1D7847.obj'
01:0003E114 ?_getOutputStream@stdio@@SAXPAPAVoutputStream@@@@Z  (Idle)
--- From 'Obj\messageControl.6297CBEC.obj'
01:0003E13C ?_tryGetOutputStream@stdio@@SAXPAPAVoutputStream@@@@Z 
--- From 'Obj\stream.8B1D7847.obj'
01:0003E164 ?setErrorStream@stdio@@SAXQAVoutputStream@@@@Z  (Idle)
01:0003E18C ?_getErrorStream@stdio@@SAXPAPAVoutputStream@@@@Z  (Idle)
01:0003E1B4 ?_tryGetErrorStream@stdio@@SAXPAPAVoutputStream@@@@Z  (Idle)
--- From 'Obj\gui_api.7E4A6614.obj'
01:0003E1DC ?write@stdio@@SAXXZ 
--- From 'Obj\stream.8B1D7847.obj'
01:0003E218 ?writef@stdio@@SAXPB_W@Z  (Idle)
01:0003E25C ?writeBytes@stdio@@SAXPAXPBUbyteCount@@@Z  (Idle)
01:0003E28C ?writeQuoted@stdio@@SAXXZ  (Idle)
01:0003E2C8 ?nl@stdio@@SAXXZ  (Idle)
01:0003E2F0 ?save@stdio@@SAXPBUfactDB@@@Z  (Idle)
01:0003E31C ?flush@stdio@@SAXXZ  (Idle)
01:0003E344 ?write_error@stdio@@SAXXZ  (Idle)
01:0003E380 ?writef_error@stdio@@SAXPB_W@Z  (Idle)
01:0003E3C4 ?writeBytes_error@stdio@@SAXPAXPBUbyteCount@@@Z  (Idle)
01:0003E3F4 ?writeQuoted_error@stdio@@SAXXZ  (Idle)
01:0003E430 ?nl_error@stdio@@SAXXZ  (Idle)
01:0003E458 ?save_error@stdio@@SAXPBUfactDB@@@Z  (Idle)
01:0003E484 ?flush_error@stdio@@SAXXZ  (Idle)
01:0003E4AC ?_read@stdio@@SAXQAVrTypeLibrary@TypeLibraries@RunTime@VIP@@PAPAX@Z  (Idle)
01:0003E4F0 ?_readChar@stdio@@SAXPA_W@Z  (Idle)
01:0003E52C ?ungetChar@stdio@@SAXXZ  (Idle)
01:0003E558 ?_readLine@stdio@@SAXPAPB_W@Z  (Idle)
01:0003E594 ?_readString@stdio@@SAXPBUcharCount@@PAPB_W@Z  (Idle)
01:0003E5D8 ?_readBytes@stdio@@SAXPBUbyteCount@@QAPAE@Z  (Idle)
01:0003E61C ?consult@stdio@@SAXPBUfactDB@@@Z  (Idle)
01:0003E658 ?endOfStream@stdio@@SAXXZ  (Idle)
01:0003E684 ?_getOutputStreamPP_explicit@stdio@@SAXPAUprogramPoint_struct@core@@PAPAVoutputStream@@@@Z 
01:0003E6C8 ?_getErrorStreamPP_explicit@stdio@@SAXPAUprogramPoint_struct@core@@PAPAVoutputStream@@@@Z 
01:0003E70C ?_getInputStreamPP_explicit@stdio@@SAXPAUprogramPoint_struct@core@@PAPAVinputStream@@@@Z 
01:0003E750 ?_class_facts_initializer@stdio@@SGXXZ 
01:0003E778 ?stdioState@stdio@@SGXQAV0@@@Z  (Idle)
01:0003E784 ?stdioState@stdio@@SGQAV0@@XZ  (Idle)
01:0003E78C ?new@outputStream_null@@SAXQAV1@@@Z  (Idle)
01:0003E794 ?getPosition@outputStream_null@@SGPBUfileSize@fileSystem_api@@QAVstream@@@@Z 
01:0003E7A8 ?setPosition@outputStream_null@@SGXQAVstream@@@PBUfileSize@fileSystem_api@@@Z 
01:0003E7B8 ?getCRLFconversion@outputStream_null@@SGPAUboolean_struct@_builtIn@@QAVstream@@@@Z 
01:0003E7CC ?setCRLFconversion@outputStream_null@@SGXQAVstream@@@PAUboolean_struct@_builtIn@@@Z 
01:0003E7DC ?close@outputStream_null@@SGXQAVstream@@@@Z 
01:0003E7EC ?setMode@outputStream_null@@SGXQAVstream@@@PAUmode_struct@2@@Z 
01:0003E7FC ?getMode@outputStream_null@@SGPAUmode_struct@stream@@QAV3@@@Z 
01:0003E810 ?write@outputStream_null@@SAXQAVoutputStream@@@@Z 
01:0003E818 ?writeQuoted@outputStream_null@@SAXQAVoutputStream@@@@Z 
01:0003E820 ?writeBytes@outputStream_null@@SGXQAVoutputStream@@@PAXPBUbyteCount@@@Z 
01:0003E830 ?writef@outputStream_null@@SAXQAVoutputStream@@@PB_W@Z 
01:0003E838 ?nl@outputStream_null@@SGXQAVoutputStream@@@@Z 
01:0003E848 ?save@outputStream_null@@SGXQAVoutputStream@@@PBUfactDB@@@Z 
01:0003E858 ?flush@outputStream_null@@SGXQAVoutputStream@@@@Z 
01:0003E868 ?_new@outputStream_null@@SAXPAPAVoutputStream@@@@Z  (Idle)
01:0003E890 ?_class_facts_initializer@outputStream_null@@SGXXZ 
--- From 'Obj\messageControl.6297CBEC.obj'
01:0003E8B4 ?null@outputStream_0@SGQAVoutputStream@@@XZ 
--- From 'Obj\stream.8B1D7847.obj'
01:0003E8BC ?new@inputStream_null@@SAXQAV1@@@Z  (Idle)
01:0003E8C4 ?getPosition@inputStream_null@@SGPBUfileSize@fileSystem_api@@QAVstream@@@@Z 
01:0003E8D8 ?setPosition@inputStream_null@@SGXQAVstream@@@PBUfileSize@fileSystem_api@@@Z 
01:0003E8E8 ?getCRLFconversion@inputStream_null@@SGPAUboolean_struct@_builtIn@@QAVstream@@@@Z 
01:0003E8FC ?setCRLFconversion@inputStream_null@@SGXQAVstream@@@PAUboolean_struct@_builtIn@@@Z 
01:0003E90C ?close@inputStream_null@@SGXQAVstream@@@@Z 
01:0003E91C ?setMode@inputStream_null@@SGXQAVstream@@@PAUmode_struct@2@@Z 
01:0003E92C ?getMode@inputStream_null@@SGPAUmode_struct@stream@@QAV3@@@Z 
01:0003E940 ?_read@inputStream_null@@SAXQAVinputStream@@@QAVrTypeLibrary@TypeLibraries@RunTime@VIP@@PAPAX@Z 
01:0003E950 ?_readBytes@inputStream_null@@SAXQAVinputStream@@@PBUbyteCount@@QAPAE@Z 
01:0003E960 ?_readString@inputStream_null@@SAXQAVinputStream@@@PBUcharCount@@PAPB_W@Z 
01:0003E970 ?_readChar@inputStream_null@@SAXQAVinputStream@@@PA_W@Z 
01:0003E980 ?ungetChar@inputStream_null@@SAXQAVinputStream@@@@Z 
01:0003E990 ?_readLine@inputStream_null@@SAXQAVinputStream@@@PAPB_W@Z 
01:0003E9A0 ?consult@inputStream_null@@SAXQAVinputStream@@@PBUfactDB@@@Z 
01:0003E9B0 ?reconsult@inputStream_null@@SAXQAVinputStream@@@PBUfactDB@@@Z 
01:0003E9C0 ?endOfStream@inputStream_null@@SAXQAVinputStream@@@@Z 
01:0003E9C8 ?exhausted@inputStream_null@@SAXXZ 
01:0003E9FC ?_new@inputStream_null@@SAXPAPAVinputStream@@@@Z  (Idle)
01:0003EA24 ?_class_facts_initializer@inputStream_null@@SGXXZ 
01:0003EA48 ?null@inputStream_0@SGQAVinputStream@@@XZ  (Idle)
01:0003EA58 stdioState?_initObject@@@QAGXQAV1@H@Z 
01:0003EA6C ?@create_object@stdioState@@SGQAV1@@XZ 
01:0003EA88 stdioState?_InternalFinalizer@@@QAGXQAV1@@Z 
01:0003EA9C outputStream_null?_initObject@@@QAGXQAV1@H@Z 
01:0003EAAC ?@create_object@outputStream_null@@SGQAV1@@XZ 
01:0003EAC8 outputStream_null?_InternalFinalizer@@@QAGXQAV1@@Z 
01:0003EADC inputStream_null?_initObject@@@QAGXQAV1@H@Z 
01:0003EAEC ?@create_object@inputStream_null@@SGQAV1@@XZ 
01:0003EB08 inputStream_null?_InternalFinalizer@@@QAGXQAV1@@Z 
--- From 'Obj\fileSystem_api.E6C4835F.obj'
01:0003EB20 _GetFinalPathNameByHandleW@16  (Idle)
01:0003EB44 ?fileAttributeCorrespondence@fileSystem_api@@SAXPAUfileAttributeAtom_struct@1@PAI@Z  (Idle)
01:0003EBC4 ?_toApiAttributes@fileSystem_api@@SAXPAU?$__list_struct@UfileAttributeAtom@@@@PAI@Z 
01:0003EBE0 ?_toApiAttributes@fileSystem_api@@SAXPAU?$__list_struct@UfileAttributeAtom@@@@IPAI@Z 
01:0003EC3C ?_fromApiAttributes@fileSystem_api@@SAXIPAPAU?$__list_struct@UfileAttributeAtom@@@@@Z 
01:0003ECA4 ?_convertToFileAttribute_nd@fileSystem_api@@SAXIPAPAUfileAttributeAtom_struct@1@@Z 
01:0003ECE4 ?_createFile@fileSystem_api@@SAXPB_WIPAUaccessPermit_struct@1@IPAU?$__list_struct@UfileAttributeAtom@@@@AAUfileHandle@@@Z 
01:0003ED54 ?_toShareModeAPI@fileSystem_api@@SAXPAUaccessPermit_struct@1@PAI@Z 
01:0003ED90 ?_getFileSize@fileSystem_api@@SAXPBUfileHandle@@PAAAUfileSize@@@Z 
01:0003EDE8 ?_setFilePointer@fileSystem_api@@SAXPBUfileHandle@@PA_JIPAAAUfileSize@@@Z 
01:0003EE60 ?getVolumeInformation@fileSystem_api@@SAXPB_WPAPB_WPAI1@Z 
01:0003EF30 ?raise_cannotCreate_explicit@fileSystem_api@@SAXPAUprogramPoint_struct@core@@PB_WPBUhResult@@@Z 
01:0003F0F0 ?raise_cannotGetFileSize_explicit@fileSystem_api@@SAXPAUprogramPoint_struct@core@@PBUfileHandle@@PBUhResult@@@Z 
01:0003F210 ?raise_cannotSetFilePointer_explicit@fileSystem_api@@SAXPAUprogramPoint_struct@core@@PBUfileHandle@@PA_JIPBUhResult@@@Z 
01:0003F3CC ?crlf_lf@fileSystem_api@@SAXPAXHPAUboolean_struct@_builtIn@@PAPAXAAUbyteCount@@PAPAU?$__list_struct@U4@@@PAPAU23@@Z 
01:0003F450 ?prepareSearch@fileSystem_api@@SAXPAXHAAUbyteCount@@PAPAUboolean_struct@_builtIn@@@Z 
01:0003F4D4 ?searchCRLF@fileSystem_api@@SAXPAXPBUbyteCount@@1AAU2@PAPAU?$__list_struct@U2@@@3@Z 
01:0003F5C0 ?_tryGetPositionOfCRLF@fileSystem_api@@SAXPAXHPBUbyteCount@@AAU2@@Z 
01:0003F63C ?_convertCRLF_IfNeeded@fileSystem_api@@SAXPAUboolean_struct@_builtIn@@PAXPBUbyteCount@@PAU?$__list_struct@U4@@@2PAPAX@Z 
01:0003F7A0 ?checkFirstPos@fileSystem_api@@SAXPBUbyteCount@@PAU?$__list_struct@U2@@@PAXPAPAX3PAPAU?$__list_struct@U2@@@@Z 
01:0003F818 ?_mem_move@fileSystem_api@@SAXPAXPAXPBUbyteCount@@PAPAX@Z 
01:0003F840 ?_mem_copy@fileSystem_api@@SAXPAXPAXPBUbyteCount@@PAPAX@Z 
01:0003F868 ?convertCRLF_LF@fileSystem_api@@SAXXPAXPAXPBUbyteCount@@PAU?$__list_struct@U2@@@@Z 
--- From 'Obj\gui_api.7E4A6614.obj'
01:0003F904 ?crlf_lf@fileSystem_api@@SAXPB_W@Z 
--- From 'Obj\fileSystem_api.E6C4835F.obj'
01:0003F918 ?do_CRLF_LF@fileSystem_api@@SAXPB_W0@Z 
--- From 'Obj\gui_api.7E4A6614.obj'
01:0003F9AC ?lf_crlf@fileSystem_api@@SAXPAXPBUbyteCountOptional@@PAPAXAAUbyteCount@@@Z 
--- From 'Obj\fileSystem_api.E6C4835F.obj'
01:0003FA20 ?_getSize@fileSystem_api@@SAXPB_WPBUbyteCountOptional@@AAUbyteCount@@@Z 
01:0003FA60 ?searchLineFeeds@fileSystem_api@@SAXPAXPBUbyteCount@@1AAU2@PAPAU?$__list_struct@U2@@@3@Z 
01:0003FB20 ?_convertToCRLF_IfNeeded@fileSystem_api@@SAXPAXPBUbyteCount@@PAU?$__list_struct@U2@@@1PAPAX@Z 
01:0003FB84 ?convertToCRLF@fileSystem_api@@SAXPAXPAXPBUbyteCount@@PAU?$__list_struct@U2@@@@Z 
01:0003FC28 ?removeDirectory@fileSystem_api@@SAXPB_W@Z 
01:0003FCAC ?createDirectory@fileSystem_api@@SAXPB_WPAUsecurity_Attributes_struct@windowsAPI@@@Z 
01:0003FD34 ?moveFile@fileSystem_api@@SAXPB_W0@Z 
01:0003FE08 ?setVolumeLabel@fileSystem_api@@SAXPB_W0@Z 
01:0003FEDC ?getDiskFreeSpaceEx@fileSystem_api@@SAXPB_WPAAAUfileSize@@11@Z 
01:0003FFD0 ?_anonymous$c0$1$getcurrentdirectory/0nf$fileSystem_api@1@SAXPB_WPBUcharCount@@AAU2@@Z 
01:0003FFE8 ?_getCurrentDirectory@fileSystem_api@@SAXPAPB_W@Z 
01:00040020 ?setCurrentDirectory@fileSystem_api@@SAXPB_W@Z 
01:000400A4 ?_anonymous$c0$1$getlongpathname/1nf$fileSystem_api@1@SAXPAUanonymous$c0$1$getlongpathname/1nf$fileSystem_apic_struct@1@PB_WPBUcharCount@@AAU4@@Z 
01:000400C8 ?_getLongPathName@fileSystem_api@@SAXPB_WPAPB_W@Z  (Idle)
01:00040170 ?_anonymous$c0$1$gettemppath/0nf$fileSystem_api@1@SAXPB_WPBUcharCount@@AAU2@@Z 
01:00040188 ?_getTempPath@fileSystem_api@@SAXPAPB_W@Z 
01:000401C0 ?findClose@fileSystem_api@@SAXPBUsearchHandle@fileSystem_native@@@Z 
01:000401F8 ?checkZeroFailOperation@fileSystem_api@@SAXPB_WPAU?$__list_struct@UnamedValue@@@@PBUbooleanInt@@@Z 
01:0004022C ?_firstSizeThenOperation@fileSystem_api@@SAXPB_WPAU?$__list_struct@UnamedValue@@@@XPAPB_W@Z 
01:000402E0 ?readFile@fileSystem_api@@SAXPBUfileHandle@@PAXPBUbyteCount@@AAU3@@Z 
01:00040308 ?readFile_pipe@fileSystem_api@@SAXPBUfileHandle@@PAXPBUbyteCount@@AAU3@@Z 
01:00040358 ?_readFile@fileSystem_api@@SAXPBUfileHandle@@PAXPBUbyteCount@@AAU3@PAUoverlapped_struct@fileSystem_native@@PAPAUboolean_struct@_builtIn@@@Z 
01:000403C0 ?writeFile@fileSystem_api@@SAXPBUfileHandle@@PAXPBUbyteCount@@AAU3@@Z 
01:000403E8 ?_writeFile@fileSystem_api@@SAXPBUfileHandle@@PAXPBUbyteCount@@AAU3@PAUoverlapped_struct@fileSystem_native@@PAPAUboolean_struct@_builtIn@@@Z 
--- From 'Obj\multiThread_api.967EC9F4.obj'
01:00040450 ?closeHandle@fileSystem_api@@SAXPBUhandle@@@Z 
--- From 'Obj\fileSystem_api.E6C4835F.obj'
01:00040490 ?flushFileBuffers@fileSystem_api@@SAXPBUfileHandle@@@Z 
--- From 'Obj\multiThread_api.967EC9F4.obj'
01:000404D0 ?_duplicateHandle@fileSystem_api@@SAXPBUprocessHandle@windowsAPI@@PBUhandle@@0IHIAAU4@@Z 
--- From 'Obj\fileSystem_api.E6C4835F.obj'
01:00040520 ?fileAttributeCorrespondence@fileSystem_api@@SAXPAPAUfileAttributeAtom_struct@1@I@Z  (Idle)
01:000405FC ?fileAttributeCorrespondence@fileSystem_api@@SAXPAPAUfileAttributeAtom_struct@1@PAI@Z 
01:00040728 ?fileAttributeCorrespondence@fileSystem_api@@SAXPAUfileAttributeAtom_struct@1@I@Z  (Idle)
--- From 'Obj\sciLexer.ADC40A53.obj'
01:000407E0 ?_createWindowEx@sciLexer_api@@SAXIPB_WIHHHHPBUhwnd@@HPBUhModule@@AAU2@@Z 
01:00040878 ?_getScintillaObject@sciLexer_api@@SAXPBUhwnd@@AAUscintillaObject@@@Z 
01:00040898 ?getText@sciLexer_api@@SAXPBUscintillaObject@@HPAD@Z 
01:000408C0 ?setText@sciLexer_api@@SAXPBUscintillaObject@@PAD@Z 
01:000408E0 ?setSavePoint@sciLexer_api@@SAXPBUscintillaObject@@@Z 
01:000408F4 ?getLine@sciLexer_api@@SAXPBUscintillaObject@@HPAD@Z 
01:0004091C ?replaceSel@sciLexer_api@@SAXPBUscintillaObject@@PAD@Z 
01:0004093C ?setReadOnly@sciLexer_api@@SAXPBUscintillaObject@@PBUbooleanInt@@@Z 
01:00040958 ?_getReadOnly@sciLexer_api@@SAXPBUscintillaObject@@AAUbooleanInt@@@Z 
01:00040974 ?_getTextRange@sciLexer_api@@SAXPBUscintillaObject@@PAUsci_textRange_struct@sciLexer_native@@PAH@Z 
--- From 'Obj\sciLexer_api.20CB027C.obj'
01:000409A0 ?getStyledText@sciLexer_api@@SAXPBUscintillaObject@@PAUsci_textRange_struct@sciLexer_native@@@Z  (Idle)
--- From 'Obj\sciLexer.ADC40A53.obj'
01:000409C0 ?allocate@sciLexer_api@@SAXPBUscintillaObject@@H@Z 
01:000409DC ?addText@sciLexer_api@@SAXPBUscintillaObject@@HPAD@Z 
--- From 'Obj\sciLexer_api.20CB027C.obj'
01:00040A04 ?addStyledText@sciLexer_api@@SAXPBUscintillaObject@@HPAUcell_struct@sciLexer_native@@@Z  (Idle)
--- From 'Obj\sciLexer.ADC40A53.obj'
01:00040A2C ?appendText@sciLexer_api@@SAXPBUscintillaObject@@HPAD@Z 
01:00040A54 ?insertText@sciLexer_api@@SAXPBUscintillaObject@@HPAD@Z 
01:00040A7C ?clearAll@sciLexer_api@@SAXPBUscintillaObject@@@Z 
01:00040A90 ?deleteRange@sciLexer_api@@SAXPBUscintillaObject@@HH@Z 
01:00040AB8 ?clearDocumentStyle@sciLexer_api@@SAXPBUscintillaObject@@@Z 
01:00040ACC ?_getCharAt@sciLexer_api@@SAXPBUscintillaObject@@HAAUchar8@@@Z 
01:00040AF4 ?_getStyleAt@sciLexer_api@@SAXPBUscintillaObject@@HAAUsci_style@@@Z 
01:00040B1C ?setStyleBits@sciLexer_api@@SAXPBUscintillaObject@@H@Z 
01:00040B38 ?_getStyleBits@sciLexer_api@@SAXPBUscintillaObject@@PAH@Z 
--- From 'Obj\sciLexer_api.20CB027C.obj'
01:00040B54 ?targetasUtf8@sciLexer_api@@SAXPBUscintillaObject@@PAD@Z  (Idle)
01:00040B74 ?encodedFromUtf8@sciLexer_api@@SAXPBUscintillaObject@@PADPAD@Z  (Idle)
01:00040B9C ?setLengthforEncode@sciLexer_api@@SAXPBUscintillaObject@@H@Z  (Idle)
--- From 'Obj\sciLexer.ADC40A53.obj'
01:00040BB8 ?_findText@sciLexer_api@@SAXPBUscintillaObject@@HPAUsci_textToFind_struct@sciLexer_native@@PAH@Z 
01:00040BEC ?searchAnchor@sciLexer_api@@SAXPBUscintillaObject@@@Z 
01:00040C00 ?_searchNext@sciLexer_api@@SAXPBUscintillaObject@@HPADPAH@Z 
01:00040C34 ?_searchPrev@sciLexer_api@@SAXPBUscintillaObject@@HPADPAH@Z 
01:00040C68 ?setTargetStart@sciLexer_api@@SAXPBUscintillaObject@@H@Z 
01:00040C84 ?_getTargetStart@sciLexer_api@@SAXPBUscintillaObject@@PAH@Z 
01:00040CA0 ?setTargetEnd@sciLexer_api@@SAXPBUscintillaObject@@H@Z 
01:00040CBC ?_getTargetEnd@sciLexer_api@@SAXPBUscintillaObject@@PAH@Z 
01:00040CD8 ?targetFromSelection@sciLexer_api@@SAXPBUscintillaObject@@@Z 
01:00040CEC ?setSearchFlags@sciLexer_api@@SAXPBUscintillaObject@@H@Z 
01:00040D08 ?_getSearchFlags@sciLexer_api@@SAXPBUscintillaObject@@PAH@Z 
01:00040D24 ?_searchInTarget@sciLexer_api@@SAXPBUscintillaObject@@HPADPAH@Z 
01:00040D58 ?_replaceTarget@sciLexer_api@@SAXPBUscintillaObject@@HPADPAH@Z 
01:00040D8C ?_replaceTargetRE@sciLexer_api@@SAXPBUscintillaObject@@HPADPAH@Z 
01:00040DC0 ?_getTag@sciLexer_api@@SAXPBUscintillaObject@@HPADPAH@Z 
01:00040DF4 ?setOverType@sciLexer_api@@SAXPBUscintillaObject@@PBUbooleanInt@@@Z 
01:00040E10 ?_getOverType@sciLexer_api@@SAXPBUscintillaObject@@AAUbooleanInt@@@Z 
--- From 'Obj\sciLexer_api.20CB027C.obj'
01:00040E2C ?cut@sciLexer_api@@SAXPBUscintillaObject@@@Z  (Idle)
01:00040E40 ?copy@sciLexer_api@@SAXPBUscintillaObject@@@Z  (Idle)
--- From 'Obj\sciLexer.ADC40A53.obj'
01:00040E54 ?paste@sciLexer_api@@SAXPBUscintillaObject@@@Z 
01:00040E68 ?clear@sciLexer_api@@SAXPBUscintillaObject@@@Z 
01:00040E7C ?_canPaste@sciLexer_api@@SAXPBUscintillaObject@@AAUbooleanInt@@@Z 
01:00040E98 ?copyAllowLine@sciLexer_api@@SAXPBUscintillaObject@@@Z 
01:00040EAC ?copyRange@sciLexer_api@@SAXPBUscintillaObject@@HH@Z 
01:00040ED4 ?copyText@sciLexer_api@@SAXPBUscintillaObject@@HPAD@Z 
01:00040EFC ?setPasteConvertEndings@sciLexer_api@@SAXPBUscintillaObject@@PBUbooleanInt@@@Z 
01:00040F18 ?_getPasteConvertEndings@sciLexer_api@@SAXPBUscintillaObject@@AAUbooleanInt@@@Z 
01:00040F34 ?setStatus@sciLexer_api@@SAXPBUscintillaObject@@H@Z 
01:00040F50 ?_getStatus@sciLexer_api@@SAXPBUscintillaObject@@PAH@Z 
01:00040F6C ?undo@sciLexer_api@@SAXPBUscintillaObject@@@Z 
01:00040F80 ?_canUndo@sciLexer_api@@SAXPBUscintillaObject@@AAUbooleanInt@@@Z 
01:00040F9C ?redo@sciLexer_api@@SAXPBUscintillaObject@@@Z 
01:00040FB0 ?_canRedo@sciLexer_api@@SAXPBUscintillaObject@@AAUbooleanInt@@@Z 
01:00040FCC ?emptyUndoBuffer@sciLexer_api@@SAXPBUscintillaObject@@@Z 
01:00040FE0 ?setUndoCollection@sciLexer_api@@SAXPBUscintillaObject@@PBUbooleanInt@@@Z 
01:00040FFC ?_getUndoCollection@sciLexer_api@@SAXPBUscintillaObject@@AAUbooleanInt@@@Z 
01:00041018 ?beginUndoAction@sciLexer_api@@SAXPBUscintillaObject@@@Z 
01:0004102C ?endUndoAction@sciLexer_api@@SAXPBUscintillaObject@@@Z 
01:00041040 ?addUndoAction@sciLexer_api@@SAXPBUscintillaObject@@HH@Z 
01:00041068 ?_getTextLength@sciLexer_api@@SAXPBUscintillaObject@@PAH@Z 
--- From 'Obj\sciLexer_api.20CB027C.obj'
01:00041084 ?_getLength@sciLexer_api@@SAXPBUscintillaObject@@PAH@Z  (Idle)
--- From 'Obj\sciLexer.ADC40A53.obj'
01:000410A0 ?_getLineCount@sciLexer_api@@SAXPBUscintillaObject@@AAUlineNumber@@@Z 
01:000410BC ?setFirstVisibleLine@sciLexer_api@@SAXPBUscintillaObject@@H@Z 
01:000410D8 ?_getFirstVisibleLine@sciLexer_api@@SAXPBUscintillaObject@@PAH@Z 
01:000410F4 ?_linesOnScreen@sciLexer_api@@SAXPBUscintillaObject@@PAH@Z 
01:00041110 ?_getModify@sciLexer_api@@SAXPBUscintillaObject@@AAUbooleanInt@@@Z 
01:0004112C ?setSel@sciLexer_api@@SAXPBUscintillaObject@@HH@Z 
01:00041154 ?goToPos@sciLexer_api@@SAXPBUscintillaObject@@H@Z 
01:00041170 ?goToLine@sciLexer_api@@SAXPBUscintillaObject@@H@Z 
01:0004118C ?setCurrentPos@sciLexer_api@@SAXPBUscintillaObject@@H@Z 
01:000411A8 ?_getCurrentPos@sciLexer_api@@SAXPBUscintillaObject@@PAH@Z 
01:000411C4 ?setAnchor@sciLexer_api@@SAXPBUscintillaObject@@H@Z 
01:000411E0 ?_getAnchor@sciLexer_api@@SAXPBUscintillaObject@@PAH@Z 
01:000411FC ?setSelectionStart@sciLexer_api@@SAXPBUscintillaObject@@H@Z 
01:00041218 ?setSelectionEnd@sciLexer_api@@SAXPBUscintillaObject@@H@Z 
01:00041234 ?_getSelectionStart@sciLexer_api@@SAXPBUscintillaObject@@PAH@Z 
01:00041250 ?_getSelectionEnd@sciLexer_api@@SAXPBUscintillaObject@@PAH@Z 
01:0004126C ?setEmptySelection@sciLexer_api@@SAXPBUscintillaObject@@H@Z 
01:00041288 ?selectAll@sciLexer_api@@SAXPBUscintillaObject@@@Z 
01:0004129C ?_lineFromPosition@sciLexer_api@@SAXPBUscintillaObject@@HPAH@Z 
01:000412C4 ?_positionFromLine@sciLexer_api@@SAXPBUscintillaObject@@HPAH@Z 
01:000412EC ?_getLineEndPosition@sciLexer_api@@SAXPBUscintillaObject@@HPAH@Z 
01:00041314 ?_lineLength@sciLexer_api@@SAXPBUscintillaObject@@HPAH@Z 
01:0004133C ?_getSelText@sciLexer_api@@SAXPBUscintillaObject@@PADPAH@Z 
01:00041368 ?_getCurLine@sciLexer_api@@SAXPBUscintillaObject@@HPADPAH@Z 
01:0004139C ?_selectionIsRectangle@sciLexer_api@@SAXPBUscintillaObject@@AAUbooleanInt@@@Z 
01:000413B8 ?setSelectionMode@sciLexer_api@@SAXPBUscintillaObject@@H@Z 
01:000413D4 ?_getSelectionMode@sciLexer_api@@SAXPBUscintillaObject@@PAH@Z 
01:000413F0 ?_getLineSelStartPosition@sciLexer_api@@SAXPBUscintillaObject@@HPAH@Z 
01:00041418 ?_getLineSelEndPosition@sciLexer_api@@SAXPBUscintillaObject@@HPAH@Z 
01:00041440 ?moveCaretInsideView@sciLexer_api@@SAXPBUscintillaObject@@@Z 
01:00041454 ?_wordEndPosition@sciLexer_api@@SAXPBUscintillaObject@@HPBUbooleanInt@@PAH@Z 
01:00041488 ?_wordStartPosition@sciLexer_api@@SAXPBUscintillaObject@@HPBUbooleanInt@@PAH@Z 
01:000414BC ?_positionBefore@sciLexer_api@@SAXPBUscintillaObject@@HPAH@Z 
01:000414E4 ?_positionAfter@sciLexer_api@@SAXPBUscintillaObject@@HPAH@Z 
01:0004150C ?_countCharacters@sciLexer_api@@SAXPBUscintillaObject@@HHAAUcharCount@@@Z 
01:0004154C ?_textWidth@sciLexer_api@@SAXPBUscintillaObject@@PBUsci_style@@PADPAH@Z 
01:00041580 ?_textHeight@sciLexer_api@@SAXPBUscintillaObject@@HPAH@Z 
01:000415A8 ?_getColumn@sciLexer_api@@SAXPBUscintillaObject@@HPAH@Z 
01:000415D0 ?_findColumn@sciLexer_api@@SAXPBUscintillaObject@@HHPAH@Z 
01:00041604 ?_positionFromPoint@sciLexer_api@@SAXPBUscintillaObject@@HHPAH@Z 
01:00041638 ?_positionFromPointClose@sciLexer_api@@SAXPBUscintillaObject@@HHPAH@Z 
01:0004166C ?_charPositionFromPoint@sciLexer_api@@SAXPBUscintillaObject@@HHPAH@Z 
01:000416A0 ?_charPositionFromPointClose@sciLexer_api@@SAXPBUscintillaObject@@HHPAH@Z 
01:000416D4 ?_pointxFromPosition@sciLexer_api@@SAXPBUscintillaObject@@HPAH@Z 
01:00041700 ?_pointyFromPosition@sciLexer_api@@SAXPBUscintillaObject@@HPAH@Z 
01:0004172C ?hideSelection@sciLexer_api@@SAXPBUscintillaObject@@PBUbooleanInt@@@Z 
01:00041748 ?chooseCaretX@sciLexer_api@@SAXPBUscintillaObject@@@Z 
01:0004175C ?moveSelectedLinesUp@sciLexer_api@@SAXPBUscintillaObject@@@Z 
01:00041770 ?moveSelectedLinesDown@sciLexer_api@@SAXPBUscintillaObject@@@Z 
01:00041784 ?setMultipleSelection@sciLexer_api@@SAXPBUscintillaObject@@PBUbooleanInt@@@Z 
01:000417A0 ?_getMultipleSelection@sciLexer_api@@SAXPBUscintillaObject@@AAUbooleanInt@@@Z 
01:000417BC ?setAdditionalSelectionTyping@sciLexer_api@@SAXPBUscintillaObject@@PBUbooleanInt@@@Z 
01:000417D8 ?_getAdditionalSelectionTyping@sciLexer_api@@SAXPBUscintillaObject@@AAUbooleanInt@@@Z 
01:000417F4 ?setMultiPaste@sciLexer_api@@SAXPBUscintillaObject@@H@Z 
01:00041810 ?_getMultiPaste@sciLexer_api@@SAXPBUscintillaObject@@PAH@Z 
01:0004182C ?setVirtualSpaceOptions@sciLexer_api@@SAXPBUscintillaObject@@H@Z 
01:00041848 ?_getVirtualSpaceOptions@sciLexer_api@@SAXPBUscintillaObject@@PAH@Z 
--- From 'Obj\sciLexer_api.20CB027C.obj'
01:00041864 ?setRectangularSelectionModifier@sciLexer_api@@SAXPBUscintillaObject@@H@Z  (Idle)
01:00041880 ?_getRectangularSelectionModifier@sciLexer_api@@SAXPBUscintillaObject@@PAH@Z  (Idle)
--- From 'Obj\sciLexer.ADC40A53.obj'
01:0004189C ?_getSelections@sciLexer_api@@SAXPBUscintillaObject@@PAH@Z 
01:000418B8 ?clearSelections@sciLexer_api@@SAXPBUscintillaObject@@@Z 
01:000418CC ?setSelection@sciLexer_api@@SAXPBUscintillaObject@@HH@Z 
01:000418F4 ?addSelection@sciLexer_api@@SAXPBUscintillaObject@@HH@Z 
01:0004191C ?setMainSelection@sciLexer_api@@SAXPBUscintillaObject@@H@Z 
01:00041938 ?_getMainSelection@sciLexer_api@@SAXPBUscintillaObject@@PAH@Z 
01:00041954 ?setSelectionNCaret@sciLexer_api@@SAXPBUscintillaObject@@HH@Z 
01:0004197C ?_getSelectionNCaret@sciLexer_api@@SAXPBUscintillaObject@@HPAH@Z 
01:000419A4 ?setSelectionNCaretVirtualSpace@sciLexer_api@@SAXPBUscintillaObject@@HH@Z 
01:000419CC ?_getSelectionNCaretVirtualSpace@sciLexer_api@@SAXPBUscintillaObject@@HPAH@Z 
01:000419F4 ?setSelectionNAnchor@sciLexer_api@@SAXPBUscintillaObject@@HH@Z 
01:00041A1C ?_getSelectionNAnchor@sciLexer_api@@SAXPBUscintillaObject@@HPAH@Z 
01:00041A44 ?setSelectionNAnchorVirtualSpace@sciLexer_api@@SAXPBUscintillaObject@@HH@Z 
01:00041A6C ?_getSelectionNAnchorVirtualSpace@sciLexer_api@@SAXPBUscintillaObject@@HPAH@Z 
01:00041A94 ?setSelectionNStart@sciLexer_api@@SAXPBUscintillaObject@@HH@Z 
01:00041ABC ?_getSelectionNStart@sciLexer_api@@SAXPBUscintillaObject@@HPAH@Z 
01:00041AE4 ?setSelectionNEnd@sciLexer_api@@SAXPBUscintillaObject@@HH@Z 
01:00041B0C ?_getSelectionNEnd@sciLexer_api@@SAXPBUscintillaObject@@HPAH@Z 
01:00041B34 ?setRectangularSelectionCaret@sciLexer_api@@SAXPBUscintillaObject@@H@Z 
01:00041B50 ?_getRectangularSelectionCaret@sciLexer_api@@SAXPBUscintillaObject@@PAH@Z 
01:00041B6C ?setRectangularSelectionCaretVirtualSpace@sciLexer_api@@SAXPBUscintillaObject@@H@Z 
01:00041B88 ?_getRectangularSelectionCaretVirtualSpace@sciLexer_api@@SAXPBUscintillaObject@@PAH@Z 
01:00041BA4 ?setRectangularSelectionAnchor@sciLexer_api@@SAXPBUscintillaObject@@H@Z 
01:00041BC0 ?_getRectangularSelectionAnchor@sciLexer_api@@SAXPBUscintillaObject@@PAH@Z 
01:00041BDC ?setRectangularSelectionAnchorVirtualSpace@sciLexer_api@@SAXPBUscintillaObject@@H@Z 
01:00041BF8 ?_getRectangularSelectionAnchorVirtualSpace@sciLexer_api@@SAXPBUscintillaObject@@PAH@Z 
01:00041C14 ?setAdditionalSelAlpha@sciLexer_api@@SAXPBUscintillaObject@@H@Z 
01:00041C30 ?_getAdditionalSelAlpha@sciLexer_api@@SAXPBUscintillaObject@@PAH@Z 
01:00041C4C ?setAdditionalSelFore@sciLexer_api@@SAXPBUscintillaObject@@H@Z 
01:00041C68 ?setAdditionalSelBack@sciLexer_api@@SAXPBUscintillaObject@@H@Z 
01:00041C84 ?setAdditionalCaretFore@sciLexer_api@@SAXPBUscintillaObject@@H@Z 
01:00041CA0 ?_getAdditionalCaretFore@sciLexer_api@@SAXPBUscintillaObject@@PAH@Z 
01:00041CBC ?setAdditionalCaretsBlink@sciLexer_api@@SAXPBUscintillaObject@@PBUbooleanInt@@@Z 
01:00041CD8 ?_getAdditionalCaretsBlink@sciLexer_api@@SAXPBUscintillaObject@@AAUbooleanInt@@@Z 
01:00041CF4 ?setAdditionalCaretsVisible@sciLexer_api@@SAXPBUscintillaObject@@PBUbooleanInt@@@Z 
01:00041D10 ?_getAdditionalCaretsVisible@sciLexer_api@@SAXPBUscintillaObject@@AAUbooleanInt@@@Z 
01:00041D2C ?swapmainAnchorCaret@sciLexer_api@@SAXPBUscintillaObject@@@Z 
01:00041D40 ?rotateSelection@sciLexer_api@@SAXPBUscintillaObject@@@Z 
01:00041D54 ?lineScroll@sciLexer_api@@SAXPBUscintillaObject@@HH@Z 
01:00041D7C ?scrollCaret@sciLexer_api@@SAXPBUscintillaObject@@@Z 
01:00041D90 ?setXCaretPolicy@sciLexer_api@@SAXPBUscintillaObject@@HH@Z 
01:00041DB8 ?setYCaretPolicy@sciLexer_api@@SAXPBUscintillaObject@@HH@Z 
01:00041DE0 ?setVisiblePolicy@sciLexer_api@@SAXPBUscintillaObject@@HH@Z 
01:00041E08 ?setHScrollbar@sciLexer_api@@SAXPBUscintillaObject@@PBUbooleanInt@@@Z 
01:00041E24 ?_getHScrollbar@sciLexer_api@@SAXPBUscintillaObject@@AAUbooleanInt@@@Z 
01:00041E40 ?setVScrollbar@sciLexer_api@@SAXPBUscintillaObject@@PBUbooleanInt@@@Z 
01:00041E5C ?_getVScrollbar@sciLexer_api@@SAXPBUscintillaObject@@AAUbooleanInt@@@Z 
01:00041E78 ?setXOffset@sciLexer_api@@SAXPBUscintillaObject@@H@Z 
01:00041E94 ?_getXOffset@sciLexer_api@@SAXPBUscintillaObject@@PAH@Z 
01:00041EB0 ?setScrollWidth@sciLexer_api@@SAXPBUscintillaObject@@H@Z 
01:00041ECC ?_getScrollWidth@sciLexer_api@@SAXPBUscintillaObject@@PAH@Z 
01:00041EE8 ?setScrollWidthTracking@sciLexer_api@@SAXPBUscintillaObject@@PBUbooleanInt@@@Z 
01:00041F04 ?_getScrollWidthTracking@sciLexer_api@@SAXPBUscintillaObject@@AAUbooleanInt@@@Z 
01:00041F20 ?setEndatLastLine@sciLexer_api@@SAXPBUscintillaObject@@PBUbooleanInt@@@Z 
01:00041F3C ?_getEndatLastLine@sciLexer_api@@SAXPBUscintillaObject@@AAUbooleanInt@@@Z 
01:00041F58 ?setViewWs@sciLexer_api@@SAXPBUscintillaObject@@H@Z 
01:00041F74 ?_getViewWs@sciLexer_api@@SAXPBUscintillaObject@@PAH@Z 
01:00041F90 ?setWhiteSpaceFore@sciLexer_api@@SAXPBUscintillaObject@@PBUbooleanInt@@H@Z 
01:00041FB8 ?setWhiteSpaceBack@sciLexer_api@@SAXPBUscintillaObject@@PBUbooleanInt@@H@Z 
01:00041FE0 ?setWhiteSpaceSize@sciLexer_api@@SAXPBUscintillaObject@@H@Z 
01:00041FFC ?_getWhiteSpaceSize@sciLexer_api@@SAXPBUscintillaObject@@PAH@Z 
01:00042018 ?setExtraAscent@sciLexer_api@@SAXPBUscintillaObject@@H@Z 
01:00042034 ?_getExtraAscent@sciLexer_api@@SAXPBUscintillaObject@@PAH@Z 
01:00042050 ?setExtraDescent@sciLexer_api@@SAXPBUscintillaObject@@H@Z 
01:0004206C ?_getExtraDescent@sciLexer_api@@SAXPBUscintillaObject@@PAH@Z 
01:00042088 ?setCursor@sciLexer_api@@SAXPBUscintillaObject@@H@Z 
01:000420A4 ?_getCursor@sciLexer_api@@SAXPBUscintillaObject@@PAH@Z 
01:000420C0 ?setMouseDownCaptures@sciLexer_api@@SAXPBUscintillaObject@@PBUbooleanInt@@@Z 
01:000420DC ?_getMouseDownCaptures@sciLexer_api@@SAXPBUscintillaObject@@AAUbooleanInt@@@Z 
01:000420F8 ?setEolMode@sciLexer_api@@SAXPBUscintillaObject@@H@Z 
01:00042114 ?_getEolMode@sciLexer_api@@SAXPBUscintillaObject@@PAH@Z 
01:00042130 ?convertEols@sciLexer_api@@SAXPBUscintillaObject@@H@Z 
01:0004214C ?setViewEol@sciLexer_api@@SAXPBUscintillaObject@@PBUbooleanInt@@@Z 
01:00042168 ?_getViewEol@sciLexer_api@@SAXPBUscintillaObject@@AAUbooleanInt@@@Z 
01:00042184 ?_getEndStyled@sciLexer_api@@SAXPBUscintillaObject@@PAH@Z 
01:000421A0 ?startStyling@sciLexer_api@@SAXPBUscintillaObject@@HH@Z 
01:000421C8 ?setStyling@sciLexer_api@@SAXPBUscintillaObject@@HH@Z 
01:000421F0 ?setStylingeX@sciLexer_api@@SAXPBUscintillaObject@@HPAD@Z 
01:00042218 ?setLineState@sciLexer_api@@SAXPBUscintillaObject@@HH@Z 
01:00042240 ?_getLineState@sciLexer_api@@SAXPBUscintillaObject@@HPAH@Z 
01:00042268 ?_getMaxLineState@sciLexer_api@@SAXPBUscintillaObject@@PAH@Z 
01:00042284 ?styleResetDefault@sciLexer_api@@SAXPBUscintillaObject@@@Z 
01:00042298 ?styleClearAll@sciLexer_api@@SAXPBUscintillaObject@@@Z 
01:000422AC ?styleSetFont@sciLexer_api@@SAXPBUscintillaObject@@PBUsci_style@@PAD@Z 
01:000422D8 ?styleGetFont@sciLexer_api@@SAXPBUscintillaObject@@PBUsci_style@@PAD@Z 
01:00042304 ?styleSetSize@sciLexer_api@@SAXPBUscintillaObject@@PBUsci_style@@H@Z 
01:00042330 ?_styleGetSize@sciLexer_api@@SAXPBUscintillaObject@@PBUsci_style@@PAH@Z 
01:0004235C ?styleSetSizeFractional@sciLexer_api@@SAXPBUscintillaObject@@PBUsci_style@@H@Z 
01:00042388 ?_styleGetSizeFractional@sciLexer_api@@SAXPBUscintillaObject@@PBUsci_style@@PAH@Z 
01:000423B4 ?styleSetBold@sciLexer_api@@SAXPBUscintillaObject@@PBUsci_style@@PBUbooleanInt@@@Z 
01:000423E0 ?_styleGetBold@sciLexer_api@@SAXPBUscintillaObject@@PBUsci_style@@AAUbooleanInt@@@Z 
01:0004240C ?styleSetWeight@sciLexer_api@@SAXPBUscintillaObject@@PBUsci_style@@H@Z 
01:00042438 ?_styleGetWeight@sciLexer_api@@SAXPBUscintillaObject@@PBUsci_style@@PAH@Z 
01:00042464 ?styleSetItalic@sciLexer_api@@SAXPBUscintillaObject@@PBUsci_style@@PBUbooleanInt@@@Z 
01:00042490 ?_styleGetItalic@sciLexer_api@@SAXPBUscintillaObject@@PBUsci_style@@AAUbooleanInt@@@Z 
01:000424BC ?styleSetUnderline@sciLexer_api@@SAXPBUscintillaObject@@PBUsci_style@@PBUbooleanInt@@@Z 
01:000424E8 ?_styleGetUnderline@sciLexer_api@@SAXPBUscintillaObject@@PBUsci_style@@AAUbooleanInt@@@Z 
01:00042514 ?styleSetFore@sciLexer_api@@SAXPBUscintillaObject@@PBUsci_style@@H@Z 
01:00042540 ?_styleGetFore@sciLexer_api@@SAXPBUscintillaObject@@PBUsci_style@@PAH@Z 
01:0004256C ?styleSetBack@sciLexer_api@@SAXPBUscintillaObject@@PBUsci_style@@H@Z 
01:00042598 ?_styleGetBack@sciLexer_api@@SAXPBUscintillaObject@@PBUsci_style@@PAH@Z 
01:000425C4 ?styleSetEolFilled@sciLexer_api@@SAXPBUscintillaObject@@PBUsci_style@@PBUbooleanInt@@@Z 
01:000425F0 ?_styleGetEolFilled@sciLexer_api@@SAXPBUscintillaObject@@PBUsci_style@@AAUbooleanInt@@@Z 
--- From 'Obj\sciLexer_api.20CB027C.obj'
01:0004261C ?styleSetCharacterSet@sciLexer_api@@SAXPBUscintillaObject@@PBUsci_style@@H@Z  (Idle)
01:00042648 ?_styleGetCharacterSet@sciLexer_api@@SAXPBUscintillaObject@@PBUsci_style@@PAH@Z  (Idle)
--- From 'Obj\sciLexer.ADC40A53.obj'
01:00042674 ?styleSetCase@sciLexer_api@@SAXPBUscintillaObject@@PBUsci_style@@H@Z 
01:000426A0 ?_styleGetCase@sciLexer_api@@SAXPBUscintillaObject@@PBUsci_style@@PAH@Z 
01:000426CC ?styleSetVisible@sciLexer_api@@SAXPBUscintillaObject@@PBUsci_style@@PBUbooleanInt@@@Z 
01:000426F8 ?_styleGetVisible@sciLexer_api@@SAXPBUscintillaObject@@PBUsci_style@@AAUbooleanInt@@@Z 
01:00042724 ?styleSetChangeable@sciLexer_api@@SAXPBUscintillaObject@@PBUsci_style@@PBUbooleanInt@@@Z 
01:00042750 ?_styleGetChangeable@sciLexer_api@@SAXPBUscintillaObject@@PBUsci_style@@AAUbooleanInt@@@Z 
01:0004277C ?styleSetHotSpot@sciLexer_api@@SAXPBUscintillaObject@@PBUsci_style@@PBUbooleanInt@@@Z 
01:000427A8 ?_styleGetHotSpot@sciLexer_api@@SAXPBUscintillaObject@@PBUsci_style@@AAUbooleanInt@@@Z 
01:000427D4 ?setSelFore@sciLexer_api@@SAXPBUscintillaObject@@PBUbooleanInt@@H@Z 
01:000427FC ?setSelBack@sciLexer_api@@SAXPBUscintillaObject@@PBUbooleanInt@@H@Z 
01:00042824 ?setSelAlpha@sciLexer_api@@SAXPBUscintillaObject@@H@Z 
01:00042840 ?_getSelAlpha@sciLexer_api@@SAXPBUscintillaObject@@PAH@Z 
01:0004285C ?setSelEolFilled@sciLexer_api@@SAXPBUscintillaObject@@PBUbooleanInt@@@Z 
01:00042878 ?_getSelEolFilled@sciLexer_api@@SAXPBUscintillaObject@@AAUbooleanInt@@@Z 
01:00042894 ?setCaretFore@sciLexer_api@@SAXPBUscintillaObject@@H@Z 
01:000428B0 ?_getCaretFore@sciLexer_api@@SAXPBUscintillaObject@@PAH@Z 
01:000428CC ?setCaretLineVisible@sciLexer_api@@SAXPBUscintillaObject@@PBUbooleanInt@@@Z 
01:000428E8 ?_getCaretLineVisible@sciLexer_api@@SAXPBUscintillaObject@@AAUbooleanInt@@@Z 
01:00042904 ?setCaretLineBack@sciLexer_api@@SAXPBUscintillaObject@@H@Z 
01:00042920 ?_getCaretLineBack@sciLexer_api@@SAXPBUscintillaObject@@PAH@Z 
01:0004293C ?setCaretLineBackAlpha@sciLexer_api@@SAXPBUscintillaObject@@H@Z 
01:00042958 ?_getCaretLineBackAlpha@sciLexer_api@@SAXPBUscintillaObject@@PAH@Z 
01:00042974 ?setCaretPeriod@sciLexer_api@@SAXPBUscintillaObject@@H@Z 
01:00042990 ?_getCaretPeriod@sciLexer_api@@SAXPBUscintillaObject@@PAH@Z 
01:000429AC ?setCaretStyle@sciLexer_api@@SAXPBUscintillaObject@@H@Z 
01:000429C8 ?_getCaretStyle@sciLexer_api@@SAXPBUscintillaObject@@PAH@Z 
01:000429E4 ?setCaretWidth@sciLexer_api@@SAXPBUscintillaObject@@H@Z 
01:00042A00 ?_getCaretWidth@sciLexer_api@@SAXPBUscintillaObject@@PAH@Z 
01:00042A1C ?setHotSpotActiveFore@sciLexer_api@@SAXPBUscintillaObject@@PBUbooleanInt@@H@Z 
01:00042A44 ?_getHotSpotActiveFore@sciLexer_api@@SAXPBUscintillaObject@@PAH@Z 
01:00042A60 ?setHotSpotActiveBack@sciLexer_api@@SAXPBUscintillaObject@@PBUbooleanInt@@H@Z 
01:00042A88 ?_getHotSpotActiveBack@sciLexer_api@@SAXPBUscintillaObject@@PAH@Z 
01:00042AA4 ?setHotSpotActiveUnderline@sciLexer_api@@SAXPBUscintillaObject@@PBUbooleanInt@@@Z 
01:00042AC0 ?_getHotSpotActiveUnderline@sciLexer_api@@SAXPBUscintillaObject@@AAUbooleanInt@@@Z 
01:00042ADC ?setHotSpotSingleLine@sciLexer_api@@SAXPBUscintillaObject@@PBUbooleanInt@@@Z 
01:00042AF8 ?_getHotSpotSingleLine@sciLexer_api@@SAXPBUscintillaObject@@AAUbooleanInt@@@Z 
01:00042B14 ?setControlCharSymbol@sciLexer_api@@SAXPBUscintillaObject@@H@Z 
01:00042B30 ?_getControlCharSymbol@sciLexer_api@@SAXPBUscintillaObject@@PAH@Z 
01:00042B4C ?setCaretSticky@sciLexer_api@@SAXPBUscintillaObject@@H@Z 
01:00042B68 ?_getCaretSticky@sciLexer_api@@SAXPBUscintillaObject@@PAH@Z 
01:00042B84 ?toggleCaretSticky@sciLexer_api@@SAXPBUscintillaObject@@@Z 
01:00042B98 ?setMarginTypeN@sciLexer_api@@SAXPBUscintillaObject@@HH@Z 
01:00042BC0 ?_getMarginTypeN@sciLexer_api@@SAXPBUscintillaObject@@HPAH@Z 
01:00042BE8 ?setMarginWidthN@sciLexer_api@@SAXPBUscintillaObject@@HH@Z 
01:00042C10 ?_getMarginWidthN@sciLexer_api@@SAXPBUscintillaObject@@HPAH@Z 
01:00042C38 ?setMarginMaskN@sciLexer_api@@SAXPBUscintillaObject@@HI@Z 
01:00042C60 ?_getMarginMaskN@sciLexer_api@@SAXPBUscintillaObject@@HPAI@Z 
01:00042C88 ?setMarginSensitiveN@sciLexer_api@@SAXPBUscintillaObject@@HPBUbooleanInt@@@Z 
01:00042CB0 ?_getMarginSensitiveN@sciLexer_api@@SAXPBUscintillaObject@@HAAUbooleanInt@@@Z 
01:00042CD8 ?setMarginCursorN@sciLexer_api@@SAXPBUscintillaObject@@HH@Z 
01:00042D00 ?_getMarginCursorN@sciLexer_api@@SAXPBUscintillaObject@@HPAH@Z 
01:00042D28 ?setMarginLeft@sciLexer_api@@SAXPBUscintillaObject@@H@Z 
01:00042D48 ?_getMarginLeft@sciLexer_api@@SAXPBUscintillaObject@@PAH@Z 
01:00042D64 ?setMarginRight@sciLexer_api@@SAXPBUscintillaObject@@H@Z 
01:00042D84 ?_getMarginRight@sciLexer_api@@SAXPBUscintillaObject@@PAH@Z 
01:00042DA0 ?setFoldMarginColor@sciLexer_api@@SAXPBUscintillaObject@@PBUbooleanInt@@H@Z 
01:00042DC8 ?setFoldMarginHiColor@sciLexer_api@@SAXPBUscintillaObject@@PBUbooleanInt@@H@Z 
01:00042DF0 ?marginSetText@sciLexer_api@@SAXPBUscintillaObject@@HPAD@Z 
01:00042E18 ?marginGetText@sciLexer_api@@SAXPBUscintillaObject@@HPAD@Z 
01:00042E40 ?marginSetStyle@sciLexer_api@@SAXPBUscintillaObject@@HH@Z 
01:00042E68 ?_marginGetStyle@sciLexer_api@@SAXPBUscintillaObject@@HPAH@Z 
01:00042E90 ?marginSetStyles@sciLexer_api@@SAXPBUscintillaObject@@HPAD@Z 
01:00042EB8 ?marginGetStyles@sciLexer_api@@SAXPBUscintillaObject@@HPAD@Z 
01:00042EE0 ?marginTextClearAll@sciLexer_api@@SAXPBUscintillaObject@@@Z 
01:00042EF4 ?marginSetStyleOffset@sciLexer_api@@SAXPBUscintillaObject@@H@Z 
01:00042F10 ?_marginGetStyleOffset@sciLexer_api@@SAXPBUscintillaObject@@PAH@Z 
--- From 'Obj\sciLexer_api.20CB027C.obj'
01:00042F2C ?setMarginOptions@sciLexer_api@@SAXPBUscintillaObject@@H@Z  (Idle)
01:00042F48 ?_getMarginOptions@sciLexer_api@@SAXPBUscintillaObject@@PAH@Z  (Idle)
--- From 'Obj\sciLexer.ADC40A53.obj'
01:00042F64 ?annotationSetText@sciLexer_api@@SAXPBUscintillaObject@@HPAD@Z 
01:00042F8C ?annotationGetText@sciLexer_api@@SAXPBUscintillaObject@@HPAD@Z 
01:00042FB4 ?annotationSetStyle@sciLexer_api@@SAXPBUscintillaObject@@HH@Z 
01:00042FDC ?_annotationGetStyle@sciLexer_api@@SAXPBUscintillaObject@@HPAH@Z 
01:00043004 ?annotationSetStyles@sciLexer_api@@SAXPBUscintillaObject@@HPAD@Z 
01:0004302C ?annotationGetStyles@sciLexer_api@@SAXPBUscintillaObject@@HPAD@Z 
01:00043054 ?_annotationGetLines@sciLexer_api@@SAXPBUscintillaObject@@HPAH@Z 
01:0004307C ?annotationClearAll@sciLexer_api@@SAXPBUscintillaObject@@@Z 
01:00043090 ?annotationSetVisible@sciLexer_api@@SAXPBUscintillaObject@@H@Z 
01:000430AC ?_annotationGetVisible@sciLexer_api@@SAXPBUscintillaObject@@PAH@Z 
01:000430C8 ?annotationSetStyleOffset@sciLexer_api@@SAXPBUscintillaObject@@H@Z 
01:000430E4 ?_annotationGetStyleOffset@sciLexer_api@@SAXPBUscintillaObject@@PAH@Z 
01:00043100 ?setBufferedDraw@sciLexer_api@@SAXPBUscintillaObject@@PBUbooleanInt@@@Z 
01:0004311C ?_getBufferedDraw@sciLexer_api@@SAXPBUscintillaObject@@AAUbooleanInt@@@Z 
01:00043138 ?setTwoPhaseDraw@sciLexer_api@@SAXPBUscintillaObject@@PBUbooleanInt@@@Z 
01:00043154 ?_getTwoPhaseDraw@sciLexer_api@@SAXPBUscintillaObject@@AAUbooleanInt@@@Z 
01:00043170 ?setTechnology@sciLexer_api@@SAXPBUscintillaObject@@H@Z 
01:0004318C ?_getTechnology@sciLexer_api@@SAXPBUscintillaObject@@PAH@Z 
01:000431A8 ?setFontQuality@sciLexer_api@@SAXPBUscintillaObject@@H@Z 
01:000431C4 ?_getFontQuality@sciLexer_api@@SAXPBUscintillaObject@@PAH@Z 
01:000431E0 ?setCodepage@sciLexer_api@@SAXPBUscintillaObject@@PBUcodePageId@@@Z 
01:000431FC ?_getCodepage@sciLexer_api@@SAXPBUscintillaObject@@AAUcodePageId@@@Z 
01:00043218 ?setKeysUnicode@sciLexer_api@@SAXPBUscintillaObject@@PBUbooleanInt@@@Z 
01:00043234 ?_getKeysUnicode@sciLexer_api@@SAXPBUscintillaObject@@AAUbooleanInt@@@Z 
01:00043250 ?setWordChars@sciLexer_api@@SAXPBUscintillaObject@@PAD@Z 
01:00043270 ?setWhiteSpaceChars@sciLexer_api@@SAXPBUscintillaObject@@PAD@Z 
01:00043290 ?setCharsDefault@sciLexer_api@@SAXPBUscintillaObject@@@Z 
01:000432A4 ?grabFocus@sciLexer_api@@SAXPBUscintillaObject@@@Z 
01:000432B8 ?setFocus@sciLexer_api@@SAXPBUscintillaObject@@PBUbooleanInt@@@Z 
01:000432D4 ?_getFocus@sciLexer_api@@SAXPBUscintillaObject@@AAUbooleanInt@@@Z 
01:000432F0 ?braceHighLight@sciLexer_api@@SAXPBUscintillaObject@@HH@Z 
01:00043318 ?braceBadLight@sciLexer_api@@SAXPBUscintillaObject@@H@Z 
01:00043334 ?braceHighlightIndicator@sciLexer_api@@SAXPBUscintillaObject@@PBUbooleanInt@@H@Z 
01:0004335C ?braceBadlightIndicator@sciLexer_api@@SAXPBUscintillaObject@@PBUbooleanInt@@H@Z 
01:00043384 ?_braceMatch@sciLexer_api@@SAXPBUscintillaObject@@HHPAH@Z 
01:000433B8 ?setTabWidth@sciLexer_api@@SAXPBUscintillaObject@@PBUcharCount@@@Z 
01:000433D4 ?_getTabWidth@sciLexer_api@@SAXPBUscintillaObject@@AAUcharCount@@@Z 
01:0004340C ?setUseTabs@sciLexer_api@@SAXPBUscintillaObject@@PBUbooleanInt@@@Z 
01:00043428 ?_getUseTabs@sciLexer_api@@SAXPBUscintillaObject@@AAUbooleanInt@@@Z 
01:00043444 ?setIndent@sciLexer_api@@SAXPBUscintillaObject@@H@Z 
01:00043460 ?_getIndent@sciLexer_api@@SAXPBUscintillaObject@@PAH@Z 
01:0004347C ?setTabIndents@sciLexer_api@@SAXPBUscintillaObject@@PBUbooleanInt@@@Z 
01:00043498 ?_getTabIndents@sciLexer_api@@SAXPBUscintillaObject@@AAUbooleanInt@@@Z 
01:000434B4 ?setBackSpaceUnIndents@sciLexer_api@@SAXPBUscintillaObject@@PBUbooleanInt@@@Z 
01:000434D0 ?_getBackSpaceUnIndents@sciLexer_api@@SAXPBUscintillaObject@@AAUbooleanInt@@@Z 
01:000434EC ?setLineIndentation@sciLexer_api@@SAXPBUscintillaObject@@HPBUlinePosition@@@Z 
01:00043514 ?_getLineIndentation@sciLexer_api@@SAXPBUscintillaObject@@HAAUlinePosition@@@Z 
01:0004353C ?_getLineIndentPosition@sciLexer_api@@SAXPBUscintillaObject@@HPAH@Z 
01:00043564 ?setIndentationGuides@sciLexer_api@@SAXPBUscintillaObject@@H@Z 
01:00043580 ?_getIndentationGuides@sciLexer_api@@SAXPBUscintillaObject@@PAH@Z 
01:0004359C ?setHighLightGuide@sciLexer_api@@SAXPBUscintillaObject@@H@Z 
01:000435B8 ?_getHighLightGuide@sciLexer_api@@SAXPBUscintillaObject@@PAH@Z 
01:000435D4 ?markerDefine@sciLexer_api@@SAXPBUscintillaObject@@HH@Z 
01:000435FC ?markerDefinePixmap@sciLexer_api@@SAXPBUscintillaObject@@HPAD@Z 
01:00043624 ?rgbaImageSetWidth@sciLexer_api@@SAXPBUscintillaObject@@H@Z 
01:00043640 ?rgbaImageSetHeight@sciLexer_api@@SAXPBUscintillaObject@@H@Z 
01:0004365C ?markerDefineRgbaImage@sciLexer_api@@SAXPBUscintillaObject@@HPAD@Z 
01:00043684 ?_markerSymbolDefined@sciLexer_api@@SAXPBUscintillaObject@@HPAH@Z 
01:000436AC ?markerSetFore@sciLexer_api@@SAXPBUscintillaObject@@HH@Z 
01:000436D4 ?markerSetBack@sciLexer_api@@SAXPBUscintillaObject@@HH@Z 
01:000436FC ?markerSetBackSelected@sciLexer_api@@SAXPBUscintillaObject@@HH@Z 
01:00043724 ?markerEnableHighlight@sciLexer_api@@SAXPBUscintillaObject@@PBUbooleanInt@@@Z 
01:00043740 ?markerSetAlpha@sciLexer_api@@SAXPBUscintillaObject@@HH@Z 
01:00043768 ?_markerAdd@sciLexer_api@@SAXPBUscintillaObject@@HHPAH@Z 
01:0004379C ?markerAddSet@sciLexer_api@@SAXPBUscintillaObject@@HH@Z 
01:000437C4 ?markerDelete@sciLexer_api@@SAXPBUscintillaObject@@HH@Z 
01:000437EC ?markerDeleteAll@sciLexer_api@@SAXPBUscintillaObject@@H@Z 
01:00043808 ?_markerGet@sciLexer_api@@SAXPBUscintillaObject@@HPAH@Z 
01:00043830 ?_markerNext@sciLexer_api@@SAXPBUscintillaObject@@HHPAH@Z 
01:00043864 ?_markerPrevious@sciLexer_api@@SAXPBUscintillaObject@@HHPAH@Z 
01:00043898 ?_markerLineFromHandle@sciLexer_api@@SAXPBUscintillaObject@@HPAH@Z 
01:000438C0 ?markerDeleteHandle@sciLexer_api@@SAXPBUscintillaObject@@H@Z 
01:000438DC ?indicSetStyle@sciLexer_api@@SAXPBUscintillaObject@@HH@Z 
01:00043904 ?_indicGetStyle@sciLexer_api@@SAXPBUscintillaObject@@HPAH@Z 
01:0004392C ?indicSetFore@sciLexer_api@@SAXPBUscintillaObject@@HH@Z 
01:00043954 ?_indicGetFore@sciLexer_api@@SAXPBUscintillaObject@@HPAH@Z 
01:0004397C ?indicSetAlpha@sciLexer_api@@SAXPBUscintillaObject@@HH@Z 
01:000439A4 ?_indicGetAlpha@sciLexer_api@@SAXPBUscintillaObject@@HPAH@Z 
01:000439CC ?indicSetOutlineAlpha@sciLexer_api@@SAXPBUscintillaObject@@HH@Z 
01:000439F4 ?_indicGetOutlineAlpha@sciLexer_api@@SAXPBUscintillaObject@@HPAH@Z 
01:00043A1C ?indicSetUnder@sciLexer_api@@SAXPBUscintillaObject@@HPBUbooleanInt@@@Z 
01:00043A44 ?indicGetUnder@sciLexer_api@@SAXPBUscintillaObject@@H@Z 
01:00043A60 ?setIndicatorCurrent@sciLexer_api@@SAXPBUscintillaObject@@H@Z 
01:00043A7C ?_getIndicatorCurrent@sciLexer_api@@SAXPBUscintillaObject@@PAH@Z 
01:00043A98 ?setIndicatorValue@sciLexer_api@@SAXPBUscintillaObject@@H@Z 
01:00043AB4 ?_getIndicatorValue@sciLexer_api@@SAXPBUscintillaObject@@PAH@Z 
01:00043AD0 ?indicatorFillRange@sciLexer_api@@SAXPBUscintillaObject@@HH@Z 
01:00043AF8 ?indicatorClearRange@sciLexer_api@@SAXPBUscintillaObject@@HH@Z 
01:00043B20 ?_indicatorAllOnFor@sciLexer_api@@SAXPBUscintillaObject@@HPAI@Z 
01:00043B48 ?indicatorValueAt@sciLexer_api@@SAXPBUscintillaObject@@HH@Z 
01:00043B70 ?_indicatorStart@sciLexer_api@@SAXPBUscintillaObject@@HHPAH@Z 
01:00043BA4 ?_indicatorEnd@sciLexer_api@@SAXPBUscintillaObject@@HHPAH@Z 
01:00043BD8 ?autoCShow@sciLexer_api@@SAXPBUscintillaObject@@HPAD@Z 
01:00043C00 ?autoCCancel@sciLexer_api@@SAXPBUscintillaObject@@@Z 
01:00043C14 ?_autoCActive@sciLexer_api@@SAXPBUscintillaObject@@AAUbooleanInt@@@Z 
01:00043C30 ?_autoCPosStart@sciLexer_api@@SAXPBUscintillaObject@@PAH@Z 
01:00043C4C ?autoCComplete@sciLexer_api@@SAXPBUscintillaObject@@@Z 
01:00043C60 ?autoCSTops@sciLexer_api@@SAXPBUscintillaObject@@PAD@Z 
01:00043C80 ?autoCSetSeparator@sciLexer_api@@SAXPBUscintillaObject@@PBUchar8@@@Z 
01:00043C9C ?_autoCGetSeparator@sciLexer_api@@SAXPBUscintillaObject@@AAUchar8@@@Z 
01:00043CB8 ?autoCSelect@sciLexer_api@@SAXPBUscintillaObject@@PAD@Z 
01:00043CD8 ?_autoCGetCurrent@sciLexer_api@@SAXPBUscintillaObject@@PAH@Z 
01:00043CF4 ?_autoCGetCurrentText@sciLexer_api@@SAXPBUscintillaObject@@PADPAH@Z 
01:00043D20 ?autoCSetCancelAtStart@sciLexer_api@@SAXPBUscintillaObject@@PBUbooleanInt@@@Z 
01:00043D3C ?_autoCGetCancelAtStart@sciLexer_api@@SAXPBUscintillaObject@@AAUbooleanInt@@@Z 
01:00043D58 ?autoCSetFillups@sciLexer_api@@SAXPBUscintillaObject@@PAD@Z 
01:00043D78 ?autoCSetChooseSingle@sciLexer_api@@SAXPBUscintillaObject@@PBUbooleanInt@@@Z 
01:00043D94 ?_autoCGetChooseSingle@sciLexer_api@@SAXPBUscintillaObject@@AAUbooleanInt@@@Z 
01:00043DB0 ?autoCSetIgnoreCase@sciLexer_api@@SAXPBUscintillaObject@@PBUbooleanInt@@@Z 
01:00043DCC ?_autoCGetIgnoreCase@sciLexer_api@@SAXPBUscintillaObject@@AAUbooleanInt@@@Z 
01:00043DE8 ?autoCSetCaseInsensitiveBehaviour@sciLexer_api@@SAXPBUscintillaObject@@H@Z 
01:00043E04 ?_autoCGetCaseInsensitiveBehaviour@sciLexer_api@@SAXPBUscintillaObject@@PAH@Z 
01:00043E20 ?autoCSetAutoHide@sciLexer_api@@SAXPBUscintillaObject@@PBUbooleanInt@@@Z 
01:00043E3C ?_autoCGetAutoHide@sciLexer_api@@SAXPBUscintillaObject@@AAUbooleanInt@@@Z 
01:00043E58 ?autoCSetDropRestOfWord@sciLexer_api@@SAXPBUscintillaObject@@PBUbooleanInt@@@Z 
01:00043E74 ?_autoCGetDropRestOfWord@sciLexer_api@@SAXPBUscintillaObject@@AAUbooleanInt@@@Z 
01:00043E90 ?registerImage@sciLexer_api@@SAXPBUscintillaObject@@HPAD@Z 
01:00043EB8 ?registerRgbaImage@sciLexer_api@@SAXPBUscintillaObject@@HPAD@Z 
01:00043EE0 ?clearRegisteredImages@sciLexer_api@@SAXPBUscintillaObject@@@Z 
01:00043EF4 ?autoCSetTypeSeparator@sciLexer_api@@SAXPBUscintillaObject@@PBUchar8@@@Z 
01:00043F10 ?_autoCGetTypeSeparator@sciLexer_api@@SAXPBUscintillaObject@@AAUchar8@@@Z 
01:00043F2C ?autoCSetMaxHeight@sciLexer_api@@SAXPBUscintillaObject@@H@Z 
01:00043F48 ?_autoCGetMaxHeight@sciLexer_api@@SAXPBUscintillaObject@@PAH@Z 
01:00043F64 ?autoCSetMaxWidth@sciLexer_api@@SAXPBUscintillaObject@@H@Z 
01:00043F80 ?_autoCGetMaxWidth@sciLexer_api@@SAXPBUscintillaObject@@PAH@Z 
01:00043F9C ?userListShow@sciLexer_api@@SAXPBUscintillaObject@@HPAD@Z 
01:00043FC4 ?calltipShow@sciLexer_api@@SAXPBUscintillaObject@@HPAD@Z 
01:00043FEC ?calltipCancel@sciLexer_api@@SAXPBUscintillaObject@@@Z 
01:00044000 ?calltipActive@sciLexer_api@@SAXPBUscintillaObject@@@Z 
01:00044014 ?calltipPosStart@sciLexer_api@@SAXPBUscintillaObject@@@Z 
01:00044028 ?calltipSetHlt@sciLexer_api@@SAXPBUscintillaObject@@HH@Z 
01:00044050 ?calltipSetBack@sciLexer_api@@SAXPBUscintillaObject@@H@Z 
01:0004406C ?calltipSetFore@sciLexer_api@@SAXPBUscintillaObject@@H@Z 
01:00044088 ?calltipSetForehlt@sciLexer_api@@SAXPBUscintillaObject@@H@Z 
01:000440A4 ?calltipUseStyle@sciLexer_api@@SAXPBUscintillaObject@@H@Z 
01:000440C0 ?calltipSetPosition@sciLexer_api@@SAXPBUscintillaObject@@PBUbooleanInt@@@Z 
01:000440DC ?lineDown@sciLexer_api@@SAXPBUscintillaObject@@@Z 
01:000440F0 ?lineDownExtend@sciLexer_api@@SAXPBUscintillaObject@@@Z 
01:00044104 ?lineDownRectExtend@sciLexer_api@@SAXPBUscintillaObject@@@Z 
01:00044118 ?lineScrollDown@sciLexer_api@@SAXPBUscintillaObject@@@Z 
01:0004412C ?lineUp@sciLexer_api@@SAXPBUscintillaObject@@@Z 
01:00044140 ?lineUpExtend@sciLexer_api@@SAXPBUscintillaObject@@@Z 
01:00044154 ?lineUpRectExtend@sciLexer_api@@SAXPBUscintillaObject@@@Z 
01:00044168 ?lineScrollUp@sciLexer_api@@SAXPBUscintillaObject@@@Z 
01:0004417C ?paraDown@sciLexer_api@@SAXPBUscintillaObject@@@Z 
01:00044190 ?paraDownExtend@sciLexer_api@@SAXPBUscintillaObject@@@Z 
01:000441A4 ?paraUp@sciLexer_api@@SAXPBUscintillaObject@@@Z 
01:000441B8 ?paraUpExtend@sciLexer_api@@SAXPBUscintillaObject@@@Z 
01:000441CC ?charLeft@sciLexer_api@@SAXPBUscintillaObject@@@Z 
01:000441E0 ?charLeftExtend@sciLexer_api@@SAXPBUscintillaObject@@@Z 
01:000441F4 ?charLeftRectExtend@sciLexer_api@@SAXPBUscintillaObject@@@Z 
01:00044208 ?charRight@sciLexer_api@@SAXPBUscintillaObject@@@Z 
01:0004421C ?charRightExtend@sciLexer_api@@SAXPBUscintillaObject@@@Z 
01:00044230 ?charRightRectExtend@sciLexer_api@@SAXPBUscintillaObject@@@Z 
01:00044244 ?wordLeft@sciLexer_api@@SAXPBUscintillaObject@@@Z 
01:00044258 ?wordLeftExtend@sciLexer_api@@SAXPBUscintillaObject@@@Z 
01:0004426C ?wordRight@sciLexer_api@@SAXPBUscintillaObject@@@Z 
01:00044280 ?wordRightExtend@sciLexer_api@@SAXPBUscintillaObject@@@Z 
01:00044294 ?wordLeftEnd@sciLexer_api@@SAXPBUscintillaObject@@@Z 
01:000442A8 ?wordLeftEndExtend@sciLexer_api@@SAXPBUscintillaObject@@@Z 
01:000442BC ?wordRightEnd@sciLexer_api@@SAXPBUscintillaObject@@@Z 
01:000442D0 ?wordRightEndExtend@sciLexer_api@@SAXPBUscintillaObject@@@Z 
01:000442E4 ?wordPartLeft@sciLexer_api@@SAXPBUscintillaObject@@@Z 
01:000442F8 ?wordPartLeftExtend@sciLexer_api@@SAXPBUscintillaObject@@@Z 
01:0004430C ?wordPartRight@sciLexer_api@@SAXPBUscintillaObject@@@Z 
01:00044320 ?wordPartRightExtend@sciLexer_api@@SAXPBUscintillaObject@@@Z 
01:00044334 ?home@sciLexer_api@@SAXPBUscintillaObject@@@Z 
01:00044348 ?homeExtend@sciLexer_api@@SAXPBUscintillaObject@@@Z 
01:0004435C ?homeRectExtend@sciLexer_api@@SAXPBUscintillaObject@@@Z 
01:00044370 ?homeDisplay@sciLexer_api@@SAXPBUscintillaObject@@@Z 
01:00044384 ?homeDisplayExtend@sciLexer_api@@SAXPBUscintillaObject@@@Z 
01:00044398 ?homeWrap@sciLexer_api@@SAXPBUscintillaObject@@@Z 
01:000443AC ?homeWrapExtend@sciLexer_api@@SAXPBUscintillaObject@@@Z 
01:000443C0 ?vcHome@sciLexer_api@@SAXPBUscintillaObject@@@Z 
01:000443D4 ?vcHomeExtend@sciLexer_api@@SAXPBUscintillaObject@@@Z 
01:000443E8 ?vcHomeRectExtend@sciLexer_api@@SAXPBUscintillaObject@@@Z 
01:000443FC ?vcHomeWrap@sciLexer_api@@SAXPBUscintillaObject@@@Z 
01:00044410 ?vcHomeWrapExtend@sciLexer_api@@SAXPBUscintillaObject@@@Z 
01:00044424 ?lineEnd@sciLexer_api@@SAXPBUscintillaObject@@@Z 
01:00044438 ?lineEndExtend@sciLexer_api@@SAXPBUscintillaObject@@@Z 
01:0004444C ?lineEndRectExtend@sciLexer_api@@SAXPBUscintillaObject@@@Z 
01:00044460 ?lineEndDisplay@sciLexer_api@@SAXPBUscintillaObject@@@Z 
01:00044474 ?lineEndDisplayExtend@sciLexer_api@@SAXPBUscintillaObject@@@Z 
01:00044488 ?lineEndWrap@sciLexer_api@@SAXPBUscintillaObject@@@Z 
01:0004449C ?lineEndWrapExtend@sciLexer_api@@SAXPBUscintillaObject@@@Z 
01:000444B0 ?documentStart@sciLexer_api@@SAXPBUscintillaObject@@@Z 
01:000444C4 ?documentStartExtend@sciLexer_api@@SAXPBUscintillaObject@@@Z 
01:000444D8 ?documentEnd@sciLexer_api@@SAXPBUscintillaObject@@@Z 
01:000444EC ?documentEndExtend@sciLexer_api@@SAXPBUscintillaObject@@@Z 
01:00044500 ?pageUp@sciLexer_api@@SAXPBUscintillaObject@@@Z 
01:00044514 ?pageUpExtend@sciLexer_api@@SAXPBUscintillaObject@@@Z 
01:00044528 ?pageUpRectExtend@sciLexer_api@@SAXPBUscintillaObject@@@Z 
01:0004453C ?pageDown@sciLexer_api@@SAXPBUscintillaObject@@@Z 
01:00044550 ?pageDownExtend@sciLexer_api@@SAXPBUscintillaObject@@@Z 
01:00044564 ?pageDownRectExtend@sciLexer_api@@SAXPBUscintillaObject@@@Z 
01:00044578 ?stutteredPageUp@sciLexer_api@@SAXPBUscintillaObject@@@Z 
01:0004458C ?stutteredPageUpExtend@sciLexer_api@@SAXPBUscintillaObject@@@Z 
01:000445A0 ?stutteredPageDown@sciLexer_api@@SAXPBUscintillaObject@@@Z 
01:000445B4 ?stutteredPageDownExtend@sciLexer_api@@SAXPBUscintillaObject@@@Z 
01:000445C8 ?deleteBack@sciLexer_api@@SAXPBUscintillaObject@@@Z 
01:000445DC ?deleteBackNotLine@sciLexer_api@@SAXPBUscintillaObject@@@Z 
01:000445F0 ?delWordLeft@sciLexer_api@@SAXPBUscintillaObject@@@Z 
01:00044604 ?delWordRight@sciLexer_api@@SAXPBUscintillaObject@@@Z 
01:00044618 ?delWordRightEnd@sciLexer_api@@SAXPBUscintillaObject@@@Z 
01:0004462C ?delLineLeft@sciLexer_api@@SAXPBUscintillaObject@@@Z 
01:00044640 ?delLineRight@sciLexer_api@@SAXPBUscintillaObject@@@Z 
01:00044654 ?lineDelete@sciLexer_api@@SAXPBUscintillaObject@@@Z 
01:00044668 ?lineCut@sciLexer_api@@SAXPBUscintillaObject@@@Z 
01:0004467C ?lineCopy@sciLexer_api@@SAXPBUscintillaObject@@@Z 
01:00044690 ?lineTranspose@sciLexer_api@@SAXPBUscintillaObject@@@Z 
01:000446A4 ?lineDuplicate@sciLexer_api@@SAXPBUscintillaObject@@@Z 
01:000446B8 ?lowerCase@sciLexer_api@@SAXPBUscintillaObject@@@Z 
01:000446CC ?upperCase@sciLexer_api@@SAXPBUscintillaObject@@@Z 
01:000446E0 ?cancel@sciLexer_api@@SAXPBUscintillaObject@@@Z 
01:000446F4 ?editToggleOvertype@sciLexer_api@@SAXPBUscintillaObject@@@Z 
01:00044708 ?newline@sciLexer_api@@SAXPBUscintillaObject@@@Z 
01:0004471C ?formfeed@sciLexer_api@@SAXPBUscintillaObject@@@Z 
01:00044730 ?tab@sciLexer_api@@SAXPBUscintillaObject@@@Z 
01:00044744 ?backTab@sciLexer_api@@SAXPBUscintillaObject@@@Z 
01:00044758 ?selectionDuplicate@sciLexer_api@@SAXPBUscintillaObject@@@Z 
01:0004476C ?verticalCentreCaret@sciLexer_api@@SAXPBUscintillaObject@@@Z 
01:00044780 ?assignCmdKey@sciLexer_api@@SAXPBUscintillaObject@@HH@Z 
01:000447A8 ?clearCmdKey@sciLexer_api@@SAXPBUscintillaObject@@H@Z 
01:000447C4 ?clearAllCmdKeys@sciLexer_api@@SAXPBUscintillaObject@@@Z 
--- From 'Obj\sciLexer_api.20CB027C.obj'
01:000447D8 ?nullOp@sciLexer_api@@SAXPBUscintillaObject@@@Z  (Idle)
--- From 'Obj\sciLexer.ADC40A53.obj'
01:000447EC ?usePopup@sciLexer_api@@SAXPBUscintillaObject@@PBUbooleanInt@@@Z 
01:00044808 ?startRecord@sciLexer_api@@SAXPBUscintillaObject@@@Z 
01:0004481C ?stopRecord@sciLexer_api@@SAXPBUscintillaObject@@@Z 
01:00044830 ?formatRange@sciLexer_api@@SAXPBUscintillaObject@@PBUbooleanInt@@PAUsci_rangeToFormat_struct@sciLexer_native@@@Z 
01:00044858 ?setPrintMagnification@sciLexer_api@@SAXPBUscintillaObject@@H@Z 
01:00044874 ?_getPrintMagnification@sciLexer_api@@SAXPBUscintillaObject@@PAH@Z 
01:00044890 ?setPrintColorMode@sciLexer_api@@SAXPBUscintillaObject@@H@Z 
01:000448AC ?_getPrintColorMode@sciLexer_api@@SAXPBUscintillaObject@@PAH@Z 
01:000448C8 ?setPrintWrapMode@sciLexer_api@@SAXPBUscintillaObject@@H@Z 
01:000448E4 ?_getPrintWrapMode@sciLexer_api@@SAXPBUscintillaObject@@PAH@Z 
--- From 'Obj\sciLexer_api.20CB027C.obj'
01:00044900 ?_getDirectPointer@sciLexer_api@@SAXPBUscintillaObject@@PAPAX@Z  (Idle)
--- From 'Obj\sciLexer.ADC40A53.obj'
01:0004491C ?_getCharacterPointer@sciLexer_api@@SAXPBUscintillaObject@@PAPAX@Z 
01:00044938 ?_getRangePointer@sciLexer_api@@SAXPBUscintillaObject@@HHPAPAX@Z 
01:0004496C ?_getGapPosition@sciLexer_api@@SAXPBUscintillaObject@@PAPAX@Z 
01:00044988 ?_getDocPointer@sciLexer_api@@SAXPBUscintillaObject@@AAUdocument@@@Z 
01:000449A4 ?setDocPointer@sciLexer_api@@SAXPBUscintillaObject@@PBUdocument@@@Z 
01:000449C4 ?createDocument@sciLexer_api@@SAXPBUscintillaObject@@@Z 
01:000449D8 ?addrefDocument@sciLexer_api@@SAXPBUscintillaObject@@PBUdocument@@@Z 
01:000449F8 ?releaseDocument@sciLexer_api@@SAXPBUscintillaObject@@PBUdocument@@@Z 
01:00044A18 ?visibleFromDocLine@sciLexer_api@@SAXPBUscintillaObject@@H@Z 
01:00044A34 ?docLineFromVisible@sciLexer_api@@SAXPBUscintillaObject@@H@Z 
01:00044A50 ?showLines@sciLexer_api@@SAXPBUscintillaObject@@HH@Z 
01:00044A78 ?hideLines@sciLexer_api@@SAXPBUscintillaObject@@HH@Z 
01:00044AA0 ?_getLineVisible@sciLexer_api@@SAXPBUscintillaObject@@HAAUbooleanInt@@@Z 
01:00044AC8 ?_getAllLinesVisible@sciLexer_api@@SAXPBUscintillaObject@@AAUbooleanInt@@@Z 
01:00044AE4 ?setFoldLevel@sciLexer_api@@SAXPBUscintillaObject@@HH@Z 
01:00044B0C ?_getFoldLevel@sciLexer_api@@SAXPBUscintillaObject@@HPAH@Z 
01:00044B34 ?setFoldFlags@sciLexer_api@@SAXPBUscintillaObject@@H@Z 
01:00044B50 ?_getLastChild@sciLexer_api@@SAXPBUscintillaObject@@HHPAH@Z 
01:00044B84 ?_getFoldParent@sciLexer_api@@SAXPBUscintillaObject@@HPAH@Z 
01:00044BAC ?toggleFold@sciLexer_api@@SAXPBUscintillaObject@@H@Z 
01:00044BC8 ?setFoldExpanded@sciLexer_api@@SAXPBUscintillaObject@@HPBUbooleanInt@@@Z 
01:00044BF0 ?_getFoldExpanded@sciLexer_api@@SAXPBUscintillaObject@@HAAUbooleanInt@@@Z 
01:00044C18 ?contractedFoldNext@sciLexer_api@@SAXPBUscintillaObject@@H@Z 
01:00044C34 ?ensureVisible@sciLexer_api@@SAXPBUscintillaObject@@H@Z 
01:00044C50 ?ensureVisibleEnforcePolicy@sciLexer_api@@SAXPBUscintillaObject@@H@Z 
01:00044C6C ?setWrapMode@sciLexer_api@@SAXPBUscintillaObject@@H@Z 
01:00044C88 ?_getWrapMode@sciLexer_api@@SAXPBUscintillaObject@@PAH@Z 
01:00044CA4 ?setWrapVisualFlags@sciLexer_api@@SAXPBUscintillaObject@@H@Z 
01:00044CC0 ?_getWrapVisualFlags@sciLexer_api@@SAXPBUscintillaObject@@PAH@Z 
01:00044CDC ?setWrapVisualFlagsLocation@sciLexer_api@@SAXPBUscintillaObject@@H@Z 
01:00044CF8 ?_getWrapVisualFlagsLocation@sciLexer_api@@SAXPBUscintillaObject@@PAH@Z 
01:00044D14 ?setWrapIndentMode@sciLexer_api@@SAXPBUscintillaObject@@H@Z 
01:00044D30 ?_getWrapIndentMode@sciLexer_api@@SAXPBUscintillaObject@@PAH@Z 
01:00044D4C ?setWrapStartIndent@sciLexer_api@@SAXPBUscintillaObject@@H@Z 
01:00044D68 ?_getWrapStartIndent@sciLexer_api@@SAXPBUscintillaObject@@PAH@Z 
01:00044D84 ?setLayOutCache@sciLexer_api@@SAXPBUscintillaObject@@H@Z 
01:00044DA0 ?_getLayOutCache@sciLexer_api@@SAXPBUscintillaObject@@PAH@Z 
01:00044DBC ?setPositionCache@sciLexer_api@@SAXPBUscintillaObject@@H@Z 
01:00044DD8 ?_getPositionCache@sciLexer_api@@SAXPBUscintillaObject@@PAH@Z 
01:00044DF4 ?linesSplit@sciLexer_api@@SAXPBUscintillaObject@@H@Z 
01:00044E10 ?linesJoin@sciLexer_api@@SAXPBUscintillaObject@@@Z 
01:00044E24 ?wrapCount@sciLexer_api@@SAXPBUscintillaObject@@H@Z 
01:00044E40 ?zoomIn@sciLexer_api@@SAXPBUscintillaObject@@@Z 
01:00044E54 ?zoomOut@sciLexer_api@@SAXPBUscintillaObject@@@Z 
01:00044E68 ?setZoom@sciLexer_api@@SAXPBUscintillaObject@@H@Z 
01:00044E84 ?_getZoom@sciLexer_api@@SAXPBUscintillaObject@@PAH@Z 
01:00044EA0 ?setEdgeMode@sciLexer_api@@SAXPBUscintillaObject@@H@Z 
01:00044EBC ?_getEdgeMode@sciLexer_api@@SAXPBUscintillaObject@@PAH@Z 
01:00044ED8 ?setEdgeColumn@sciLexer_api@@SAXPBUscintillaObject@@H@Z 
01:00044EF4 ?_getEdgeColumn@sciLexer_api@@SAXPBUscintillaObject@@PAH@Z 
01:00044F10 ?setEdgeColor@sciLexer_api@@SAXPBUscintillaObject@@H@Z 
01:00044F2C ?_getEdgeColor@sciLexer_api@@SAXPBUscintillaObject@@PAH@Z 
01:00044F48 ?setLexer@sciLexer_api@@SAXPBUscintillaObject@@H@Z 
01:00044F64 ?_getLexer@sciLexer_api@@SAXPBUscintillaObject@@PAH@Z 
01:00044F80 ?setLexerLanguage@sciLexer_api@@SAXPBUscintillaObject@@PAD@Z 
01:00044FA0 ?getLexerLanguage@sciLexer_api@@SAXPBUscintillaObject@@PAD@Z 
01:00044FC0 ?loadLexerLibrary@sciLexer_api@@SAXPBUscintillaObject@@PAD@Z 
01:00044FE0 ?colorise@sciLexer_api@@SAXPBUscintillaObject@@HH@Z 
01:00045008 ?changeLexerState@sciLexer_api@@SAXPBUscintillaObject@@HH@Z 
01:00045030 ?_propertyNames@sciLexer_api@@SAXPBUscintillaObject@@PADPAH@Z 
01:0004505C ?propertyType@sciLexer_api@@SAXPBUscintillaObject@@PAD@Z 
01:00045078 ?_describeProperty@sciLexer_api@@SAXPBUscintillaObject@@PADPADPAH@Z 
01:000450AC ?setProperty@sciLexer_api@@SAXPBUscintillaObject@@PADPAD@Z 
01:000450D4 ?_getProperty@sciLexer_api@@SAXPBUscintillaObject@@PADPADPAH@Z 
01:00045108 ?_getPropertyExpanded@sciLexer_api@@SAXPBUscintillaObject@@PADPADPAH@Z 
01:0004513C ?_getPropertyInt@sciLexer_api@@SAXPBUscintillaObject@@PADHPAH@Z 
01:00045170 ?setKeyWords@sciLexer_api@@SAXPBUscintillaObject@@HPAD@Z 
01:00045198 ?describeKeyWordSets@sciLexer_api@@SAXPBUscintillaObject@@PAD@Z 
01:000451B8 ?_getStyleBitsNeeded@sciLexer_api@@SAXPBUscintillaObject@@PAH@Z 
01:000451D4 ?setModeventMask@sciLexer_api@@SAXPBUscintillaObject@@H@Z 
01:000451F0 ?_getModeventMask@sciLexer_api@@SAXPBUscintillaObject@@PAH@Z 
01:0004520C ?setMouseDwellTime@sciLexer_api@@SAXPBUscintillaObject@@H@Z 
01:00045228 ?_getMouseDwellTime@sciLexer_api@@SAXPBUscintillaObject@@PAH@Z 
--- From 'Obj\sciLexer_api.20CB027C.obj'
01:00045244 ?action@sciLexer_api@@SAXPBUscintillaObject@@I@Z 
01:0004525C rr_v 
01:00045284 rr_p 
01:000452A0 rr_v_v 
01:000452DC rr_vv_v 
01:0004532C rr_vv_p 
01:00045374 rr_vp_v 
01:000453B0 rr_pv_v 
01:000453EC rr_pp_v 
01:00045414 qq_v 
01:00045440 qq_p 
01:00045458 qq_vv 
01:00045498 qq_vp 
01:000454C4 qq_pp 
--- From 'Obj\time_api.29E4C41C.obj'
01:000454E0 _GetTickCount64@0  (Idle)
01:00045504 _QueryUnbiasedInterruptTime@4  (Idle)
--- From 'Obj\exception.1550E8BC.obj'
01:00045528 ?_getSystemTimeAsFileTime@time_api@@SAXPAAAUgmtTimeValue@@@Z 
--- From 'Obj\time_api.29E4C41C.obj'
01:00045568 ?_gmtTimeToSystemTime@time_api@@SAXPAPBUgmtTimeValue@@PAPAUsystemTime_struct@time_native@@@Z  (Idle)
01:0004562C ?_systemTimeToGmtTime@time_api@@SAXPAUsystemTime_struct@time_native@@PAAAUgmtTimeValue@@@Z  (Idle)
--- From 'Obj\exception.1550E8BC.obj'
01:00045960 ?_localTimeToSystemTime@time_api@@SAXPAPBUlocalTimeValue@@PAPAUsystemTime_struct@time_native@@@Z 
--- From 'Obj\time_api.29E4C41C.obj'
01:00045974 ?_systemTimeToLocalTime@time_api@@SAXPAUsystemTime_struct@time_native@@PAAAUlocalTimeValue@@@Z  (Idle)
01:00045998 ?_getTimeZoneInformation@time_api@@SAXPAPAUtimeZoneAPI_struct@time_native@@@Z  (Idle)
01:000459FC ?_systemTimeToTzSpecificLocalTime@time_api@@SAXPAUtimeZoneAPI_struct@time_native@@PAUsystemTime_struct@3@PAPAU43@@Z  (Idle)
01:00045A60 ?_tzSpecificLocalTimeToSystemTime@time_api@@SAXPAUtimeZoneAPI_struct@time_native@@PAUsystemTime_struct@3@PAPAU43@@Z  (Idle)
--- From 'Obj\exception.1550E8BC.obj'
01:00045B84 ?_gmtTimeToLocalTime@time_api@@SAXPAPBUgmtTimeValue@@PAAAUlocalTimeValue@@@Z 
--- From 'Obj\time_api.29E4C41C.obj'
01:00045BA8 ?_gmtTimeToLocalTime@time_api@@SAXPAPBUgmtTimeValue@@PAUtimeZoneAPI_struct@time_native@@PAAAUlocalTimeValue@@@Z 
01:00045CD8 ?_localTimeToGmtTime@time_api@@SAXPAPBUlocalTimeValue@@PAAAUgmtTimeValue@@@Z  (Idle)
01:00045CFC ?_localTimeToGmtTime@time_api@@SAXPAPBUlocalTimeValue@@PAUtimeZoneAPI_struct@time_native@@PAAAUgmtTimeValue@@@Z 
01:00045E2C ?_gmtTimeToFileTime@time_api@@SAXPAPBUgmtTimeValue@@PAPAUfileTime_struct@time_native@@@Z 
01:00045E50 ?_fileTimeToGmtTime@time_api@@SAXPAUfileTime_struct@time_native@@PAAAUgmtTimeValue@@@Z 
01:00045E5C ?_formatDate@time_api@@SAXPAPBUlocalTimeValue@@PB_WPBUlcId@@PAPB_W@Z  (Idle)
01:00045EA8 ?_formatTime@time_api@@SAXPAPBUlocalTimeValue@@PB_WPBUlcId@@PAPB_W@Z  (Idle)
--- From 'Obj\exception.1550E8BC.obj'
01:00045EF4 ?_getDateFormat@time_api@@SAXPBUlcId@@IPAUsystemTime_struct@time_native@@PB_WPAPB_W@Z 
01:00045FF0 ?_getTimeFormat@time_api@@SAXPBUlcId@@IPAUsystemTime_struct@time_native@@PB_WPAPB_W@Z 
--- From 'Obj\time_api.29E4C41C.obj'
01:000460EC ?_getLocaleInfo_string@time_api@@SAXPBUlcId@@PBUlcType@@PAPB_W@Z  (Idle)
01:00046170 ?_getLocaleInfo_integer@time_api@@SAXPBUlcId@@PBUlcType@@PAH@Z  (Idle)
01:000461C0 ?_getFirstDayOfWeek@time_api@@SAXPBUlcId@@PAH@Z  (Idle)
01:000461DC ?raise_cannotGetDateTimeFormat_explicit@time_api@@SAXPAUprogramPoint_struct@core@@IIIIIIIIIIPB_WPBUhResult@@@Z 
01:000465B0 ?raise_cannotGetLocaleInfo_explicit@time_api@@SAXPAUprogramPoint_struct@core@@IIPBUhResult@@@Z 
01:000466BC ?isLeapYear@time_api@@SAXH@Z  (Idle)
--- From 'Obj\messageControl.6297CBEC.obj'
01:00046790 ?new@sciLexer@@SAXQAV1@@@Z 
--- From 'Obj\sciLexer.ADC40A53.obj'
01:000467D8 ?new@sciLexer@@SAXQAV1@@QAVcontainerWindow@@@@Z  (Idle)
01:000467F0 ?show@sciLexer@@SAXQAVwindow@@@@Z 
01:00046D0C ?setFont@sciLexer@@SAXQAVwindow@@@PBUfont@vpiDomains@@@Z 
01:00046EE0 ?usePopup@sciLexer@@SGXQAVsciLexerBase@@@PAUboolean_struct@_builtIn@@@Z 
01:00046F38 ?_onContextMenu@sciLexer@@SAXQAV1@@QAVwindow@@@PAUcontextMenuInput_struct@3@PAPAUcontextMenuResponse_struct@3@@Z 
01:000471EC ?tryOnContextMenuItem@sciLexer@@SAXQAV1@@PBUmenuTag@@@Z  (Idle)
01:00047254 ?anonymous$o0$1$onnative/4nf$sciLexer@1@SAXPAUanonymous$o0$1$onnative/4nf$sciLexerc_struct@1@@Z 
01:00047298 ?_onNative@sciLexer@@SAXQAV1@@QAVwindow@@@IPBUwParam@@PBUlParam@@PAPAUnativeResponse_struct@3@@Z 
01:00047650 ?_getKeyModifier@sciLexer@@SAXAAUkeyModifier@vpiDomains@@@Z 
01:000476C4 ?_getKeyModifier2@sciLexer@@SAXHPBUkeyModifier@vpiDomains@@AAU23@@Z 
01:00047728 ?_tryGetKeydownAction@sciLexer@@SAXQAV1@@PBUkeyModifier@vpiDomains@@HPAX@Z 
01:000478AC ?tab_vip@sciLexer@@SAXQAVsciLexerBase@@@@Z 
01:000478C0 ?backTab_vip@sciLexer@@SAXQAVsciLexerBase@@@@Z 
01:000478D4 ?changeIndent@sciLexer@@SAXQAV1@@PAUboolean_struct@_builtIn@@@Z 
01:00047A90 ?changeIndentLine@sciLexer@@SAXQAV1@@PBUlineNumber@@H@Z 
01:00047B70 ?indentStep@sciLexer@@SGHQAVsciLexerBase@@@@Z 
--- From 'Obj\sciLexerSupport.FEC4A01D.obj'
01:00047BA8 ?_getInVisitOrder_nd@sciLexer@@SAXPAPAV1@@@Z 
01:00047BF4 ?_tryGetEditor@sciLexer@@SAXPAPAV1@@@Z 
--- From 'Obj\sciLexer.ADC40A53.obj'
01:00047C20 ?onCharLF@sciLexer@@SAXQAV1@@@Z  (Idle)
01:00047CC0 ?onCharAdded@sciLexer@@SAXQAV1@@QAVsciLexerBase@@@H@Z 
01:00047CDC ?extraLineSeparation@sciLexer@@SGHQAVsciLexerBase@@@@Z 
01:00047D0C ?extraLineSeparation@sciLexer@@SGXQAVsciLexerBase@@@H@Z 
01:00047D40 ?highlightSelectedWords@sciLexer@@SGHQAVsciLexerBase@@@@Z 
01:00047D58 ?highlightSelectedWords@sciLexer@@SGXQAVsciLexerBase@@@H@Z 
01:00047E2C ?onUpdateUI_highlightSelectedWords@sciLexer@@SAXQAV1@@QAVsciLexerBase@@@I@Z 
01:00047F58 ?highlightSelectedWords@sciLexer@@SAXQAV1@@PBUsci_style@@PB_W@Z 
01:00047FA8 ?highlightSelectedWords2@sciLexer@@SAXQAV1@@PBUsci_style@@PB_WHH@Z 
01:000480C4 ?setDefaultLexerStyle@sciLexer@@SAXQAVsciLexerBase@@@@Z 
01:000480F0 ?lexerDefault_visualProlog@sciLexer@@SAXQAVsciLexerBase@@@@Z 
01:0004811C ?lexerDefault_cpp@sciLexer@@SAXQAVsciLexerBase@@@@Z 
01:00048148 ?lexerDefault_html@sciLexer@@SAXQAVsciLexerBase@@@@Z 
01:00048174 ?lexerDefault_xml@sciLexer@@SAXQAVsciLexerBase@@@@Z 
01:000481A0 ?setDefaultLexerStyle_postAction@sciLexer@@SAXQAV1@@@Z 
01:00048288 ?lexerDefault_visualProlog_postAction@sciLexer@@SAXQAV1@@@Z 
01:00048540 ?lexerDefault_cpp_postAction@sciLexer@@SAXQAV1@@@Z 
01:00048728 ?styleSetFore_cpp@sciLexer@@SAXQAV1@@PBUsci_style@@H@Z 
01:0004876C ?lexerDefault_html_postAction@sciLexer@@SAXQAV1@@@Z 
01:00049854 ?lexerDefault_xml_postAction@sciLexer@@SAXQAV1@@@Z 
01:0004992C ?xmlHtmlDefault@sciLexer@@SAXQAV1@@H@Z 
01:00049BC8 ?lexerDefault_extension@sciLexer@@SAXQAVsciLexerBase@@@PB_W@Z 
01:00049C3C ?extension_lexer@sciLexer@@SAXQAV1@@PAXPAPAU?$__list_struct@Ustring@@@@@Z 
01:00049D4C ?textUtf8@sciLexer@@SGPADQAVsciLexerBase@@@@Z 
01:00049DB0 ?textUtf8@sciLexer@@SGXQAVsciLexerBase@@@PAD@Z 
01:00049DF0 ?text@sciLexer@@SGPB_WQAVsciLexerBase@@@@Z 
01:00049E20 ?text@sciLexer@@SGXQAVsciLexerBase@@@PB_W@Z 
01:00049E50 ?setSavepoint@sciLexer@@SAXQAVsciLexerBase@@@@Z 
01:00049E7C ?_getLine@sciLexer@@SAXQAVsciLexerBase@@@PBUlineNumber@@PAPB_W@Z 
01:00049F40 ?replaceSel@sciLexer@@SAXQAVsciLexerBase@@@PB_W@Z 
01:00049F8C ?readOnly@sciLexer@@SGPAUboolean_struct@_builtIn@@QAVsciLexerBase@@@@Z 
01:00049FE4 ?anonymous$o0$1$readonly/1np$sciLexer@1@SAXPAUanonymous$o0$1$readonly/1np$sciLexerc_struct@1@@Z 
01:0004A03C ?readOnly@sciLexer@@SGXQAVsciLexerBase@@@PAUboolean_struct@_builtIn@@@Z 
01:0004A08C ?lastPos@sciLexer@@SGPBUbyteCount@@QAVsciLexerBase@@@@Z 
01:0004A0E0 ?_getTextRange@sciLexer@@SAXQAVsciLexerBase@@@HHPAPB_W@Z 
01:0004A1B8 ?allocate@sciLexer@@SAXQAVsciLexerBase@@@PBUbyteCount@@@Z 
01:0004A1E4 ?appendText@sciLexer@@SAXQAVsciLexerBase@@@PB_W@Z 
01:0004A244 ?insertText@sciLexer@@SAXQAVsciLexerBase@@@PB_W@Z 
01:0004A260 ?insertText@sciLexer@@SAXQAVsciLexerBase@@@HPB_W@Z 
01:0004A2AC ?addText@sciLexer@@SAXQAVsciLexerBase@@@PB_W@Z 
01:0004A30C ?clearAll@sciLexer@@SAXQAVsciLexerBase@@@@Z 
01:0004A338 ?deleteRange@sciLexer@@SAXQAVsciLexerBase@@@HH@Z 
01:0004A364 ?clearDocumentStyle@sciLexer@@SAXQAVsciLexerBase@@@@Z 
01:0004A390 ?_tryGetChar8At@sciLexer@@SAXQAVsciLexerBase@@@HAAUchar8@@@Z 
01:0004A3D8 ?_tryGetCharAt@sciLexer@@SAXQAVsciLexerBase@@@HPA_W@Z 
01:0004A504 ?_tryGetStyleAt@sciLexer@@SAXQAVsciLexerBase@@@HAAUsci_style@@@Z 
01:0004A54C ?styleBits@sciLexer@@SGXQAVsciLexerBase@@@PBUpositive@@@Z 
01:0004A58C ?styleBits@sciLexer@@SGPBUpositive@@QAVsciLexerBase@@@@Z 
01:0004A5E0 ?_tryFindText@sciLexer@@SAXQAVsciLexerBase@@@HPAUsci_characterRange_struct@sciLexer_native@@PB_WPAPAU34@@Z 
01:0004A690 ?searchAnchor@sciLexer@@SAXQAVsciLexerBase@@@@Z 
01:0004A6BC ?_trySearchNext@sciLexer@@SAXQAVsciLexerBase@@@HPB_WPAH@Z 
01:0004A71C ?_trySearchPrev@sciLexer@@SAXQAVsciLexerBase@@@HPB_WPAH@Z 
01:0004A77C ?targetStart@sciLexer@@SGXQAVsciLexerBase@@@H@Z 
01:0004A7BC ?targetStart@sciLexer@@SGHQAVsciLexerBase@@@@Z 
01:0004A800 ?targetEnd@sciLexer@@SGXQAVsciLexerBase@@@H@Z 
01:0004A840 ?targetEnd@sciLexer@@SGHQAVsciLexerBase@@@@Z 
01:0004A884 ?targetFromSelection@sciLexer@@SAXQAVsciLexerBase@@@@Z 
01:0004A8B0 ?searchFlags@sciLexer@@SGXQAVsciLexerBase@@@H@Z 
01:0004A8F0 ?searchFlags@sciLexer@@SGHQAVsciLexerBase@@@@Z 
01:0004A934 ?_trySearchInTarget@sciLexer@@SAXQAVsciLexerBase@@@PB_WPAH@Z 
01:0004A9A0 ?replaceTarget@sciLexer@@SAXQAVsciLexerBase@@@PB_W@Z 
01:0004A9C0 ?_replaceTarget@sciLexer@@SAXQAVsciLexerBase@@@PB_WPAH@Z 
01:0004AA1C ?replaceTargetRE@sciLexer@@SAXQAVsciLexerBase@@@PB_W@Z 
01:0004AA3C ?_replaceTargetRE@sciLexer@@SAXQAVsciLexerBase@@@PB_WPAH@Z 
01:0004AA98 ?_getTag@sciLexer@@SAXQAVsciLexerBase@@@HPAPB_W@Z 
01:0004AB48 ?removeTrailingSpaces@sciLexer@@SAXQAVsciLexerBase@@@@Z 
01:0004ABA8 ?removeTrailingSpaces2@sciLexer@@SAXQAV1@@@Z 
01:0004AC1C ?overType@sciLexer@@SGXQAVsciLexerBase@@@PAUboolean_struct@_builtIn@@@Z 
01:0004AC70 ?overType@sciLexer@@SGPAUboolean_struct@_builtIn@@QAVsciLexerBase@@@@Z 
01:0004ACC8 ?cut@sciLexer@@SAXQAVsciLexerBase@@@@Z 
01:0004AD34 ?copy@sciLexer@@SAXQAVsciLexerBase@@@@Z 
01:0004ADC4 ?_getHTML@sciLexer@@SAXQAV1@@HHPAPB_W@Z 
01:0004AEF4 ?writeHTML@sciLexer@@SAXQAV1@@QAVoutputStream@@@PBUsci_style@@HH@Z 
01:0004B1E8 ?_mustEncode@sciLexer@@SAX_WPAPB_W@Z 
01:0004B29C ?paste@sciLexer@@SAXQAVsciLexerBase@@@@Z 
01:0004B2C8 ?clear@sciLexer@@SAXQAVsciLexerBase@@@@Z 
01:0004B2F4 ?canPaste@sciLexer@@SGPAUboolean_struct@_builtIn@@QAVsciLexerBase@@@@Z 
01:0004B34C ?canCopy@sciLexer@@SGPAUboolean_struct@_builtIn@@QAVsciLexerBase@@@@Z 
01:0004B390 ?canCut@sciLexer@@SGPAUboolean_struct@_builtIn@@QAVsciLexerBase@@@@Z 
01:0004B3FC ?copyAllowLine@sciLexer@@SAXQAVsciLexerBase@@@@Z 
01:0004B428 ?copyRange@sciLexer@@SAXQAVsciLexerBase@@@HH@Z 
01:0004B454 ?copyText@sciLexer@@SAXQAVsciLexerBase@@@PB_W@Z 
01:0004B4B4 ?pasteConvertEndings@sciLexer@@SGPAUboolean_struct@_builtIn@@QAVsciLexerBase@@@@Z 
01:0004B50C ?pasteConvertEndings@sciLexer@@SGXQAVsciLexerBase@@@PAUboolean_struct@_builtIn@@@Z 
01:0004B560 ?status@sciLexer@@SGHQAVsciLexerBase@@@@Z 
01:0004B5A4 ?status@sciLexer@@SGXQAVsciLexerBase@@@H@Z 
01:0004B5E4 ?undo@sciLexer@@SAXQAVsciLexerBase@@@@Z 
01:0004B610 ?redo@sciLexer@@SAXQAVsciLexerBase@@@@Z 
01:0004B63C ?canUndo@sciLexer@@SGPAUboolean_struct@_builtIn@@QAVsciLexerBase@@@@Z 
01:0004B694 ?canRedo@sciLexer@@SGPAUboolean_struct@_builtIn@@QAVsciLexerBase@@@@Z 
01:0004B6EC ?emptyUndoBuffer@sciLexer@@SAXQAVsciLexerBase@@@@Z 
01:0004B718 ?undoCollection@sciLexer@@SGPAUboolean_struct@_builtIn@@QAVsciLexerBase@@@@Z 
01:0004B770 ?undoCollection@sciLexer@@SGXQAVsciLexerBase@@@PAUboolean_struct@_builtIn@@@Z 
01:0004B7DC ?beginUndoAction@sciLexer@@SAXQAVsciLexerBase@@@@Z 
01:0004B808 ?endUndoAction@sciLexer@@SAXQAVsciLexerBase@@@@Z 
01:0004B834 ?addUndoAction@sciLexer@@SAXQAVsciLexerBase@@@HH@Z 
01:0004B860 ?lineCount@sciLexer@@SGPBUlineNumber@@QAVsciLexerBase@@@@Z 
01:0004B8A4 ?firstVisibleLine@sciLexer@@SGXQAVsciLexerBase@@@PBUlineNumber@@@Z 
01:0004B8F8 ?firstVisibleLine@sciLexer@@SGPBUlineNumber@@QAVsciLexerBase@@@@Z 
01:0004B950 ?linesOnScreen@sciLexer@@SGHQAVsciLexerBase@@@@Z 
01:0004B994 ?isModified@sciLexer@@SAXQAVsciLexerBase@@@@Z 
01:0004B9DC ?setSel@sciLexer@@SAXQAVsciLexerBase@@@HH@Z 
01:0004BA08 ?gotoPos@sciLexer@@SAXQAVsciLexerBase@@@H@Z 
01:0004BA34 ?gotoLine@sciLexer@@SAXQAVsciLexerBase@@@PBUlineNumber@@@Z 
01:0004BA80 ?currentPos@sciLexer@@SGXQAVsciLexerBase@@@H@Z 
01:0004BAC0 ?currentPos@sciLexer@@SGHQAVsciLexerBase@@@@Z 
01:0004BB04 ?anchor@sciLexer@@SGXQAVsciLexerBase@@@H@Z 
01:0004BB44 ?anchor@sciLexer@@SGHQAVsciLexerBase@@@@Z 
01:0004BB88 ?selectionStart@sciLexer@@SGXQAVsciLexerBase@@@H@Z 
01:0004BBC8 ?selectionStart@sciLexer@@SGHQAVsciLexerBase@@@@Z 
01:0004BC0C ?selectionEnd@sciLexer@@SGXQAVsciLexerBase@@@H@Z 
01:0004BC4C ?selectionEnd@sciLexer@@SGHQAVsciLexerBase@@@@Z 
01:0004BC90 ?setEmptySelection@sciLexer@@SAXQAVsciLexerBase@@@H@Z 
01:0004BCBC ?selectAll@sciLexer@@SAXQAVsciLexerBase@@@@Z 
01:0004BCE8 ?_lineFromPosition@sciLexer@@SAXQAVsciLexerBase@@@HAAUlineNumber@@@Z 
01:0004BD38 ?_positionFromLine@sciLexer@@SAXQAVsciLexerBase@@@PBUlineNumber@@PAH@Z 
01:0004BD84 ?_getLineEndPosition@sciLexer@@SAXQAVsciLexerBase@@@PBUlineNumber@@PAH@Z 
01:0004BDD0 ?_lineLength@sciLexer@@SAXQAVsciLexerBase@@@PBUlineNumber@@PAH@Z 
01:0004BE1C ?selText@sciLexer@@SGPB_WQAVsciLexerBase@@@@Z 
01:0004BE60 ?selTextMultiple@sciLexer@@SGPB_WQAVsciLexerBase@@@@Z 
01:0004BF08 ?curLine@sciLexer@@SGPB_WQAVsciLexerBase@@@@Z 
01:0004BFB8 ?selectionIsRectangle@sciLexer@@SAXQAVsciLexerBase@@@@Z 
01:0004C000 ?selectionMode@sciLexer@@SGXQAVsciLexerBase@@@H@Z 
01:0004C040 ?selectionMode@sciLexer@@SGHQAVsciLexerBase@@@@Z 
01:0004C084 ?_tryGetLineSelStartPosition@sciLexer@@SAXQAVsciLexerBase@@@PBUlineNumber@@PAH@Z 
01:0004C0E4 ?_tryGetLineSelEndPosition@sciLexer@@SAXQAVsciLexerBase@@@PBUlineNumber@@PAH@Z 
01:0004C144 ?moveCaretInsideView@sciLexer@@SAXQAVsciLexerBase@@@@Z 
01:0004C170 ?_wordEndPosition@sciLexer@@SAXQAVsciLexerBase@@@HPAUboolean_struct@_builtIn@@PAH@Z 
01:0004C1BC ?_wordStartPosition@sciLexer@@SAXQAVsciLexerBase@@@HPAUboolean_struct@_builtIn@@PAH@Z 
01:0004C208 ?_tryPositionBefore@sciLexer@@SAXQAVsciLexerBase@@@HPAH@Z 
01:0004C240 ?_tryPositionAfter@sciLexer@@SAXQAVsciLexerBase@@@HPAH@Z 
01:0004C28C ?_countCharacters@sciLexer@@SAXQAVsciLexerBase@@@HHAAUcharCount@@@Z 
01:0004C2B8 ?_textWidth@sciLexer@@SAXQAVsciLexerBase@@@PBUsci_style@@PB_WPAH@Z 
01:0004C304 ?_textHeight@sciLexer@@SAXQAVsciLexerBase@@@PBUlineNumber@@PAH@Z 
01:0004C350 ?_getColumn@sciLexer@@SAXQAVsciLexerBase@@@HAAUlinePosition@@@Z 
01:0004C3A0 ?_findColumn@sciLexer@@SAXQAVsciLexerBase@@@PBUlineNumber@@PBUlinePosition@@PAH@Z 
01:0004C404 ?_positionFromPoint@sciLexer@@SAXQAVsciLexerBase@@@HHPAH@Z 
01:0004C430 ?_tryPositionFromPointClose@sciLexer@@SAXQAVsciLexerBase@@@HHPAH@Z 
01:0004C47C ?_charPositionFromPoint@sciLexer@@SAXQAVsciLexerBase@@@HHPAH@Z 
01:0004C4A8 ?_tryCharPositionFromPointClose@sciLexer@@SAXQAVsciLexerBase@@@HHPAH@Z 
01:0004C4F4 ?_pointXFromPosition@sciLexer@@SAXQAVsciLexerBase@@@HPAH@Z 
01:0004C520 ?_pointYFromPosition@sciLexer@@SAXQAVsciLexerBase@@@HPAH@Z 
01:0004C54C ?hideSelection@sciLexer@@SAXQAVsciLexerBase@@@PAUboolean_struct@_builtIn@@@Z 
01:0004C598 ?chooseCaretX@sciLexer@@SAXQAVsciLexerBase@@@@Z 
01:0004C5C4 ?moveSelectedLinesUp@sciLexer@@SAXQAVsciLexerBase@@@@Z 
01:0004C5F0 ?moveSelectedLinesDown@sciLexer@@SAXQAVsciLexerBase@@@@Z 
01:0004C61C ?multipleSelection@sciLexer@@SGXQAVsciLexerBase@@@PAUboolean_struct@_builtIn@@@Z 
01:0004C69C ?multipleSelection@sciLexer@@SGPAUboolean_struct@_builtIn@@QAVsciLexerBase@@@@Z 
01:0004C6F4 ?additionalSelectionTyping@sciLexer@@SGXQAVsciLexerBase@@@PAUboolean_struct@_builtIn@@@Z 
01:0004C748 ?additionalSelectionTyping@sciLexer@@SGPAUboolean_struct@_builtIn@@QAVsciLexerBase@@@@Z 
01:0004C7A0 ?multiPaste@sciLexer@@SGXQAVsciLexerBase@@@H@Z 
01:0004C7E0 ?multiPaste@sciLexer@@SGHQAVsciLexerBase@@@@Z 
01:0004C824 ?virtualSpaceOptions@sciLexer@@SGXQAVsciLexerBase@@@H@Z 
01:0004C864 ?virtualSpaceOptions@sciLexer@@SGHQAVsciLexerBase@@@@Z 
01:0004C8A8 ?selections@sciLexer@@SGHQAVsciLexerBase@@@@Z 
01:0004C8EC ?clearSelections@sciLexer@@SAXQAVsciLexerBase@@@@Z 
01:0004C918 ?setSelection@sciLexer@@SAXQAVsciLexerBase@@@HH@Z 
01:0004C944 ?addSelection@sciLexer@@SAXQAVsciLexerBase@@@HH@Z 
01:0004C970 ?mainSelection@sciLexer@@SGXQAVsciLexerBase@@@H@Z 
01:0004C9B0 ?mainSelection@sciLexer@@SGHQAVsciLexerBase@@@@Z 
01:0004C9F4 ?setSelectionNCaret@sciLexer@@SAXQAVsciLexerBase@@@HH@Z 
01:0004CA20 ?_getSelectionNCaret@sciLexer@@SAXQAVsciLexerBase@@@HPAH@Z 
01:0004CA4C ?setSelectionNCaretVirtualSpace@sciLexer@@SAXQAVsciLexerBase@@@HH@Z 
01:0004CA78 ?_getSelectionNCaretVirtualSpace@sciLexer@@SAXQAVsciLexerBase@@@HPAH@Z 
01:0004CAA4 ?setSelectionNAnchor@sciLexer@@SAXQAVsciLexerBase@@@HH@Z 
01:0004CAD0 ?_getSelectionNAnchor@sciLexer@@SAXQAVsciLexerBase@@@HPAH@Z 
01:0004CAFC ?setSelectionNAnchorVirtualSpace@sciLexer@@SAXQAVsciLexerBase@@@HH@Z 
01:0004CB28 ?_getSelectionNAnchorVirtualSpace@sciLexer@@SAXQAVsciLexerBase@@@HPAH@Z 
01:0004CB54 ?setSelectionNStart@sciLexer@@SAXQAVsciLexerBase@@@HH@Z 
01:0004CB80 ?_getSelectionNStart@sciLexer@@SAXQAVsciLexerBase@@@HPAH@Z 
01:0004CBAC ?setSelectionNEnd@sciLexer@@SAXQAVsciLexerBase@@@HH@Z 
01:0004CBD8 ?_getSelectionNEnd@sciLexer@@SAXQAVsciLexerBase@@@HPAH@Z 
01:0004CC04 ?rectangularSelectionCaret@sciLexer@@SGXQAVsciLexerBase@@@H@Z 
01:0004CC44 ?rectangularSelectionCaret@sciLexer@@SGHQAVsciLexerBase@@@@Z 
01:0004CC88 ?rectangularSelectionCaretVirtualSpace@sciLexer@@SGXQAVsciLexerBase@@@H@Z 
01:0004CCC8 ?rectangularSelectionCaretVirtualSpace@sciLexer@@SGHQAVsciLexerBase@@@@Z 
01:0004CD0C ?rectangularSelectionAnchor@sciLexer@@SGXQAVsciLexerBase@@@H@Z 
01:0004CD4C ?rectangularSelectionAnchor@sciLexer@@SGHQAVsciLexerBase@@@@Z 
01:0004CD90 ?rectangularSelectionAnchorVirtualSpace@sciLexer@@SGXQAVsciLexerBase@@@H@Z 
01:0004CDD0 ?rectangularSelectionAnchorVirtualSpace@sciLexer@@SGHQAVsciLexerBase@@@@Z 
01:0004CE14 ?additionalSelAlpha@sciLexer@@SGXQAVsciLexerBase@@@H@Z 
01:0004CE54 ?additionalSelAlpha@sciLexer@@SGHQAVsciLexerBase@@@@Z 
01:0004CE98 ?setAdditionalSelFore@sciLexer@@SAXQAVsciLexerBase@@@H@Z 
01:0004CEC4 ?setAdditionalSelBack@sciLexer@@SAXQAVsciLexerBase@@@H@Z 
01:0004CEF0 ?additionalCaretFore@sciLexer@@SGXQAVsciLexerBase@@@H@Z 
01:0004CF30 ?additionalCaretFore@sciLexer@@SGHQAVsciLexerBase@@@@Z 
01:0004CF74 ?additionalCaretsBlink@sciLexer@@SGXQAVsciLexerBase@@@PAUboolean_struct@_builtIn@@@Z 
01:0004CFC8 ?additionalCaretsBlink@sciLexer@@SGPAUboolean_struct@_builtIn@@QAVsciLexerBase@@@@Z 
01:0004D020 ?additionalCaretsVisible@sciLexer@@SGXQAVsciLexerBase@@@PAUboolean_struct@_builtIn@@@Z 
01:0004D074 ?additionalCaretsVisible@sciLexer@@SGPAUboolean_struct@_builtIn@@QAVsciLexerBase@@@@Z 
01:0004D0CC ?swapMainAnchorCaret@sciLexer@@SAXQAVsciLexerBase@@@@Z 
01:0004D0F8 ?rotateSelection@sciLexer@@SAXQAVsciLexerBase@@@@Z 
01:0004D124 ?lineScroll@sciLexer@@SAXQAVsciLexerBase@@@PBUlinePosition@@PBUlineNumber@@@Z 
01:0004D188 ?scrollCaret@sciLexer@@SAXQAVsciLexerBase@@@@Z 
01:0004D1B4 ?setXCaretPolicy@sciLexer@@SAXQAVsciLexerBase@@@HH@Z 
01:0004D1E0 ?setYCaretPolicy@sciLexer@@SAXQAVsciLexerBase@@@HH@Z 
01:0004D20C ?setVisiblePolicy@sciLexer@@SAXQAVsciLexerBase@@@HH@Z 
01:0004D238 ?hScrollbar@sciLexer@@SGXQAVsciLexerBase@@@PAUboolean_struct@_builtIn@@@Z 
01:0004D28C ?hScrollbar@sciLexer@@SGPAUboolean_struct@_builtIn@@QAVsciLexerBase@@@@Z 
01:0004D2E4 ?vScrollbar@sciLexer@@SGXQAVsciLexerBase@@@PAUboolean_struct@_builtIn@@@Z 
01:0004D338 ?vScrollbar@sciLexer@@SGPAUboolean_struct@_builtIn@@QAVsciLexerBase@@@@Z 
01:0004D390 ?xOffset@sciLexer@@SGXQAVsciLexerBase@@@H@Z 
01:0004D3D0 ?xOffset@sciLexer@@SGHQAVsciLexerBase@@@@Z 
01:0004D414 ?scrollWidth@sciLexer@@SGXQAVsciLexerBase@@@H@Z 
01:0004D454 ?scrollWidth@sciLexer@@SGHQAVsciLexerBase@@@@Z 
01:0004D498 ?scrollWidthTracking@sciLexer@@SGXQAVsciLexerBase@@@PAUboolean_struct@_builtIn@@@Z 
01:0004D4EC ?scrollWidthTracking@sciLexer@@SGPAUboolean_struct@_builtIn@@QAVsciLexerBase@@@@Z 
01:0004D544 ?endatLastLine@sciLexer@@SGXQAVsciLexerBase@@@PAUboolean_struct@_builtIn@@@Z 
01:0004D598 ?endatLastLine@sciLexer@@SGPAUboolean_struct@_builtIn@@QAVsciLexerBase@@@@Z 
01:0004D5F0 ?viewWs@sciLexer@@SGXQAVsciLexerBase@@@H@Z 
01:0004D630 ?viewWs@sciLexer@@SGHQAVsciLexerBase@@@@Z 
01:0004D674 ?setWhiteSpaceFore@sciLexer@@SAXQAVsciLexerBase@@@PAUboolean_struct@_builtIn@@H@Z 
01:0004D6C0 ?setWhiteSpaceBack@sciLexer@@SAXQAVsciLexerBase@@@PAUboolean_struct@_builtIn@@H@Z 
01:0004D70C ?whiteSpaceSize@sciLexer@@SGXQAVsciLexerBase@@@H@Z 
01:0004D74C ?whiteSpaceSize@sciLexer@@SGHQAVsciLexerBase@@@@Z 
01:0004D790 ?extraAscent@sciLexer@@SGXQAVsciLexerBase@@@H@Z 
01:0004D7D0 ?extraAscent@sciLexer@@SGHQAVsciLexerBase@@@@Z 
01:0004D814 ?extraDescent@sciLexer@@SGXQAVsciLexerBase@@@H@Z 
01:0004D854 ?extraDescent@sciLexer@@SGHQAVsciLexerBase@@@@Z 
01:0004D898 ?cursor@sciLexer@@SGXQAVsciLexerBase@@@H@Z 
01:0004D8D8 ?cursor@sciLexer@@SGHQAVsciLexerBase@@@@Z 
01:0004D91C ?mousedownCaptures@sciLexer@@SGXQAVsciLexerBase@@@PAUboolean_struct@_builtIn@@@Z 
01:0004D970 ?mousedownCaptures@sciLexer@@SGPAUboolean_struct@_builtIn@@QAVsciLexerBase@@@@Z 
01:0004D9C8 ?eolMode@sciLexer@@SGXQAVsciLexerBase@@@H@Z 
01:0004DA08 ?eolMode@sciLexer@@SGHQAVsciLexerBase@@@@Z 
01:0004DA4C ?convertEols@sciLexer@@SAXQAVsciLexerBase@@@H@Z 
01:0004DA78 ?viewEol@sciLexer@@SGXQAVsciLexerBase@@@PAUboolean_struct@_builtIn@@@Z 
01:0004DACC ?viewEol@sciLexer@@SGPAUboolean_struct@_builtIn@@QAVsciLexerBase@@@@Z 
01:0004DB24 ?endStyled@sciLexer@@SGHQAVsciLexerBase@@@@Z 
01:0004DB68 ?startStyling@sciLexer@@SAXQAVsciLexerBase@@@HH@Z 
01:0004DB94 ?setStyling@sciLexer@@SAXQAVsciLexerBase@@@HH@Z 
01:0004DBC0 ?setStylingeX@sciLexer@@SAXQAVsciLexerBase@@@HPB_W@Z 
01:0004DC0C ?setLineState@sciLexer@@SAXQAVsciLexerBase@@@PBUlineNumber@@H@Z 
01:0004DC58 ?_getLineState@sciLexer@@SAXQAVsciLexerBase@@@PBUlineNumber@@PAH@Z 
01:0004DCA4 ?maxLineState@sciLexer@@SGPBUlineNumber@@QAVsciLexerBase@@@@Z 
01:0004DCFC ?styleResetDefault@sciLexer@@SAXQAVsciLexerBase@@@@Z 
01:0004DD28 ?styleClearAll@sciLexer@@SAXQAVsciLexerBase@@@@Z 
01:0004DD54 ?styleSetFont@sciLexer@@SAXQAVsciLexerBase@@@PBUsci_style@@PB_W@Z 
01:0004DDA0 ?_styleGetFont@sciLexer@@SAXQAVsciLexerBase@@@PBUsci_style@@PAPB_W@Z 
01:0004DDFC ?styleSetSize@sciLexer@@SAXQAVsciLexerBase@@@PBUsci_style@@H@Z 
01:0004DE28 ?_styleGetSize@sciLexer@@SAXQAVsciLexerBase@@@PBUsci_style@@PAH@Z 
01:0004DE54 ?styleSetSizeFractional@sciLexer@@SAXQAVsciLexerBase@@@PBUsci_style@@H@Z 
01:0004DE80 ?_styleGetSizeFractional@sciLexer@@SAXQAVsciLexerBase@@@PBUsci_style@@PAH@Z 
01:0004DEAC ?styleSetBold@sciLexer@@SAXQAVsciLexerBase@@@PBUsci_style@@PAUboolean_struct@_builtIn@@@Z 
01:0004DEF8 ?_styleGetBold@sciLexer@@SAXQAVsciLexerBase@@@PBUsci_style@@PAPAUboolean_struct@_builtIn@@@Z 
01:0004DF48 ?styleSetWeight@sciLexer@@SAXQAVsciLexerBase@@@PBUsci_style@@H@Z 
01:0004DF74 ?_styleGetWeight@sciLexer@@SAXQAVsciLexerBase@@@PBUsci_style@@PAH@Z 
01:0004DFA0 ?styleSetItalic@sciLexer@@SAXQAVsciLexerBase@@@PBUsci_style@@PAUboolean_struct@_builtIn@@@Z 
01:0004DFEC ?_styleGetItalic@sciLexer@@SAXQAVsciLexerBase@@@PBUsci_style@@PAPAUboolean_struct@_builtIn@@@Z 
01:0004E03C ?styleSetUnderline@sciLexer@@SAXQAVsciLexerBase@@@PBUsci_style@@PAUboolean_struct@_builtIn@@@Z 
01:0004E088 ?_styleGetUnderline@sciLexer@@SAXQAVsciLexerBase@@@PBUsci_style@@PAPAUboolean_struct@_builtIn@@@Z 
01:0004E0D8 ?styleSetFore@sciLexer@@SAXQAVsciLexerBase@@@PBUsci_style@@H@Z 
01:0004E104 ?_styleGetFore@sciLexer@@SAXQAVsciLexerBase@@@PBUsci_style@@PAH@Z 
01:0004E130 ?styleSetBack@sciLexer@@SAXQAVsciLexerBase@@@PBUsci_style@@H@Z 
01:0004E15C ?_styleGetBack@sciLexer@@SAXQAVsciLexerBase@@@PBUsci_style@@PAH@Z 
01:0004E188 ?styleSetEolFilled@sciLexer@@SAXQAVsciLexerBase@@@PBUsci_style@@PAUboolean_struct@_builtIn@@@Z 
01:0004E1D4 ?_styleGetEolFilled@sciLexer@@SAXQAVsciLexerBase@@@PBUsci_style@@PAPAUboolean_struct@_builtIn@@@Z 
01:0004E224 ?styleSetCase@sciLexer@@SAXQAVsciLexerBase@@@PBUsci_style@@H@Z 
01:0004E250 ?_styleGetCase@sciLexer@@SAXQAVsciLexerBase@@@PBUsci_style@@PAH@Z 
01:0004E27C ?styleSetVisible@sciLexer@@SAXQAVsciLexerBase@@@PBUsci_style@@PAUboolean_struct@_builtIn@@@Z 
01:0004E2C8 ?_styleGetVisible@sciLexer@@SAXQAVsciLexerBase@@@PBUsci_style@@PAPAUboolean_struct@_builtIn@@@Z 
01:0004E318 ?styleSetChangeable@sciLexer@@SAXQAVsciLexerBase@@@PBUsci_style@@PAUboolean_struct@_builtIn@@@Z 
01:0004E364 ?_styleGetChangeable@sciLexer@@SAXQAVsciLexerBase@@@PBUsci_style@@PAPAUboolean_struct@_builtIn@@@Z 
01:0004E3B4 ?styleSetHotSpot@sciLexer@@SAXQAVsciLexerBase@@@PBUsci_style@@PAUboolean_struct@_builtIn@@@Z 
01:0004E400 ?_styleGetHotSpot@sciLexer@@SAXQAVsciLexerBase@@@PBUsci_style@@PAPAUboolean_struct@_builtIn@@@Z 
01:0004E450 ?setSelFore@sciLexer@@SAXQAVsciLexerBase@@@PAUboolean_struct@_builtIn@@H@Z 
01:0004E49C ?setSelBack@sciLexer@@SAXQAVsciLexerBase@@@PAUboolean_struct@_builtIn@@H@Z 
01:0004E4E8 ?selAlpha@sciLexer@@SGXQAVsciLexerBase@@@H@Z 
01:0004E528 ?selAlpha@sciLexer@@SGHQAVsciLexerBase@@@@Z 
01:0004E56C ?selEolFilled@sciLexer@@SGXQAVsciLexerBase@@@PAUboolean_struct@_builtIn@@@Z 
01:0004E5C0 ?selEolFilled@sciLexer@@SGPAUboolean_struct@_builtIn@@QAVsciLexerBase@@@@Z 
01:0004E618 ?caretFore@sciLexer@@SGXQAVsciLexerBase@@@H@Z 
01:0004E658 ?caretFore@sciLexer@@SGHQAVsciLexerBase@@@@Z 
01:0004E69C ?caretLineVisible@sciLexer@@SGXQAVsciLexerBase@@@PAUboolean_struct@_builtIn@@@Z 
01:0004E6F0 ?caretLineVisible@sciLexer@@SGPAUboolean_struct@_builtIn@@QAVsciLexerBase@@@@Z 
01:0004E748 ?caretLineBack@sciLexer@@SGXQAVsciLexerBase@@@H@Z 
01:0004E788 ?caretLineBack@sciLexer@@SGHQAVsciLexerBase@@@@Z 
01:0004E7CC ?caretLineBackAlpha@sciLexer@@SGXQAVsciLexerBase@@@H@Z 
01:0004E80C ?caretLineBackAlpha@sciLexer@@SGHQAVsciLexerBase@@@@Z 
01:0004E850 ?caretPeriod@sciLexer@@SGXQAVsciLexerBase@@@H@Z 
01:0004E890 ?caretPeriod@sciLexer@@SGHQAVsciLexerBase@@@@Z 
01:0004E8D4 ?caretStyle@sciLexer@@SGXQAVsciLexerBase@@@H@Z 
01:0004E914 ?caretStyle@sciLexer@@SGHQAVsciLexerBase@@@@Z 
01:0004E958 ?caretWidth@sciLexer@@SGXQAVsciLexerBase@@@H@Z 
01:0004E998 ?caretWidth@sciLexer@@SGHQAVsciLexerBase@@@@Z 
01:0004E9DC ?setHotSpotActiveFore@sciLexer@@SAXQAVsciLexerBase@@@PAUboolean_struct@_builtIn@@H@Z 
01:0004EA28 ?_getHotSpotActiveFore@sciLexer@@SAXQAVsciLexerBase@@@PAH@Z 
01:0004EA54 ?setHotSpotActiveBack@sciLexer@@SAXQAVsciLexerBase@@@PAUboolean_struct@_builtIn@@H@Z 
01:0004EAA0 ?_getHotSpotActiveBack@sciLexer@@SAXQAVsciLexerBase@@@PAH@Z 
01:0004EACC ?hotSpotActiveUnderline@sciLexer@@SGXQAVsciLexerBase@@@PAUboolean_struct@_builtIn@@@Z 
01:0004EB20 ?hotSpotActiveUnderline@sciLexer@@SGPAUboolean_struct@_builtIn@@QAVsciLexerBase@@@@Z 
01:0004EB78 ?hotSpotSingleLine@sciLexer@@SGXQAVsciLexerBase@@@PAUboolean_struct@_builtIn@@@Z 
01:0004EBCC ?hotSpotSingleLine@sciLexer@@SGPAUboolean_struct@_builtIn@@QAVsciLexerBase@@@@Z 
01:0004EC24 ?controlCharSymbol@sciLexer@@SGXQAVsciLexerBase@@@H@Z 
01:0004EC64 ?controlCharSymbol@sciLexer@@SGHQAVsciLexerBase@@@@Z 
01:0004ECA8 ?caretSticky@sciLexer@@SGXQAVsciLexerBase@@@H@Z 
01:0004ECE8 ?caretSticky@sciLexer@@SGHQAVsciLexerBase@@@@Z 
01:0004ED2C ?toggleCaretSticky@sciLexer@@SAXQAVsciLexerBase@@@@Z 
01:0004ED58 ?setMarginTypeN@sciLexer@@SAXQAVsciLexerBase@@@HH@Z 
01:0004ED84 ?_getMarginTypeN@sciLexer@@SAXQAVsciLexerBase@@@HPAH@Z 
01:0004EDB0 ?setMarginWidthN@sciLexer@@SAXQAVsciLexerBase@@@HH@Z 
01:0004EDDC ?_getMarginWidthN@sciLexer@@SAXQAVsciLexerBase@@@HPAH@Z 
01:0004EE08 ?setMarginMaskN@sciLexer@@SAXQAVsciLexerBase@@@HI@Z 
01:0004EE34 ?_getMarginMaskN@sciLexer@@SAXQAVsciLexerBase@@@HPAI@Z 
01:0004EE60 ?setMarginSensitiveN@sciLexer@@SAXQAVsciLexerBase@@@HPAUboolean_struct@_builtIn@@@Z 
01:0004EEAC ?_getMarginSensitiveN@sciLexer@@SAXQAVsciLexerBase@@@HPAH@Z 
01:0004EED8 ?setMarginCursorN@sciLexer@@SAXQAVsciLexerBase@@@HH@Z 
01:0004EF04 ?_getMarginCursorN@sciLexer@@SAXQAVsciLexerBase@@@HPAH@Z 
01:0004EF30 ?marginLeft@sciLexer@@SGXQAVsciLexerBase@@@H@Z 
01:0004EF70 ?marginLeft@sciLexer@@SGHQAVsciLexerBase@@@@Z 
01:0004EFB4 ?marginRight@sciLexer@@SGXQAVsciLexerBase@@@H@Z 
01:0004EFF4 ?marginRight@sciLexer@@SGHQAVsciLexerBase@@@@Z 
01:0004F038 ?setFoldmarginColor@sciLexer@@SAXQAVsciLexerBase@@@PAUboolean_struct@_builtIn@@H@Z 
01:0004F084 ?setFoldmarginhiColor@sciLexer@@SAXQAVsciLexerBase@@@PAUboolean_struct@_builtIn@@H@Z 
01:0004F0D0 ?marginSetText@sciLexer@@SAXQAVsciLexerBase@@@PBUlineNumber@@PB_W@Z 
01:0004F134 ?_marginGetText@sciLexer@@SAXQAVsciLexerBase@@@PBUlineNumber@@PAPB_W@Z 
01:0004F1A4 ?marginSetStyle@sciLexer@@SAXQAVsciLexerBase@@@PBUlineNumber@@H@Z 
01:0004F1F0 ?_marginGetStyle@sciLexer@@SAXQAVsciLexerBase@@@PBUlineNumber@@PAH@Z 
01:0004F23C ?marginSetStyles@sciLexer@@SAXQAVsciLexerBase@@@PBUlineNumber@@PB_W@Z 
01:0004F2A0 ?_marginGetStyles@sciLexer@@SAXQAVsciLexerBase@@@PBUlineNumber@@PAPB_W@Z 
01:0004F310 ?marginTextClearAll@sciLexer@@SAXQAVsciLexerBase@@@@Z 
01:0004F33C ?marginSetStyleOffset@sciLexer@@SAXQAVsciLexerBase@@@H@Z 
01:0004F368 ?_marginGetStyleOffset@sciLexer@@SAXQAVsciLexerBase@@@PAH@Z 
01:0004F394 ?annotationSetText@sciLexer@@SAXQAVsciLexerBase@@@PBUlineNumber@@PB_W@Z 
01:0004F3F8 ?_annotationGetText@sciLexer@@SAXQAVsciLexerBase@@@PBUlineNumber@@PAPB_W@Z 
01:0004F468 ?annotationSetStyle@sciLexer@@SAXQAVsciLexerBase@@@PBUlineNumber@@H@Z 
01:0004F4B4 ?_annotationGetStyle@sciLexer@@SAXQAVsciLexerBase@@@PBUlineNumber@@PAH@Z 
01:0004F500 ?annotationSetStyles@sciLexer@@SAXQAVsciLexerBase@@@PBUlineNumber@@PB_W@Z 
01:0004F564 ?_annotationGetStyles@sciLexer@@SAXQAVsciLexerBase@@@PBUlineNumber@@PAPB_W@Z 
01:0004F5D4 ?_annotationGetLines@sciLexer@@SAXQAVsciLexerBase@@@PBUlineNumber@@PAH@Z 
01:0004F620 ?annotationClearAll@sciLexer@@SAXQAVsciLexerBase@@@@Z 
01:0004F64C ?annotationVisible@sciLexer@@SGXQAVsciLexerBase@@@H@Z 
01:0004F68C ?annotationVisible@sciLexer@@SGHQAVsciLexerBase@@@@Z 
01:0004F6D0 ?annotationStyleOffset@sciLexer@@SGXQAVsciLexerBase@@@H@Z 
01:0004F710 ?annotationStyleOffset@sciLexer@@SGHQAVsciLexerBase@@@@Z 
01:0004F754 ?bufferedDraw@sciLexer@@SGXQAVsciLexerBase@@@PAUboolean_struct@_builtIn@@@Z 
01:0004F7A8 ?bufferedDraw@sciLexer@@SGPAUboolean_struct@_builtIn@@QAVsciLexerBase@@@@Z 
01:0004F800 ?twoPhaseDraw@sciLexer@@SGXQAVsciLexerBase@@@PAUboolean_struct@_builtIn@@@Z 
01:0004F854 ?twoPhaseDraw@sciLexer@@SGPAUboolean_struct@_builtIn@@QAVsciLexerBase@@@@Z 
01:0004F8AC ?technology@sciLexer@@SGXQAVsciLexerBase@@@H@Z 
01:0004F8EC ?technology@sciLexer@@SGHQAVsciLexerBase@@@@Z 
01:0004F930 ?fontQuality@sciLexer@@SGXQAVsciLexerBase@@@H@Z 
01:0004F970 ?fontQuality@sciLexer@@SGHQAVsciLexerBase@@@@Z 
01:0004F9B4 ?codepage@sciLexer@@SGXQAVsciLexerBase@@@PBUcodePageId@@@Z 
01:0004F9F4 ?codepage@sciLexer@@SGPBUcodePageId@@QAVsciLexerBase@@@@Z 
01:0004FA38 ?keysUnicode@sciLexer@@SGXQAVsciLexerBase@@@PAUboolean_struct@_builtIn@@@Z 
01:0004FA8C ?keysUnicode@sciLexer@@SGPAUboolean_struct@_builtIn@@QAVsciLexerBase@@@@Z 
01:0004FAE4 ?setWordChars@sciLexer@@SAXQAVsciLexerBase@@@PB_W@Z 
01:0004FB30 ?setWhiteSpaceChars@sciLexer@@SAXQAVsciLexerBase@@@PB_W@Z 
01:0004FB7C ?setCharsDefault@sciLexer@@SAXQAVsciLexerBase@@@@Z 
01:0004FBA8 ?grabFocus@sciLexer@@SAXQAVsciLexerBase@@@@Z 
01:0004FBD4 ?focus@sciLexer@@SGXQAVsciLexerBase@@@PAUboolean_struct@_builtIn@@@Z 
01:0004FC28 ?focus@sciLexer@@SGPAUboolean_struct@_builtIn@@QAVsciLexerBase@@@@Z 
01:0004FC80 ?braceHighLight@sciLexer@@SAXQAVsciLexerBase@@@HH@Z 
01:0004FCAC ?braceBadLight@sciLexer@@SAXQAVsciLexerBase@@@H@Z 
01:0004FCD8 ?braceHighlightIndicator@sciLexer@@SAXQAVsciLexerBase@@@PAUboolean_struct@_builtIn@@H@Z 
01:0004FD24 ?braceBadlightIndicator@sciLexer@@SAXQAVsciLexerBase@@@PAUboolean_struct@_builtIn@@H@Z 
01:0004FD70 ?_tryBraceMatch@sciLexer@@SAXQAVsciLexerBase@@@HHPAH@Z 
01:0004FDBC ?tabWidth@sciLexer@@SGXQAVsciLexerBase@@@PBUcharCount@@@Z 
01:0004FDFC ?tabWidth@sciLexer@@SGPBUcharCount@@QAVsciLexerBase@@@@Z 
01:0004FE40 ?useTabs@sciLexer@@SGXQAVsciLexerBase@@@PAUboolean_struct@_builtIn@@@Z 
01:0004FE94 ?useTabs@sciLexer@@SGPAUboolean_struct@_builtIn@@QAVsciLexerBase@@@@Z 
01:0004FEEC ?indent@sciLexer@@SGXQAVsciLexerBase@@@H@Z 
01:0004FF2C ?indent@sciLexer@@SGHQAVsciLexerBase@@@@Z 
01:0004FF70 ?tabIndents@sciLexer@@SGXQAVsciLexerBase@@@PAUboolean_struct@_builtIn@@@Z 
01:0004FFC4 ?tabIndents@sciLexer@@SGPAUboolean_struct@_builtIn@@QAVsciLexerBase@@@@Z 
01:0005001C ?backSpaceUnIndents@sciLexer@@SGXQAVsciLexerBase@@@PAUboolean_struct@_builtIn@@@Z 
01:00050070 ?backSpaceUnIndents@sciLexer@@SGPAUboolean_struct@_builtIn@@QAVsciLexerBase@@@@Z 
01:000500C8 ?setLineIndentation@sciLexer@@SAXQAVsciLexerBase@@@PBUlineNumber@@PBUlinePosition@@@Z 
01:00050114 ?_getLineIndentation@sciLexer@@SAXQAVsciLexerBase@@@PBUlineNumber@@AAUlinePosition@@@Z 
01:00050160 ?_getLineIndentPosition@sciLexer@@SAXQAVsciLexerBase@@@PBUlineNumber@@PAH@Z 
01:000501AC ?indentationGuides@sciLexer@@SGXQAVsciLexerBase@@@H@Z 
01:000501EC ?indentationGuides@sciLexer@@SGHQAVsciLexerBase@@@@Z 
01:00050230 ?highLightGuide@sciLexer@@SGXQAVsciLexerBase@@@H@Z 
01:00050270 ?highLightGuide@sciLexer@@SGHQAVsciLexerBase@@@@Z 
01:000502B4 ?markerDefine@sciLexer@@SAXQAVsciLexerBase@@@HH@Z 
01:000502E0 ?markerDefinePixmap@sciLexer@@SAXQAVsciLexerBase@@@HPAD@Z 
01:0005030C ?markerDefineRgbaImage@sciLexer@@SAXQAVsciLexerBase@@@HHHPAD@Z 
01:0005039C ?_markerSymbolDefined@sciLexer@@SAXQAVsciLexerBase@@@HPAH@Z 
01:000503C8 ?markerSetFore@sciLexer@@SAXQAVsciLexerBase@@@HH@Z 
01:000503F4 ?markerSetBack@sciLexer@@SAXQAVsciLexerBase@@@HH@Z 
01:00050420 ?markerSetBackSelected@sciLexer@@SAXQAVsciLexerBase@@@HH@Z 
01:0005044C ?markerEnableHighlight@sciLexer@@SAXQAVsciLexerBase@@@PAUboolean_struct@_builtIn@@@Z 
01:00050498 ?markerSetAlpha@sciLexer@@SAXQAVsciLexerBase@@@HH@Z 
01:000504C4 ?_tryMarkerAdd@sciLexer@@SAXQAVsciLexerBase@@@PBUlineNumber@@HPAH@Z 
01:00050528 ?markerAddset@sciLexer@@SAXQAVsciLexerBase@@@PBUlineNumber@@H@Z 
01:00050574 ?markerDelete@sciLexer@@SAXQAVsciLexerBase@@@PBUlineNumber@@H@Z 
01:000505C0 ?markerDeleteAll@sciLexer@@SAXQAVsciLexerBase@@@H@Z 
01:000505EC ?_markerGet@sciLexer@@SAXQAVsciLexerBase@@@PBUlineNumber@@PAH@Z 
01:00050638 ?_tryMarkerNext@sciLexer@@SAXQAVsciLexerBase@@@HHAAUlineNumber@@@Z 
01:00050694 ?_tryMarkerPrevious@sciLexer@@SAXQAVsciLexerBase@@@HHAAUlineNumber@@@Z 
01:000506F0 ?_tryMarkerLineFromHandle@sciLexer@@SAXQAVsciLexerBase@@@HAAUlineNumber@@@Z 
01:00050748 ?markerDeleteHandle@sciLexer@@SAXQAVsciLexerBase@@@H@Z 
01:00050774 ?indicSetStyle@sciLexer@@SAXQAVsciLexerBase@@@HH@Z 
01:000507A0 ?_indicGetStyle@sciLexer@@SAXQAVsciLexerBase@@@HPAH@Z 
01:000507CC ?indicSetFore@sciLexer@@SAXQAVsciLexerBase@@@HH@Z 
01:000507F8 ?_indicGetFore@sciLexer@@SAXQAVsciLexerBase@@@HPAH@Z 
01:00050824 ?indicSetAlpha@sciLexer@@SAXQAVsciLexerBase@@@HH@Z 
01:00050850 ?_indicGetAlpha@sciLexer@@SAXQAVsciLexerBase@@@HPAH@Z 
01:0005087C ?indicSetOutlineAlpha@sciLexer@@SAXQAVsciLexerBase@@@HH@Z 
01:000508A8 ?_indicGetOutlineAlpha@sciLexer@@SAXQAVsciLexerBase@@@HPAH@Z 
01:000508D4 ?indicSetUnder@sciLexer@@SAXQAVsciLexerBase@@@HPAUboolean_struct@_builtIn@@@Z 
01:00050920 ?indicGetUnder@sciLexer@@SAXQAVsciLexerBase@@@H@Z 
01:0005094C ?indicatorCurrent@sciLexer@@SGXQAVsciLexerBase@@@H@Z 
01:0005098C ?indicatorCurrent@sciLexer@@SGHQAVsciLexerBase@@@@Z 
01:000509D0 ?indicatorValue@sciLexer@@SGXQAVsciLexerBase@@@H@Z 
01:00050A10 ?indicatorValue@sciLexer@@SGHQAVsciLexerBase@@@@Z 
01:00050A54 ?indicatorfillRange@sciLexer@@SAXQAVsciLexerBase@@@HH@Z 
01:00050A80 ?indicatorClearRange@sciLexer@@SAXQAVsciLexerBase@@@HH@Z 
01:00050AAC ?_indicatorAllOnFor@sciLexer@@SAXQAVsciLexerBase@@@HPAI@Z 
01:00050AD8 ?indicatorValueAt@sciLexer@@SAXQAVsciLexerBase@@@HH@Z 
01:00050B04 ?_indicatorStart@sciLexer@@SAXQAVsciLexerBase@@@HHPAH@Z 
01:00050B30 ?_indicatorEnd@sciLexer@@SAXQAVsciLexerBase@@@HHPAH@Z 
01:00050B5C ?autoCShow@sciLexer@@SAXQAVsciLexerBase@@@HPB_W@Z 
01:00050BA8 ?autoCCancel@sciLexer@@SAXQAVsciLexerBase@@@@Z 
01:00050BD4 ?_autoCActive@sciLexer@@SAXQAVsciLexerBase@@@PAPAUboolean_struct@_builtIn@@@Z 
01:00050C18 ?autoCPosStart@sciLexer@@SGHQAVsciLexerBase@@@@Z 
01:00050C5C ?autoCComplete@sciLexer@@SAXQAVsciLexerBase@@@@Z 
01:00050C88 ?autoCStops@sciLexer@@SAXQAVsciLexerBase@@@PB_W@Z 
01:00050CD4 ?autoCSeparator@sciLexer@@SGXQAVsciLexerBase@@@_W@Z 
01:00050D2C ?autoCSeparator@sciLexer@@SG_WQAVsciLexerBase@@@@Z 
01:00050D84 ?autoCSelect@sciLexer@@SAXQAVsciLexerBase@@@PB_W@Z 
01:00050DD0 ?autoCCurrent@sciLexer@@SGHQAVsciLexerBase@@@@Z 
01:00050E14 ?autoCCurrentText@sciLexer@@SGPB_WQAVsciLexerBase@@@@Z 
01:00050EBC ?autoCCancelatStart@sciLexer@@SGXQAVsciLexerBase@@@PAUboolean_struct@_builtIn@@@Z 
01:00050F10 ?autoCCancelatStart@sciLexer@@SGPAUboolean_struct@_builtIn@@QAVsciLexerBase@@@@Z 
01:00050F68 ?autoCFillups@sciLexer@@SGXQAVsciLexerBase@@@PB_W@Z 
01:00050FBC ?autoCChooseSingle@sciLexer@@SGXQAVsciLexerBase@@@PAUboolean_struct@_builtIn@@@Z 
01:00051010 ?autoCChooseSingle@sciLexer@@SGPAUboolean_struct@_builtIn@@QAVsciLexerBase@@@@Z 
01:00051068 ?autoCIgnoreCase@sciLexer@@SGXQAVsciLexerBase@@@PAUboolean_struct@_builtIn@@@Z 
01:000510BC ?autoCIgnoreCase@sciLexer@@SGPAUboolean_struct@_builtIn@@QAVsciLexerBase@@@@Z 
01:00051114 ?autoCCaseInsensitiveBehaviour@sciLexer@@SGXQAVsciLexerBase@@@H@Z 
01:00051154 ?autoCCaseInsensitiveBehaviour@sciLexer@@SGHQAVsciLexerBase@@@@Z 
01:00051198 ?autoCAutoHide@sciLexer@@SGXQAVsciLexerBase@@@PAUboolean_struct@_builtIn@@@Z 
01:000511EC ?autoCAutoHide@sciLexer@@SGPAUboolean_struct@_builtIn@@QAVsciLexerBase@@@@Z 
01:00051244 ?autoCDropRestOfWord@sciLexer@@SGXQAVsciLexerBase@@@PAUboolean_struct@_builtIn@@@Z 
01:00051298 ?autoCDropRestOfWord@sciLexer@@SGPAUboolean_struct@_builtIn@@QAVsciLexerBase@@@@Z 
01:000512F0 ?registerImage@sciLexer@@SAXQAVsciLexerBase@@@HPAD@Z 
01:0005131C ?registerRgbaImage@sciLexer@@SAXQAVsciLexerBase@@@HHHPAD@Z 
01:000513AC ?clearRegisteredImages@sciLexer@@SAXQAVsciLexerBase@@@@Z 
01:000513D8 ?autoCTypeSeparator@sciLexer@@SGXQAVsciLexerBase@@@_W@Z 
01:00051430 ?autoCTypeSeparator@sciLexer@@SG_WQAVsciLexerBase@@@@Z 
01:00051488 ?autoCMaxHeight@sciLexer@@SGXQAVsciLexerBase@@@H@Z 
01:000514C8 ?autoCMaxHeight@sciLexer@@SGHQAVsciLexerBase@@@@Z 
01:0005150C ?autoCMaxWidth@sciLexer@@SGXQAVsciLexerBase@@@H@Z 
01:0005154C ?autoCMaxWidth@sciLexer@@SGHQAVsciLexerBase@@@@Z 
01:00051590 ?userListShow@sciLexer@@SAXQAVsciLexerBase@@@HPB_W@Z 
01:000515DC ?calltipShow@sciLexer@@SAXQAVsciLexerBase@@@HPB_W@Z 
01:00051628 ?calltipCancel@sciLexer@@SAXQAVsciLexerBase@@@@Z 
01:00051654 ?calltipActive@sciLexer@@SAXQAVsciLexerBase@@@@Z 
01:00051680 ?calltipPosStart@sciLexer@@SAXQAVsciLexerBase@@@@Z 
01:000516AC ?calltipSetHlt@sciLexer@@SAXQAVsciLexerBase@@@HH@Z 
01:000516D8 ?calltipsetBack@sciLexer@@SAXQAVsciLexerBase@@@H@Z 
01:00051704 ?calltipsetFore@sciLexer@@SAXQAVsciLexerBase@@@H@Z 
01:00051730 ?calltipForeHlt@sciLexer@@SGXQAVsciLexerBase@@@H@Z 
01:00051770 ?calltipUseStyle@sciLexer@@SAXQAVsciLexerBase@@@H@Z 
01:0005179C ?calltipSetPosition@sciLexer@@SAXQAVsciLexerBase@@@PAUboolean_struct@_builtIn@@@Z 
01:000517E8 ?lineDown@sciLexer@@SAXQAVsciLexerBase@@@@Z 
01:00051814 ?lineDownExtend@sciLexer@@SAXQAVsciLexerBase@@@@Z 
01:00051840 ?lineDownRectExtend@sciLexer@@SAXQAVsciLexerBase@@@@Z 
01:0005186C ?lineScrollDown@sciLexer@@SAXQAVsciLexerBase@@@@Z 
01:00051898 ?lineUp@sciLexer@@SAXQAVsciLexerBase@@@@Z 
01:000518C4 ?lineUpExtend@sciLexer@@SAXQAVsciLexerBase@@@@Z 
01:000518F0 ?lineUpRectExtend@sciLexer@@SAXQAVsciLexerBase@@@@Z 
01:0005191C ?lineScrollUp@sciLexer@@SAXQAVsciLexerBase@@@@Z 
01:00051948 ?paraDown@sciLexer@@SAXQAVsciLexerBase@@@@Z 
01:00051974 ?paraDownExtend@sciLexer@@SAXQAVsciLexerBase@@@@Z 
01:000519A0 ?paraUp@sciLexer@@SAXQAVsciLexerBase@@@@Z 
01:000519CC ?paraUpExtend@sciLexer@@SAXQAVsciLexerBase@@@@Z 
01:000519F8 ?charLeft@sciLexer@@SAXQAVsciLexerBase@@@@Z 
01:00051A24 ?charLeftExtend@sciLexer@@SAXQAVsciLexerBase@@@@Z 
01:00051A50 ?charLeftRectExtend@sciLexer@@SAXQAVsciLexerBase@@@@Z 
01:00051A7C ?charRight@sciLexer@@SAXQAVsciLexerBase@@@@Z 
01:00051AA8 ?charRightExtend@sciLexer@@SAXQAVsciLexerBase@@@@Z 
01:00051AD4 ?charRightRectExtend@sciLexer@@SAXQAVsciLexerBase@@@@Z 
01:00051B00 ?wordLeft@sciLexer@@SAXQAVsciLexerBase@@@@Z 
01:00051B2C ?wordLeftExtend@sciLexer@@SAXQAVsciLexerBase@@@@Z 
01:00051B58 ?wordRight@sciLexer@@SAXQAVsciLexerBase@@@@Z 
01:00051B84 ?wordRightExtend@sciLexer@@SAXQAVsciLexerBase@@@@Z 
01:00051BB0 ?wordLeftEnd@sciLexer@@SAXQAVsciLexerBase@@@@Z 
01:00051BDC ?wordLeftEndExtend@sciLexer@@SAXQAVsciLexerBase@@@@Z 
01:00051C08 ?wordRightEnd@sciLexer@@SAXQAVsciLexerBase@@@@Z 
01:00051C34 ?wordRightEndExtend@sciLexer@@SAXQAVsciLexerBase@@@@Z 
01:00051C60 ?wordPartLeft@sciLexer@@SAXQAVsciLexerBase@@@@Z 
01:00051C8C ?wordPartLeftExtend@sciLexer@@SAXQAVsciLexerBase@@@@Z 
01:00051CB8 ?wordPartRight@sciLexer@@SAXQAVsciLexerBase@@@@Z 
01:00051CE4 ?wordPartRightExtend@sciLexer@@SAXQAVsciLexerBase@@@@Z 
01:00051D10 ?home@sciLexer@@SAXQAVsciLexerBase@@@@Z 
01:00051D3C ?homeExtend@sciLexer@@SAXQAVsciLexerBase@@@@Z 
01:00051D68 ?homeRectExtend@sciLexer@@SAXQAVsciLexerBase@@@@Z 
01:00051D94 ?homeDisplay@sciLexer@@SAXQAVsciLexerBase@@@@Z 
01:00051DC0 ?homeDisplayExtend@sciLexer@@SAXQAVsciLexerBase@@@@Z 
01:00051DEC ?homeWrap@sciLexer@@SAXQAVsciLexerBase@@@@Z 
01:00051E18 ?homeWrapExtend@sciLexer@@SAXQAVsciLexerBase@@@@Z 
01:00051E44 ?vcHome@sciLexer@@SAXQAVsciLexerBase@@@@Z 
01:00051E70 ?vcHomeExtend@sciLexer@@SAXQAVsciLexerBase@@@@Z 
01:00051E9C ?vcHomeRectExtend@sciLexer@@SAXQAVsciLexerBase@@@@Z 
01:00051EC8 ?vcHomeWrap@sciLexer@@SAXQAVsciLexerBase@@@@Z 
01:00051EF4 ?vcHomeWrapExtend@sciLexer@@SAXQAVsciLexerBase@@@@Z 
01:00051F20 ?lineEnd@sciLexer@@SAXQAVsciLexerBase@@@@Z 
01:00051F4C ?lineEndExtend@sciLexer@@SAXQAVsciLexerBase@@@@Z 
01:00051F78 ?lineEndRectExtend@sciLexer@@SAXQAVsciLexerBase@@@@Z 
01:00051FA4 ?lineEndDisplay@sciLexer@@SAXQAVsciLexerBase@@@@Z 
01:00051FD0 ?lineEndDisplayExtend@sciLexer@@SAXQAVsciLexerBase@@@@Z 
01:00051FFC ?lineEndWrap@sciLexer@@SAXQAVsciLexerBase@@@@Z 
01:00052028 ?lineEndWrapExtend@sciLexer@@SAXQAVsciLexerBase@@@@Z 
01:00052054 ?documentStart@sciLexer@@SAXQAVsciLexerBase@@@@Z 
01:00052080 ?documentStartExtend@sciLexer@@SAXQAVsciLexerBase@@@@Z 
01:000520AC ?documentEnd@sciLexer@@SAXQAVsciLexerBase@@@@Z 
01:000520D8 ?documentEndExtend@sciLexer@@SAXQAVsciLexerBase@@@@Z 
01:00052104 ?pageUp@sciLexer@@SAXQAVsciLexerBase@@@@Z 
01:00052130 ?pageUpExtend@sciLexer@@SAXQAVsciLexerBase@@@@Z 
01:0005215C ?pageUpRectExtend@sciLexer@@SAXQAVsciLexerBase@@@@Z 
01:00052188 ?pageDown@sciLexer@@SAXQAVsciLexerBase@@@@Z 
01:000521B4 ?pageDownExtend@sciLexer@@SAXQAVsciLexerBase@@@@Z 
01:000521E0 ?pageDownRectExtend@sciLexer@@SAXQAVsciLexerBase@@@@Z 
01:0005220C ?stutteredPageUp@sciLexer@@SAXQAVsciLexerBase@@@@Z 
01:00052238 ?stutteredPageUpExtend@sciLexer@@SAXQAVsciLexerBase@@@@Z 
01:00052264 ?stutteredPageDown@sciLexer@@SAXQAVsciLexerBase@@@@Z 
01:00052290 ?stutteredPageDownExtend@sciLexer@@SAXQAVsciLexerBase@@@@Z 
01:000522BC ?deleteBack@sciLexer@@SAXQAVsciLexerBase@@@@Z 
01:000522E8 ?deleteBackNotLine@sciLexer@@SAXQAVsciLexerBase@@@@Z 
01:00052314 ?delWordLeft@sciLexer@@SAXQAVsciLexerBase@@@@Z 
01:00052340 ?delWordRight@sciLexer@@SAXQAVsciLexerBase@@@@Z 
01:0005236C ?delWordRightEnd@sciLexer@@SAXQAVsciLexerBase@@@@Z 
01:00052398 ?delLineLeft@sciLexer@@SAXQAVsciLexerBase@@@@Z 
01:000523C4 ?delLineRight@sciLexer@@SAXQAVsciLexerBase@@@@Z 
01:000523F0 ?lineDelete@sciLexer@@SAXQAVsciLexerBase@@@@Z 
01:0005241C ?lineCut@sciLexer@@SAXQAVsciLexerBase@@@@Z 
01:00052448 ?lineCopy@sciLexer@@SAXQAVsciLexerBase@@@@Z 
01:00052474 ?lineTranspose@sciLexer@@SAXQAVsciLexerBase@@@@Z 
01:000524A0 ?lineDuplicate@sciLexer@@SAXQAVsciLexerBase@@@@Z 
01:000524CC ?lowerCase@sciLexer@@SAXQAVsciLexerBase@@@@Z 
01:000524F8 ?upperCase@sciLexer@@SAXQAVsciLexerBase@@@@Z 
01:00052524 ?cancel@sciLexer@@SAXQAVsciLexerBase@@@@Z 
01:00052550 ?editToggleOvertype@sciLexer@@SAXQAVsciLexerBase@@@@Z 
01:0005257C ?newline@sciLexer@@SAXQAVsciLexerBase@@@@Z 
01:000525A8 ?formfeed@sciLexer@@SAXQAVsciLexerBase@@@@Z 
01:000525D4 ?tab@sciLexer@@SAXQAVsciLexerBase@@@@Z 
01:00052600 ?backTab@sciLexer@@SAXQAVsciLexerBase@@@@Z 
01:0005262C ?selectionDuplicate@sciLexer@@SAXQAVsciLexerBase@@@@Z 
01:00052658 ?verticalCentreCaret@sciLexer@@SAXQAVsciLexerBase@@@@Z 
01:00052684 ?assignCmdKey@sciLexer@@SAXQAVsciLexerBase@@@HH@Z 
01:000526B0 ?clearCmdKey@sciLexer@@SAXQAVsciLexerBase@@@H@Z 
01:000526DC ?clearAllCmdKeys@sciLexer@@SAXQAVsciLexerBase@@@@Z 
01:00052708 ?startRecord@sciLexer@@SAXQAVsciLexerBase@@@@Z 
01:00052734 ?stopRecord@sciLexer@@SAXQAVsciLexerBase@@@@Z 
01:00052760 ?formatRange@sciLexer@@SAXQAVsciLexerBase@@@PAUboolean_struct@_builtIn@@PAUsci_rangeToFormat_struct@sciLexer_native@@@Z 
01:000527AC ?printMagnification@sciLexer@@SGXQAVsciLexerBase@@@H@Z 
01:000527EC ?printMagnification@sciLexer@@SGHQAVsciLexerBase@@@@Z 
01:00052830 ?printColorMode@sciLexer@@SGXQAVsciLexerBase@@@H@Z 
01:00052870 ?printColorMode@sciLexer@@SGHQAVsciLexerBase@@@@Z 
01:000528B4 ?printWrapMode@sciLexer@@SGXQAVsciLexerBase@@@H@Z 
01:000528F4 ?printWrapMode@sciLexer@@SGHQAVsciLexerBase@@@@Z 
01:00052938 ?_getCharacterPointer@sciLexer@@SAXQAVsciLexerBase@@@PAPAX@Z 
01:00052964 ?_getRangePointer@sciLexer@@SAXQAVsciLexerBase@@@HHPAPAX@Z 
01:00052990 ?_getGapPosition@sciLexer@@SAXQAVsciLexerBase@@@PAPAX@Z 
01:000529BC ?docPointer@sciLexer@@SGPBUdocument@@QAVsciLexerBase@@@@Z 
01:00052A00 ?docPointer@sciLexer@@SGXQAVsciLexerBase@@@PBUdocument@@@Z 
01:00052A40 ?createDocument@sciLexer@@SAXQAVsciLexerBase@@@@Z 
01:00052A6C ?addrefDocument@sciLexer@@SAXQAVsciLexerBase@@@PBUdocument@@@Z 
01:00052A98 ?releaseDocument@sciLexer@@SAXQAVsciLexerBase@@@PBUdocument@@@Z 
01:00052AC4 ?visibleFromDocLine@sciLexer@@SAXQAVsciLexerBase@@@H@Z 
01:00052AF0 ?docLineFromVisible@sciLexer@@SAXQAVsciLexerBase@@@H@Z 
01:00052B1C ?showLines@sciLexer@@SAXQAVsciLexerBase@@@PBUlineNumber@@1@Z 
01:00052B80 ?hideLines@sciLexer@@SAXQAVsciLexerBase@@@PBUlineNumber@@1@Z 
01:00052BE4 ?isLineVisible@sciLexer@@SAXQAVsciLexerBase@@@PBUlineNumber@@@Z 
01:00052C44 ?isAllLinesVisible@sciLexer@@SGPAUboolean_struct@_builtIn@@QAVsciLexerBase@@@@Z 
01:00052C9C ?setFoldLevel@sciLexer@@SAXQAVsciLexerBase@@@PBUlineNumber@@H@Z 
01:00052CE8 ?_getFoldLevel@sciLexer@@SAXQAVsciLexerBase@@@PBUlineNumber@@PAH@Z 
01:00052D34 ?foldFlags@sciLexer@@SGXQAVsciLexerBase@@@H@Z 
01:00052D74 ?_getLastChild@sciLexer@@SAXQAVsciLexerBase@@@HHAAUlineNumber@@@Z 
01:00052DC4 ?_getFoldParent@sciLexer@@SAXQAVsciLexerBase@@@HAAUlineNumber@@@Z 
01:00052E14 ?toggleFold@sciLexer@@SAXQAVsciLexerBase@@@PBUlineNumber@@@Z 
01:00052E60 ?setFoldExpanded@sciLexer@@SAXQAVsciLexerBase@@@PBUlineNumber@@PAUboolean_struct@_builtIn@@@Z 
01:00052EC4 ?_getFoldExpanded@sciLexer@@SAXQAVsciLexerBase@@@PBUlineNumber@@PAPAUboolean_struct@_builtIn@@@Z 
01:00052F28 ?contractedFoldNext@sciLexer@@SAXQAVsciLexerBase@@@PBUlineNumber@@@Z 
01:00052F74 ?ensureVisible@sciLexer@@SAXQAVsciLexerBase@@@PBUlineNumber@@@Z 
01:00052FC0 ?ensureVisibleEnforcePolicy@sciLexer@@SAXQAVsciLexerBase@@@PBUlineNumber@@@Z 
01:0005300C ?wrapMode@sciLexer@@SGXQAVsciLexerBase@@@H@Z 
01:0005304C ?wrapMode@sciLexer@@SGHQAVsciLexerBase@@@@Z 
01:00053090 ?wrapvisualFlags@sciLexer@@SGXQAVsciLexerBase@@@H@Z 
01:000530D0 ?wrapvisualFlags@sciLexer@@SGHQAVsciLexerBase@@@@Z 
01:00053114 ?wrapvisualFlagsLocation@sciLexer@@SGXQAVsciLexerBase@@@H@Z 
01:00053154 ?wrapvisualFlagsLocation@sciLexer@@SGHQAVsciLexerBase@@@@Z 
01:00053198 ?wrapIndentMode@sciLexer@@SGXQAVsciLexerBase@@@H@Z 
01:000531D8 ?wrapIndentMode@sciLexer@@SGHQAVsciLexerBase@@@@Z 
01:0005321C ?wrapStartIndent@sciLexer@@SGXQAVsciLexerBase@@@H@Z 
01:0005325C ?wrapStartIndent@sciLexer@@SGHQAVsciLexerBase@@@@Z 
01:000532A0 ?layoutcache@sciLexer@@SGXQAVsciLexerBase@@@H@Z 
01:000532E0 ?layoutcache@sciLexer@@SGHQAVsciLexerBase@@@@Z 
01:00053324 ?positionCache@sciLexer@@SGXQAVsciLexerBase@@@H@Z 
01:00053364 ?positionCache@sciLexer@@SGHQAVsciLexerBase@@@@Z 
01:000533A8 ?linesSplit@sciLexer@@SAXQAVsciLexerBase@@@H@Z 
01:000533D4 ?linesJoin@sciLexer@@SAXQAVsciLexerBase@@@@Z 
01:00053400 ?wrapCount@sciLexer@@SAXQAVsciLexerBase@@@H@Z 
01:0005342C ?zoomIn@sciLexer@@SAXQAVsciLexerBase@@@@Z 
01:00053458 ?zoomOut@sciLexer@@SAXQAVsciLexerBase@@@@Z 
01:00053484 ?zoom@sciLexer@@SGXQAVsciLexerBase@@@H@Z 
01:000534C4 ?zoom@sciLexer@@SGHQAVsciLexerBase@@@@Z 
01:00053508 ?edgeMode@sciLexer@@SGXQAVsciLexerBase@@@H@Z 
01:00053548 ?edgeMode@sciLexer@@SGHQAVsciLexerBase@@@@Z 
01:0005358C ?edgeColumn@sciLexer@@SGXQAVsciLexerBase@@@H@Z 
01:000535CC ?edgeColumn@sciLexer@@SGHQAVsciLexerBase@@@@Z 
01:00053610 ?edgeColor@sciLexer@@SGXQAVsciLexerBase@@@H@Z 
01:00053650 ?edgeColor@sciLexer@@SGHQAVsciLexerBase@@@@Z 
01:00053694 ?lexer@sciLexer@@SGXQAVsciLexerBase@@@H@Z 
01:000536D4 ?lexer@sciLexer@@SGHQAVsciLexerBase@@@@Z 
01:00053718 ?lexerLanguage@sciLexer@@SGXQAVsciLexerBase@@@PB_W@Z 
01:0005376C ?lexerLanguage@sciLexer@@SGPB_WQAVsciLexerBase@@@@Z 
01:000537D0 ?loadLexerLibrary@sciLexer@@SAXQAVsciLexerBase@@@PB_W@Z 
01:0005381C ?colorise@sciLexer@@SAXQAVsciLexerBase@@@HH@Z 
01:00053848 ?changeLexerState@sciLexer@@SAXQAVsciLexerBase@@@HH@Z 
01:00053874 ?propertyNames@sciLexer@@SGPB_WQAVsciLexerBase@@@@Z 
01:0005391C ?propertyType@sciLexer@@SAXQAVsciLexerBase@@@PB_W@Z 
01:00053968 ?_describeProperty@sciLexer@@SAXQAVsciLexerBase@@@PB_WPAPB_W@Z 
01:00053A1C ?setProperty@sciLexer@@SAXQAVsciLexerBase@@@PB_W1@Z 
01:00053A80 ?_tryGetProperty@sciLexer@@SAXQAVsciLexerBase@@@PB_WPAPB_W@Z 
01:00053B40 ?_tryGetPropertyExpanded@sciLexer@@SAXQAVsciLexerBase@@@PB_WPAPB_W@Z 
01:00053C00 ?_getPropertyInt@sciLexer@@SAXQAVsciLexerBase@@@PB_WHPAH@Z 
01:00053C4C ?setKeywords@sciLexer@@SAXQAVsciLexerBase@@@HPB_W@Z 
01:00053C98 ?describeKeywordSets@sciLexer@@SAXQAVsciLexerBase@@@PB_W@Z 
01:00053CE4 ?styleBitsNeeded@sciLexer@@SGHQAVsciLexerBase@@@@Z 
01:00053D28 ?_dispatchWmNotify@sciLexer@@SAXQAVcontrol@@@IPAUnmhdr_struct@gui_native@@PAPAUnativeResponse_struct@window@@@Z 
01:00053D98 ?_tryGetNotificationHandler@sciLexer@@SAXQAV1@@IPAX@Z 
01:00054338 ?_notification_position@sciLexer@@SAXPAUscNotification_struct@sciLexer_native@@PAH@Z  (Idle)
01:0005434C ?_notification_ch@sciLexer@@SAXPAUscNotification_struct@sciLexer_native@@PAH@Z  (Idle)
01:00054360 ?_notification_line@sciLexer@@SAXPAUscNotification_struct@sciLexer_native@@AAUlineNumber@@@Z  (Idle)
01:00054378 ?scnStyleNeeded@sciLexer@@SAXQAV1@@PAUscNotification_struct@sciLexer_native@@@Z 
01:000543F0 ?scnCharAdded@sciLexer@@SAXQAV1@@PAUscNotification_struct@sciLexer_native@@@Z 
01:0005442C ?scnSavepointReached@sciLexer@@SAXQAV1@@PAUscNotification_struct@sciLexer_native@@@Z 
01:00054450 ?scnSavepointLeft@sciLexer@@SAXQAV1@@PAUscNotification_struct@sciLexer_native@@@Z 
01:00054474 ?scnModifyAttemptRO@sciLexer@@SAXQAV1@@PAUscNotification_struct@sciLexer_native@@@Z 
01:00054490 ?scnDoubleClick@sciLexer@@SAXQAV1@@PAUscNotification_struct@sciLexer_native@@@Z 
01:000544E8 ?scnUpdateUI@sciLexer@@SAXQAV1@@PAUscNotification_struct@sciLexer_native@@@Z 
01:00054590 ?scnModified@sciLexer@@SAXQAV1@@PAUscNotification_struct@sciLexer_native@@@Z 
01:00054660 ?_getModifyAction_nd@sciLexer@@SAXIPAUscNotification_struct@sciLexer_native@@PAPAUmodifyAction_struct@sciLexerBase@@@Z 
01:00054C28 ?_getModifyPerformed@sciLexer@@SAXIPAPAUmodifyPerformed_struct@sciLexerBase@@@Z 
01:00054CCC ?modEventMask@sciLexer@@SGXQAVsciLexerBase@@@H@Z 
01:00054D0C ?modEventMask@sciLexer@@SGHQAVsciLexerBase@@@@Z 
01:00054D50 ?scenSetFocus@sciLexer@@SAXQAV1@@PAUscNotification_struct@sciLexer_native@@@Z 
01:00054D6C ?scenKillFocus@sciLexer@@SAXQAV1@@PAUscNotification_struct@sciLexer_native@@@Z 
01:00054D88 ?scnMacroRecord@sciLexer@@SAXQAV1@@PAUscNotification_struct@sciLexer_native@@@Z 
01:00054DD0 ?scnMarginClick@sciLexer@@SAXQAV1@@PAUscNotification_struct@sciLexer_native@@@Z 
01:00054E18 ?scnNeedShown@sciLexer@@SAXQAV1@@PAUscNotification_struct@sciLexer_native@@@Z 
01:00054E54 ?scnPainted@sciLexer@@SAXQAV1@@PAUscNotification_struct@sciLexer_native@@@Z 
01:00054E70 ?scnUserListSelection@sciLexer@@SAXQAV1@@PAUscNotification_struct@sciLexer_native@@@Z 
01:00054EAC ?scnDwellStart@sciLexer@@SAXQAV1@@PAUscNotification_struct@sciLexer_native@@@Z 
01:00054EC8 ?scnDwellEnd@sciLexer@@SAXQAV1@@PAUscNotification_struct@sciLexer_native@@@Z 
01:00054EE4 ?scnDwellStartEnd@sciLexer@@SAXQAV1@@PAUdwellAction_struct@sciLexerBase@@PAUscNotification_struct@sciLexer_native@@@Z 
01:00054F3C ?mouseDwellTime@sciLexer@@SGXQAVsciLexerBase@@@H@Z 
01:00054F7C ?mouseDwellTime@sciLexer@@SGHQAVsciLexerBase@@@@Z 
01:00054FC0 ?scnZoom@sciLexer@@SAXQAV1@@PAUscNotification_struct@sciLexer_native@@@Z 
01:00054FDC ?scnHotspotClick@sciLexer@@SAXQAV1@@PAUscNotification_struct@sciLexer_native@@@Z 
01:00055030 ?scnHotspotDoubleClick@sciLexer@@SAXQAV1@@PAUscNotification_struct@sciLexer_native@@@Z 
01:00055084 ?scnHotspotReleaseClick@sciLexer@@SAXQAV1@@PAUscNotification_struct@sciLexer_native@@@Z 
01:000550CC ?scnIndicatorClick@sciLexer@@SAXQAV1@@PAUscNotification_struct@sciLexer_native@@@Z 
01:00055120 ?scnIndicatorRelease@sciLexer@@SAXQAV1@@PAUscNotification_struct@sciLexer_native@@@Z 
01:00055168 ?scnCallTipClick@sciLexer@@SAXQAV1@@PAUscNotification_struct@sciLexer_native@@@Z 
01:00055190 ?scnAutoCSelection@sciLexer@@SAXQAV1@@PAUscNotification_struct@sciLexer_native@@@Z 
01:000551D8 ?scnAutoCCancelled@sciLexer@@SAXQAV1@@PAUscNotification_struct@sciLexer_native@@@Z 
01:000551FC ?scnAutoCCharDeleted@sciLexer@@SAXQAV1@@PAUscNotification_struct@sciLexer_native@@@Z 
01:00055220 ?_fromUtf8Char@sciLexer@@SAXPBUchar8@@PA_W@Z 
01:00055248 ?_toUtf8Char@sciLexer@@SAX_WAAUchar8@@@Z 
01:00055270 ?_displayFindAndReplace_modal@sciLexer@@SAXQAVsciLexerBase@@@PAPAVdialog@@@@Z 
01:000552A4 ?_displayIncrementalFind_modal@sciLexer@@SAXQAVsciLexerBase@@@PAPAVincrementalFindDialog@@sciLexerSupport@@@Z 
01:000552BC ?_displayFindAndReplace_modeless@sciLexer@@SAXQAV1@@PAPAVdialog@@@@Z  (Idle)
01:000552D8 ?_displayFindAndReplace_modeless@sciLexer@@SAXQAV1@@PAUboolean_struct@_builtIn@@PAPAVdialog@@@@Z 
01:0005530C ?findPrevious@sciLexer@@SAXXZ  (Idle)
01:00055314 ?findNext@sciLexer@@SAXXZ  (Idle)
01:0005531C ?_tryGetFindAndReplace_modeless@sciLexer@@SAXPAPAVdialog@@@@Z  (Idle)
01:00055350 ?_displayGotoLine_modal@sciLexer@@SAXQAVsciLexerBase@@@PAPAUboolean_struct@_builtIn@@@Z 
01:00055420 ?_toLineNumber@sciLexer@@SAXHAAUlineNumber@@@Z 
01:00055448 ?_fromLineNumber@sciLexer@@SAXPBUlineNumber@@PAH@Z 
01:0005546C ?_toLinePosition@sciLexer@@SAXHAAUlinePosition@@@Z 
01:00055494 ?_fromLinePosition@sciLexer@@SAXPBUlinePosition@@PAH@Z 
01:000554B8 ?_getText@sciLexer@@SAXQAVwindow@@@PAPB_W@Z 
01:000554D0 ?_new@sciLexer@@SAXPAPAV1@@@Z  (Idle)
01:000554F8 ?_new@sciLexer@@SAXQAVcontainerWindow@@@PAPAV1@@@Z  (Idle)
01:00055520 ?_object_facts_initializer@sciLexer@@SGXQAV1@@@Z 
01:00055A10 ?maintainIndentation@sciLexer@@SGXQAVsciLexerBase@@@PAUboolean_struct@_builtIn@@@Z 
01:00055A20 ?maintainIndentation@sciLexer@@SGPAUboolean_struct@_builtIn@@QAVsciLexerBase@@@@Z 
01:00055A2C ?fileExtension_visualProlog@sciLexer@@SGXPAU?$__list_struct@Ustring@@@@@Z  (Idle)
01:00055A38 ?fileExtension_visualProlog@sciLexer@@SGPAU?$__list_struct@Ustring@@@@XZ  (Idle)
01:00055A40 ?fileExtension_xml@sciLexer@@SGXPAU?$__list_struct@Ustring@@@@@Z  (Idle)
01:00055A4C ?fileExtension_xml@sciLexer@@SGPAU?$__list_struct@Ustring@@@@XZ  (Idle)
01:00055A54 ?fileExtension_cpp@sciLexer@@SGXPAU?$__list_struct@Ustring@@@@@Z  (Idle)
01:00055A60 ?fileExtension_cpp@sciLexer@@SGPAU?$__list_struct@Ustring@@@@XZ  (Idle)
01:00055A68 ?fileExtension_html@sciLexer@@SGXPAU?$__list_struct@Ustring@@@@@Z  (Idle)
01:00055A74 ?fileExtension_html@sciLexer@@SGPAU?$__list_struct@Ustring@@@@XZ  (Idle)
01:00055A7C ?allowReadOnlyCut@sciLexer@@SGXQAVsciLexerBase@@@PAUboolean_struct@_builtIn@@@Z 
01:00055A8C ?allowReadOnlyCut@sciLexer@@SGPAUboolean_struct@_builtIn@@QAVsciLexerBase@@@@Z 
01:00055A98 ?styleNeededEvent@sciLexer@@SGXQAVsciLexerBase@@@QAVevent2@@@QAV2@@HH@Z 
01:00055AA8 ?styleNeededEvent@sciLexer@@SGQAVevent2@@@QAVsciLexerBase@@@HHQAV3@@@Z 
01:00055AB4 ?charAddedEvent@sciLexer@@SGXQAVsciLexerBase@@@QAVevent1@@@QAV2@@H@Z 
01:00055AC4 ?charAddedEvent@sciLexer@@SGQAVevent1@@@QAVsciLexerBase@@@HQAV3@@@Z 
01:00055AD0 ?savepointEvent@sciLexer@@SGXQAVsciLexerBase@@@QAVevent1@@@QAV2@@PAUsavepointAction_struct@2@@Z 
01:00055AE0 ?savepointEvent@sciLexer@@SGQAVevent1@@@QAVsciLexerBase@@@PAUsavepointAction_struct@3@QAV3@@@Z 
01:00055AEC ?modifyAttemptROEvent@sciLexer@@SGXQAVsciLexerBase@@@QAVevent0@@@QAV2@@@Z 
01:00055AFC ?modifyAttemptROEvent@sciLexer@@SGQAVevent0@@@QAVsciLexerBase@@@QAV3@@@Z 
01:00055B08 ?doubleClickEvent@sciLexer@@SGXQAVsciLexerBase@@@QAVevent2@@@QAV2@@HPBUlineNumber@@@Z 
01:00055B18 ?doubleClickEvent@sciLexer@@SGQAVevent2@@@QAVsciLexerBase@@@HPBUlineNumber@@QAV3@@@Z 
01:00055B24 ?updateUIEvent@sciLexer@@SGQAVevent1@@@QAVsciLexerBase@@@IQAV3@@@Z 
01:00055B30 ?modifiedEvent@sciLexer@@SGQAVevent5@@@QAVsciLexerBase@@@PAUmodifyAction_struct@3@PAUmodifyPerformed_struct@3@PAUboolean_struct@_builtIn@@PAU89@PAU89@QAV3@@@Z 
01:00055B3C ?setFocusEvent@sciLexer@@SGQAVevent0@@@QAVsciLexerBase@@@QAV3@@@Z 
01:00055B48 ?killFocusEvent@sciLexer@@SGQAVevent0@@@QAVsciLexerBase@@@QAV3@@@Z 
01:00055B54 ?macroRecordEvent@sciLexer@@SGQAVevent3@@@QAVsciLexerBase@@@IPBUwParam@gui_native@@PBUlParam@5@QAV3@@@Z 
01:00055B60 ?marginClickEvent@sciLexer@@SGQAVevent3@@@QAVsciLexerBase@@@HHHQAV3@@@Z 
01:00055B6C ?needShownEvent@sciLexer@@SGQAVevent2@@@QAVsciLexerBase@@@HHQAV3@@@Z 
01:00055B78 ?paintedEvent@sciLexer@@SGQAVevent0@@@QAVsciLexerBase@@@QAV3@@@Z 
01:00055B84 ?userListSelectionEvent@sciLexer@@SGQAVevent2@@@QAVsciLexerBase@@@PADPBUwParam@gui_native@@QAV3@@@Z 
01:00055B90 ?dwellEvent@sciLexer@@SGQAVevent4@@@QAVsciLexerBase@@@PAUdwellAction_struct@3@HHHQAV3@@@Z 
01:00055B9C ?zoomEvent@sciLexer@@SGQAVevent0@@@QAVsciLexerBase@@@QAV3@@@Z 
01:00055BA8 ?hotspotActionEvent@sciLexer@@SGQAVevent1@@@QAVsciLexerBase@@@PAUhotspotAction_struct@3@QAV3@@@Z 
01:00055BB4 ?indicatorActionEvent@sciLexer@@SGQAVevent1@@@QAVsciLexerBase@@@PAUindicatorAction_struct@3@QAV3@@@Z 
01:00055BC0 ?callTipClickEvent@sciLexer@@SGQAVevent1@@@QAVsciLexerBase@@@HQAV3@@@Z 
01:00055BCC ?autoCEvent@sciLexer@@SGQAVevent1@@@QAVsciLexerBase@@@PAUautoCAction_struct@3@QAV3@@@Z 
--- From 'Obj\messageControl.6297CBEC.obj'
01:0005751C sciLexer?_initObject@@@QAGXQAV1@H@Z 
--- From 'Obj\sciLexer.ADC40A53.obj'
01:0005756C ?@create_object@sciLexer@@SGQAV1@@XZ 
--- From 'Obj\messageControl.6297CBEC.obj'
01:00057588 sciLexer?_InternalFinalizer@@@QAGXQAV1@@Z 
--- From 'Obj\sciLexerSupport.FEC4A01D.obj'
01:000575A0 ?_displayModal@incrementalFindDialog@sciLexerSupport@@SAXQAVsciLexer@@@PAPAV1@2@@Z 
01:000575C8 ?newModal@incrementalFindDialog@sciLexerSupport@@SAXQAV1@2@QAVsciLexer@@@@Z  (Idle)
01:00057614 ?_onNative@incrementalFindDialog@sciLexerSupport@@SAXQAVwindow@@@IPBUwParam@@PBUlParam@@PAPAUnativeResponse_struct@3@@Z 
01:00057694 ?incrementalSearch@incrementalFindDialog@sciLexerSupport@@SAXQAV1@2@H@Z  (Idle)
01:000577D8 ?onFindText_editModified@incrementalFindDialog@sciLexerSupport@@SAXQAV1@2@QAVeditControl@@@@Z 
01:000577E8 ?_onForward_btnClick@incrementalFindDialog@sciLexerSupport@@SAXQAV1@2@QAVbutton@@@PAPAUactionResponse_struct@5@@Z 
01:00057818 ?generatedInitialize@incrementalFindDialog@sciLexerSupport@@SAXQAV1@2@@Z 
01:00057AD8 ?_newModal@incrementalFindDialog@sciLexerSupport@@SAXQAVsciLexer@@@PAPAV1@2@@Z 
01:00057B00 ?_displayModal@findAndReplaceControl@sciLexerSupport@@SAXQAVsciLexer@@@PAPAV1@2@@Z 
01:00057B78 ?_displayModeless@findAndReplaceControl@sciLexerSupport@@SAXQAVsciLexer@@@PAUboolean_struct@_builtIn@@PAPAV1@2@@Z 
01:00057CC8 ?reactivateModeless@findAndReplaceControl@sciLexerSupport@@SAXQAV1@2@@Z 
01:00057D04 ?anonymous$o0$1$new/3np$sciLexerSupport\findAndReplaceControl@1sciLexerSupport@@SAXPAUanonymous$o0$1$new/3np$sciLexerSupport\findAndReplaceControlc_struct@12@@Z 
01:00057D60 ?anonymous$o0$2$new/3np$sciLexerSupport\findAndReplaceControl@1sciLexerSupport@@SAXPAUanonymous$o0$2$new/3np$sciLexerSupport\findAndReplaceControlc_struct@12@@Z 
01:00057DC8 ?anonymous$o0$3$new/3np$sciLexerSupport\findAndReplaceControl@1sciLexerSupport@@SAXPAUanonymous$o0$3$new/3np$sciLexerSupport\findAndReplaceControlc_struct@12@@Z 
01:00057E20 ?new@findAndReplaceControl@sciLexerSupport@@SAXQAV1@2@QAVsciLexer@@@QAVdialog@@@QAVwindow@@@@Z  (Idle)
01:0005844C ?_tryGetModeless@findAndReplaceControl@sciLexerSupport@@SAXPAPAV1@2@@Z 
01:00058470 ?anonymous$o0$1$setfromeditorstate/0np$sciLexerSupport\findAndReplaceControl@1sciLexerSupport@@SAXPAUanonymous$o0$1$setfromeditorstate/0np$sciLexerSupport\findAndReplaceControlc_struct@12@@Z 
01:000584A0 ?setFromEditorState@findAndReplaceControl@sciLexerSupport@@SAXQAV1@2@@Z 
01:000585B4 ?_tryGetEditor@findAndReplaceControl@sciLexerSupport@@SAXQAV1@2@PAPAVsciLexer@@@@Z 
01:0005861C ?loadSettings@findAndReplaceControl@sciLexerSupport@@SAXPAU?$__list_struct@Uboolean@@@@@Z  (Idle)
01:000586F8 ?findTextFromHistory@findAndReplaceControl@sciLexerSupport@@SGPB_WXZ 
01:00058740 ?replaceTextFromHistory@findAndReplaceControl@sciLexerSupport@@SGPB_WXZ 
01:00058788 ?updateHistory@findAndReplaceControl@sciLexerSupport@@SAXQAV1@2@@Z 
01:00058870 ?updateSettings@findAndReplaceControl@sciLexerSupport@@SAXXZ  (Idle)
01:00058924 ?updateHistoryIfFoundOrNonIncremental@findAndReplaceControl@sciLexerSupport@@SAXQAV1@2@PAUboolean_struct@_builtIn@@1@Z  (Idle)
01:00058948 ?setScopeAndTarget@findAndReplaceControl@sciLexerSupport@@SAXQAVsciLexer@@@@Z 
01:00058A2C ?isMultiLineSelection@findAndReplaceControl@sciLexerSupport@@SAXQAVsciLexer@@@@Z 
01:00058A9C ?_onDialogNative@findAndReplaceControl@sciLexerSupport@@SAXQAVwindow@@@IPBUwParam@@PBUlParam@@PAPAUnativeResponse_struct@3@@Z 
01:00058B94 ?_onFrameNative@findAndReplaceControl@sciLexerSupport@@SAXQAV1@2@QAVwindow@@@IPBUwParam@@PBUlParam@@PAPAUnativeResponse_struct@5@@Z 
01:00058FFC ?findFlags@findAndReplaceControl@sciLexerSupport@@SGHXZ 
01:00059078 ?incrementalFindInit@findAndReplaceControl@sciLexerSupport@@SAXQAV1@2@@Z  (Idle)
01:000590AC ?incrementalFindInitDelayed@findAndReplaceControl@sciLexerSupport@@SAXQAV1@2@@Z 
01:0005918C ?_incrementalFindNextRange@findAndReplaceControl@sciLexerSupport@@SAXQAV1@2@QAVsciLexer@@@PAPAUboolean_struct@_builtIn@@@Z 
01:000591C0 ?_incrementalFindPreviousRange@findAndReplaceControl@sciLexerSupport@@SAXQAV1@2@QAVsciLexer@@@PAPAUboolean_struct@_builtIn@@@Z 
01:000591F4 ?_incrementalFindDialog@findAndReplaceControl@sciLexerSupport@@SAXQAV1@2@QAVsciLexer@@@PAUcharRange_struct@12@PAPAUboolean_struct@_builtIn@@@Z 
01:000592B0 ?_doIncrementalFind@findAndReplaceControl@sciLexerSupport@@SAXQAVsciLexer@@@PAUcharRange_struct@12@PB_WPAPAUboolean_struct@_builtIn@@@Z 
01:0005933C ?_formatStatus@findAndReplaceControl@sciLexerSupport@@SAXQAVsciLexer@@@PAUboolean_struct@_builtIn@@PAPB_W@Z 
01:00059428 ?_tryFind@findAndReplaceControl@sciLexerSupport@@SAXQAVsciLexer@@@PAUcharRange_struct@12@PB_WPAH@Z 
01:00059490 ?_initialFindRange@findAndReplaceControl@sciLexerSupport@@SAXQAVsciLexer@@@PAPAUcharRange_struct@12@@Z 
01:00059524 ?setMatchSelection@findAndReplaceControl@sciLexerSupport@@SAXQAVsciLexer@@@HH@Z 
01:000595F4 ?restoreOneSelection@findAndReplaceControl@sciLexerSupport@@SAXQAVsciLexer@@@PAUboolean_struct@_builtIn@@@Z 
01:00059688 ?_onNext_btnClick@findAndReplaceControl@sciLexerSupport@@SAXQAV1@2@QAVbutton@@@PAPAUactionResponse_struct@5@@Z 
01:00059708 ?_onPrev_btnClick@findAndReplaceControl@sciLexerSupport@@SAXQAV1@2@QAVbutton@@@PAPAUactionResponse_struct@5@@Z 
01:00059788 ?findNext@findAndReplaceControl@sciLexerSupport@@SAXXZ 
01:00059888 ?findPrevious@findAndReplaceControl@sciLexerSupport@@SAXXZ 
01:00059974 ?_tryGetControl_nextPrevious@findAndReplaceControl@sciLexerSupport@@SAXQAVsciLexer@@@PAPAV1@2@@Z 
01:000599CC ?nextPrev@findAndReplaceControl@sciLexerSupport@@SAXQAVsciLexer@@@PAUcharRange_struct@12@@Z 
01:00059A60 ?_nextRange@findAndReplaceControl@sciLexerSupport@@SAXQAVsciLexer@@@PAPAUcharRange_struct@12@@Z 
01:00059AE4 ?_previousRange@findAndReplaceControl@sciLexerSupport@@SAXQAVsciLexer@@@PAPAUcharRange_struct@12@@Z 
01:00059B68 ?_onReplace_btnClick@findAndReplaceControl@sciLexerSupport@@SAXQAV1@2@QAVbutton@@@PAPAUactionResponse_struct@5@@Z 
01:00059BFC ?doReplace@findAndReplaceControl@sciLexerSupport@@SAXQAV1@2@QAVsciLexer@@@@Z 
01:00059C74 ?_onReplaceAll_btnClick@findAndReplaceControl@sciLexerSupport@@SAXQAV1@2@QAVbutton@@@PAPAUactionResponse_struct@5@@Z 
01:00059E50 ?replaceAll@findAndReplaceControl@sciLexerSupport@@SAXQAVsciLexer@@@PAUcharRange_struct@12@PB_W2QAVvarM_unsigned@@@@Z 
01:00059F10 ?replaceTarget_re@findAndReplaceControl@sciLexerSupport@@SAXQAVsciLexer@@@PB_W@Z 
01:00059F40 ?onFindText_editModified@findAndReplaceControl@sciLexerSupport@@SAXQAV1@2@QAVeditControl@@@@Z 
01:0005A014 ?enableReplaceButtons@findAndReplaceControl@sciLexerSupport@@SAXQAV1@2@@Z 
01:0005A0CC ?onIncremental_chkStateChanged@findAndReplaceControl@sciLexerSupport@@SAXQAV1@2@QAVcheckButton@@@PAUstate_struct@5@2@Z 
01:0005A178 ?_onFirst_btnClick@findAndReplaceControl@sciLexerSupport@@SAXQAV1@2@QAVbutton@@@PAPAUactionResponse_struct@5@@Z 
01:0005A190 ?onWholeWords_chkStateChanged@findAndReplaceControl@sciLexerSupport@@SAXQAV1@2@QAVcheckButton@@@PAUstate_struct@5@2@Z 
01:0005A1C8 ?onCaseSensitive_chkStateChanged@findAndReplaceControl@sciLexerSupport@@SAXQAV1@2@QAVcheckButton@@@PAUstate_struct@5@2@Z 
01:0005A200 ?onRegularExpression_chkStateChanged@findAndReplaceControl@sciLexerSupport@@SAXQAV1@2@QAVcheckButton@@@PAUstate_struct@5@2@Z 
01:0005A238 ?onInSelection_chkStateChanged@findAndReplaceControl@sciLexerSupport@@SAXQAV1@2@QAVcheckButton@@@PAUstate_struct@5@2@Z 
01:0005A27C ?onDestroy@findAndReplaceControl@sciLexerSupport@@SAXQAV1@2@QAVwindow@@@@Z 
01:0005A348 ?_getFirstOrEmpty@findAndReplaceControl@sciLexerSupport@@SAXPAU?$__list_struct@Ustring@@@@PAPB_W@Z 
01:0005A370 ?onParentSize@findAndReplaceControl@sciLexerSupport@@SAXQAV1@2@QAVwindow@@@@Z 
01:0005A43C ?switchLayout@findAndReplaceControl@sciLexerSupport@@SAXQAV1@2@PAUboolean_struct@_builtIn@@@Z 
01:0005A930 ?generatedInitialize@findAndReplaceControl@sciLexerSupport@@SAXQAV1@2@@Z 
01:0005BC8C ?_new@findAndReplaceControl@sciLexerSupport@@SAXQAVsciLexer@@@QAVdialog@@@QAVwindow@@@PAPAV1@2@@Z 
01:0005BCBC ?_anonymous$c0$1$trygeteditor/0nf$sciLexerSupport\findAndReplaceControl@1sciLexerSupport@@SAXPAUboolean_struct@_builtIn@@PAPAU?$__list_struct@Ustring@@@@@Z 
01:0005BCE4 ?anonymous$c0$2$trygeteditor/0nf$sciLexerSupport\findAndReplaceControl@1sciLexerSupport@@SAXPAUboolean_struct@_builtIn@@PB_W@Z 
01:0005BD74 ?anonymous$c0$3$trygeteditor/0nf$sciLexerSupport\findAndReplaceControl@1sciLexerSupport@@SAXPAU?$__list_struct@Uboolean@@@@@Z 
01:0005BD88 ?_object_facts_initializer@findAndReplaceControl@sciLexerSupport@@SGXQAV1@2@@Z 
01:0005BDA8 ?readHistory@findAndReplaceControl@sciLexerSupport@@SGXX@Z  (Idle)
01:0005BDB4 ?readHistory@findAndReplaceControl@sciLexerSupport@@SGXXZ  (Idle)
01:0005BDBC ?appendHistory@findAndReplaceControl@sciLexerSupport@@SGXX@Z  (Idle)
01:0005BDC8 ?appendHistory@findAndReplaceControl@sciLexerSupport@@SGXXZ  (Idle)
01:0005BDD0 ?writeSettings@findAndReplaceControl@sciLexerSupport@@SGXX@Z  (Idle)
01:0005BDDC ?writeSettings@findAndReplaceControl@sciLexerSupport@@SGXXZ  (Idle)
01:0005DA0C sciLexerSupport\incrementalFindDialog?_initObject@@@QAGXQAV1@H@Z 
01:0005DA44 ?@create_object@incrementalFindDialog@sciLexerSupport@@SGQAV1@2@XZ 
01:0005DA60 sciLexerSupport\incrementalFindDialog?_InternalFinalizer@@@QAGXQAV1@@Z 
01:0005FD38 sciLexerSupport\findAndReplaceControl?_initObject@@@QAGXQAV1@H@Z 
01:0005FD70 ?@create_object@findAndReplaceControl@sciLexerSupport@@SGQAV1@2@XZ 
01:0005FD8C sciLexerSupport\findAndReplaceControl?_InternalFinalizer@@@QAGXQAV1@@Z 
--- From 'Obj\exe.DC930661.obj'
01:0005FDA0 ?setRuntimeExceptionRaiser@programControl@@SAXXPAX@Z 
01:0005FDE0 ?_getModuleNameByAddress@exe_api@@SAXPBUhModule@core@@PAPB_W@Z 
--- From 'Obj\exe_api.DA526B1E.obj'
01:0005FE98 ?_isOSConsoleApplication@exe_api@@SAXPB_WPAPAUboolean_struct@_builtIn@@@Z  (Idle)
--- From 'Obj\exe.DC930661.obj'
01:00060060 ?coInitialize@exe_api@@SAXPAU?$__list_struct@UcoInit@@@@@Z 
01:000600FC ?coUninitialize@exe_api@@SAXXZ 
--- From 'Obj\exe_api.DA526B1E.obj'
01:00060108 ?_toCoInitFlag@exe_api@@SAXPAU?$__list_struct@UcoInit@@@@PAI@Z 
01:00060164 ?_coInitMap@exe_api@@SAXPAUcoInit_struct@1@PAI@Z 
--- From 'Obj\main.A22FE9BF.obj'
01:000601A0 ?run@mainExe@@SAXX@Z 
--- From 'Obj\exe.DC930661.obj'
01:000602C4 ?runCom@mainExe@@SAXXPAU?$__list_struct@UcoInit@exe_api@@@@@Z  (Idle)
01:000602F4 ?runCom@mainExe@@SAXX@Z  (Idle)
01:00060308 ?runOle@mainExe@@SAXX@Z  (Idle)
01:00060390 ?checkResult@mainExe@@SAXPBUhResult@@PB_WPAU?$__list_struct@UnamedValue@@@@@Z 
01:00060414 ?_getCommandLine@mainExe@@SAXPAPB_W@Z  (Idle)
01:00060484 ?_parseCommandLine@mainExe@@SAXPB_W_W0PAPB_W@Z 
01:00060548 ?_getPosition@mainExe@@SAXPB_W_WAAUcharCount@@@Z 
01:0006058C ?getFileName@mainExe@@SAXPAPB_W0@Z  (Idle)
--- From 'Obj\controls.5CEFAE16.obj'
01:000605C8 ?_getFileName@mainExe@@SAXPAPB_W@Z 
01:000605E4 ?_getCurrentHinstance@mainExe@@SAXAAUhModule@@@Z 
--- From 'Obj\exe.DC930661.obj'
01:0006060C ?runMode@mainExe@@SGXPAUrunMode_struct@1@@Z  (Idle)
01:00060618 ?runMode@mainExe@@SGPAUrunMode_struct@1@XZ  (Idle)
01:00060620 ?exceptionDumper@mainExe@@SGXX@Z  (Idle)
01:0006062C ?exceptionDumper@mainExe@@SGXXZ 
--- From 'Obj\multiThread_api.967EC9F4.obj'
01:00060640 _Wow64GetThreadSelectorEntry@12 
01:00060664 _GetThreadId@4  (Idle)
01:00060688 ?_createEvent@multiThread_api@@SAXPB_WPAUboolean_struct@_builtIn@@1AAUsyncHandle@windowsAPI@@@Z 
01:000607AC ?_openEvent@multiThread_api@@SAXPB_WAAUsyncHandle@windowsAPI@@@Z 
01:000607F0 ?setEvent@multiThread_api@@SAXPBUsyncHandle@windowsAPI@@@Z 
01:00060880 ?error@multiThread_api@@SAXPBUsyncHandle@windowsAPI@@PB_W@Z  (Idle)
01:000608F8 ?resetEvent@multiThread_api@@SAXPBUsyncHandle@windowsAPI@@@Z 
01:00060920 ?pulseEvent@multiThread_api@@SAXPBUsyncHandle@windowsAPI@@@Z 
01:000609B0 ?_createMutex@multiThread_api@@SAXPB_WPAUboolean_struct@_builtIn@@AAUsyncHandle@windowsAPI@@@Z 
01:00060A64 ?_openMutex@multiThread_api@@SAXPB_WAAUsyncHandle@windowsAPI@@@Z  (Idle)
01:00060AA8 ?releaseMutex@multiThread_api@@SAXPBUsyncHandle@windowsAPI@@@Z 
01:00060AD0 ?_createSemaphore@multiThread_api@@SAXPB_WIIAAUsyncHandle@windowsAPI@@@Z 
01:00060BD0 ?_openSemaphore@multiThread_api@@SAXPB_WAAUsyncHandle@windowsAPI@@@Z 
01:00060C14 ?_releaseSemaphore@multiThread_api@@SAXPBUsyncHandle@windowsAPI@@IPAI@Z 
01:00060CF8 ?_createWaitableTimer@multiThread_api@@SAXPB_WPAUboolean_struct@_builtIn@@AAUsyncHandle@windowsAPI@@@Z 
01:00060DC0 ?_openWaitableTimer@multiThread_api@@SAXPB_WAAUsyncHandle@windowsAPI@@@Z 
01:00060E04 ?setWaitableTimer@multiThread_api@@SAXPBUsyncHandle@windowsAPI@@PAPBUtimeIntervalValue@@HPAUboolean_struct@_builtIn@@@Z 
01:00060E2C ?setWaitableTimer@multiThread_api@@SAXPBUsyncHandle@windowsAPI@@PAPBUtimeIntervalValue@@HXPAXPAUboolean_struct@_builtIn@@@Z 
01:00060FDC ?cancelWaitableTimer@multiThread_api@@SAXPBUsyncHandle@windowsAPI@@@Z 
01:00061004 ?isWow64Process@multiThread_api@@SAXPBUprocessHandle@windowsAPI@@@Z 
01:000610B8 ?dummyWow64Func@multiThread_api@@SGPBUbooleanInt@@PBUhandle@@AAU2@@Z 
01:000610D0 ?_handlingNullString@multiThread_api@@SAXPB_WPAPB_W@Z  (Idle)
01:00061114 ?checkHandle@multiThread_api@@SAXPBUsyncHandle@windowsAPI@@PB_W1PAU?$__list_struct@UnamedValue@@@@@Z 
01:000611A8 ?checkAlreadyExist@multiThread_api@@SAXPBUhandle@@PB_W@Z 
01:0006126C ?getThreadContext@multiThread_api@@SAXPBUthreadHandle@multiThread_native@@PAX@Z  (Idle)
01:000612FC ?setThreadContext@multiThread_api@@SAXPBUthreadHandle@multiThread_native@@PAX@Z  (Idle)
01:0006138C ?_getThreadSelectorEntry@multiThread_api@@SAXPBUthreadHandle@multiThread_native@@IPAPAUselectorEntry_struct@3@@Z  (Idle)
01:0006148C ?_wow64GetThreadSelectorEntry@multiThread_api@@SAXPBUthreadHandle@multiThread_native@@IPAPAUselectorEntry_struct@3@@Z  (Idle)
01:0006158C ?_mkInheritable@multiThread_api@@SAXPBUhandle@@AAU2@@Z  (Idle)
01:000615A8 ?_mkInheritable@multiThread_api@@SAXPBUhandle@@PAUboolean_struct@_builtIn@@AAU2@@Z 
--- From 'Obj\memory.34E541C8.obj'
01:000615F0 ?new@weakPointer@@SAXQAV1@@PAX@Z  (Idle)
01:00061628 ?newPredicate@weakPointer@@SAXQAV1@@PAX@Z  (Idle)
01:000616B4 ?_tryDeref@weakPointer@@SAXQAV1@@PAPAX@Z 
01:00061760 ?finalize@weakPointer@@SGXQAV1@@@Z 
--- From 'Obj\gui.0D1EF882.obj'
01:000617E8 ?_new@weakPointer@@SAXPAXPAPAV1@@@Z 
--- From 'Obj\memory.34E541C8.obj'
01:00061810 ?_newPredicate@weakPointer@@SAXPAXPAPAV1@@@Z  (Idle)
01:00061838 ?_object_facts_initializer@weakPointer@@SGXQAV1@@@Z 
01:00061850 ?_append@memory@@SAXPAXPAXPBUbyteCount@@PAPAX@Z 
--- From 'Obj\exception.1550E8BC.obj'
01:00061878 ?isReadable@memory@@SAXPAX@Z 
01:0006188C ?isReadable@memory@@SAXPAXPBUbyteCount@@@Z 
--- From 'Obj\memory.34E541C8.obj'
01:000618AC ?isWritable@memory@@SAXPAX@Z  (Idle)
01:000618C0 ?isWritable@memory@@SAXPAXPBUbyteCount@@@Z 
--- From 'Obj\gui.0D1EF882.obj'
01:000618E0 ?_allocHeap@memory@@SAXPBUbyteCount@@PAPAX@Z 
--- From 'Obj\memory.34E541C8.obj'
01:000618FC ?_allocHeap@memory@@SAXPBUbyteCount@@PAUboolean_struct@_builtIn@@PAPAX@Z  (Idle)
--- From 'Obj\gdiplus.80149785.obj'
01:00061924 ?_allocHeapProfile@memory@@SAXPBUbyteCount@@PBUcontext@@PAPAX@Z 
--- From 'Obj\memory.34E541C8.obj'
01:00061950 ?_allocHeapProfile@memory@@SAXPBUbyteCount@@PBUcontext@@PAUboolean_struct@_builtIn@@PAPAX@Z 
--- From 'Obj\controls.5CEFAE16.obj'
01:00061978 ?_allocAtomicHeap@memory@@SAXPBUbyteCount@@PAPAX@Z 
--- From 'Obj\messageControl.6297CBEC.obj'
01:00061994 ?_allocAtomicHeapProfile@memory@@SAXPBUbyteCount@@PBUcontext@@PAPAX@Z 
--- From 'Obj\memory.34E541C8.obj'
01:000619B0 ?_allocUncollectableHeap@memory@@SAXPBUbyteCount@@PAPAX@Z  (Idle)
01:000619CC ?_allocUncollectableHeapProfile@memory@@SAXPBUbyteCount@@PBUcontext@@PAPAX@Z 
01:000619F8 ?_allocString@memory@@SAXPBUcharCount@@PAPB_W@Z  (Idle)
01:00061A10 ?_allocStringProfile@memory@@SAXPBUcharCount@@PBUcontext@@PAPB_W@Z  (Idle)
01:00061A50 ?_allocStringBuffer@memory@@SAXPBUcharCount@@PAPB_W@Z 
--- From 'Obj\exception.1550E8BC.obj'
01:00061A6C ?_allocStringBufferProfile@memory@@SAXPBUcharCount@@PBUcontext@@PAPB_W@Z 
--- From 'Obj\gdiplus.80149785.obj'
01:00061A90 ?listToArray@memory@@SAXQAVrTypeLibrary@TypeLibraries@RunTime@VIP@@PAU?$__list_struct@PAX@@PBUbyteCount@@XPAPAXAAUpositive@@@Z 
--- From 'Obj\memory.34E541C8.obj'
01:00061AF8 ?listToArray_nonatomic@memory@@SAXQAVrTypeLibrary@TypeLibraries@RunTime@VIP@@PAU?$__list_struct@PAX@@PBUbyteCount@@XPAPAXAAUpositive@@@Z  (Idle)
01:00061B60 ?fillArray@memory@@SAXQAVrTypeLibrary@TypeLibraries@RunTime@VIP@@PAXPAU?$__list_struct@PAX@@PBUbyteCount@@X@Z 
--- From 'Obj\messageControl.6297CBEC.obj'
01:00061BCC ?_pointerAdd@memory@@SAXQAVrTypeLibrary@TypeLibraries@RunTime@VIP@@PAXPBUbyteOffset@@PAPAX@Z 
--- From 'Obj\exception.1550E8BC.obj'
01:00061BE0 ?isNull@memory@@SAXQAVrTypeLibrary@TypeLibraries@RunTime@VIP@@PAX@Z 
--- From 'Obj\controls.5CEFAE16.obj'
01:00061BF4 getp@memory@pfc 
--- From 'Obj\gdiplus.80149785.obj'
01:00061C08 get1@memory@pfc 
--- From 'Obj\windowsAPI.BBE7373F.obj'
01:00061C1C get2@memory@pfc 
--- From 'Obj\gui.0D1EF882.obj'
01:00061C30 get4@memory@pfc 
--- From 'Obj\core.8DAFDFE7.obj'
01:00061C44 get8@memory@pfc 
--- From 'Obj\memory.34E541C8.obj'
01:00061C7C getAp@memory@pfc  (Idle)
01:00061CB8 getA1@memory@pfc  (Idle)
01:00061CF4 getA2@memory@pfc  (Idle)
01:00061D34 getA4@memory@pfc  (Idle)
01:00061D70 getA8@memory@pfc  (Idle)
--- From 'Obj\gdiplus.80149785.obj'
01:00061DC0 setp@memory@pfc 
01:00061DF0 set1@memory@pfc 
--- From 'Obj\windowsAPI.BBE7373F.obj'
01:00061E20 set2@memory@pfc 
--- From 'Obj\gui.0D1EF882.obj'
01:00061E54 set4@memory@pfc 
--- From 'Obj\memory.34E541C8.obj'
01:00061E84 set8@memory@pfc 
01:00061E9C setAp@memory@pfc  (Idle)
01:00061EF8 setA1@memory@pfc  (Idle)
01:00061F54 setA2@memory@pfc  (Idle)
--- From 'Obj\gdiplus.80149785.obj'
01:00061FB4 setA4@memory@pfc 
--- From 'Obj\memory.34E541C8.obj'
01:00062010 setA8@memory@pfc  (Idle)
01:00062058 mkp@memory@pfc  (Idle)
01:0006207C mk1@memory@pfc  (Idle)
01:000620A0 mk2@memory@pfc  (Idle)
01:000620C8 mk4@memory@pfc 
01:000620EC mk8@memory@pfc  (Idle)
01:00062128 uncheckedFromPointer@memory@pfc  (Idle)
01:00062138 ?copyTo@memory@@SAXQAVrTypeLibrary@TypeLibraries@RunTime@VIP@@PAXPAX@Z  (Idle)
01:0006215C ?_bitOr@bit@@SAXIIIPAI@Z  (Idle)
01:00062184 ?_bitOr@bit@@SAXIIIIPAI@Z  (Idle)
01:000621BC ?_bitOr@bit@@SAXIIIIIPAI@Z  (Idle)
01:00062200 ?_bitOrList@bit@@SAXPAU?$__list_struct@Uunsigned@@@@PAI@Z 
01:0006221C ?_bitOrList_Tail@bit@@SAXPAU?$__list_struct@Uunsigned@@@@IPAI@Z 
01:00062264 ?isSet@bit@@SAXII@Z 
01:0006228C ?_bit2boolean@bit@@SAXIIPAPAUboolean_struct@_builtIn@@@Z 
01:000622C4 ?_reset@bit@@SAXIIPAI@Z  (Idle)
01:000622EC ?_getLow4of8@bit@@SAXPBUunsigned8@@AAUunsigned4@@@Z  (Idle)
01:00062310 ?_setLow4of8@bit@@SAXPBUunsigned8@@PBUunsigned4@@AAU2@@Z  (Idle)
01:00062360 ?_getHigh4of8@bit@@SAXPBUunsigned8@@AAUunsigned4@@@Z  (Idle)
01:00062398 ?_setHigh4of8@bit@@SAXPBUunsigned8@@PBUunsigned4@@AAU2@@Z  (Idle)
01:000623FC ?_swap4of8@bit@@SAXPBUunsigned8@@AAU2@@Z  (Idle)
01:0006245C ?_getLow8of16@bit@@SAXPBUunsigned16@@AAUunsigned8@@@Z  (Idle)
01:00062484 ?_setLow8of16@bit@@SAXPBUunsigned16@@PBUunsigned8@@AAU2@@Z  (Idle)
01:000624C4 ?_getHigh8of16@bit@@SAXPBUunsigned16@@AAUunsigned8@@@Z  (Idle)
01:000624FC ?_setHigh8of16@bit@@SAXPBUunsigned16@@PBUunsigned8@@AAU2@@Z  (Idle)
01:0006254C ?_swap8of16@bit@@SAXPBUunsigned16@@AAU2@@Z  (Idle)
--- From 'Obj\gui.0D1EF882.obj'
01:000625B0 ?_getLow16of32@bit@@SAXIAAUunsigned16@@@Z 
--- From 'Obj\gui_api.7E4A6614.obj'
01:000625D0 ?_setLow16of32@bit@@SAXIPBUunsigned16@@PAI@Z 
--- From 'Obj\gui.0D1EF882.obj'
01:00062608 ?_getHigh16of32@bit@@SAXIAAUunsigned16@@@Z 
--- From 'Obj\gui_api.7E4A6614.obj'
01:00062638 ?_setHigh16of32@bit@@SAXIPBUunsigned16@@PAI@Z 
--- From 'Obj\memory.34E541C8.obj'
01:00062688 ?_swap16of32@bit@@SAXIPAI@Z 
01:000626E8 ?_toBigEndian@bit@@SAXIPAI@Z  (Idle)
01:0006279C ?_bitSplit@bit@@SAXIPAPAU?$__list_struct@Uunsigned@@@@@Z  (Idle)
01:00062804 ?getUnsigned32bytes@bit@@SAXIAAUunsigned16@@1@Z  (Idle)
01:0006283C ?getInteger32bytes@bit@@SAXIAAUunsigned16@@AAUinteger16@@@Z  (Idle)
01:00062874 ?getUnsigned64bytes@bit@@SAXPA_KPAIPAI@Z  (Idle)
01:00062894 ?getInteger64bytes@bit@@SAXPA_JPAIPAH@Z  (Idle)
01:000628B4 ?_mkUnsigned32@bit@@SAXPBUunsigned16@@0PAI@Z  (Idle)
01:000628E8 ?_mkInteger32@bit@@SAXPBUunsigned16@@PBUinteger16@@PAH@Z  (Idle)
01:0006291C ?_mkUnsigned64@bit@@SAXIIPAPA_K@Z  (Idle)
01:0006296C ?_mkInteger64@bit@@SAXIHPAPA_J@Z  (Idle)
--- From 'Obj\gui.0D1EF882.obj'
01:000629BC ?_getLow16@bit@@SAXPBUunsignedNative@@AAUunsigned16@@@Z 
--- From 'Obj\memory.34E541C8.obj'
01:000629E4 ?isSet@bit@@SAXPA_K0@Z  (Idle)
01:00062A64 weakPointer?_initObject@@@QAGXQAV1@H@Z 
01:00062A84 ?@create_object@weakPointer@@SGQAV1@@XZ 
01:00062AA0 weakPointer?_InternalFinalizer@@@QAGXQAV1@@Z 
--- From 'Obj\windowsAPI.BBE7373F.obj'
01:00062AF0 ?_toMsStringSeq@windowsAPI@@SAXPAU?$__list_struct@Ustring@@@@AAUmsStringSeq@@@Z  (Idle)
01:00062B38 ?_totalLength@windowsAPI@@SAXPAU?$__list_struct@Ustring@@@@PBUcharCount@core@@AAU34@@Z 
01:00062BA8 ?fill@windowsAPI@@SAXPAU?$__list_struct@Ustring@@@@PBUmsStringSeq@@@Z 
01:00062C54 ?_fromMsStringSeq@windowsAPI@@SAXPBUmsStringSeq@@PAPAU?$__list_struct@Ustring@@@@@Z  (Idle)
01:00062CD4 ?_getString_nd@windowsAPI@@SAXPBUmsStringSeq@@PAPB_W@Z 
--- From 'Obj\event.43AD3974.obj'
01:00062DB0 ?new@event7@@SAXQAV1@@PAXPAXPAXPAXPAXPAXPAXPAXQAVrTypeLibrary@TypeLibraries@RunTime@VIP@@1111111PAX@Z  (Idle)
01:00062DC4 ?addListener@event7@@SAXQAV1@@PAXPAXPAXPAXPAXPAXPAXPAXX@Z 
01:00062DEC ?anonymous$o1$1$addlistener/2np$event7{@Source,@Type1,@Type2,@Type3,@Type4,@Type5,@Type6,@Type7}@event7@@SAXPAUanonymous$o1$1$addlistener/2np$event7{@Source,@Type1,@Type2,@Type3,@Type4,@Type5,@Type6,@Type7}c_struct@1/8@PAX@Z 
01:00062E10 ?addListener@event7@@SAXQAV1@@PAXPAXPAXPAXPAXPAXPAXPAXQAVrTypeLibrary@TypeLibraries@RunTime@VIP@@XQAVevent0@@@PAX@Z 
01:00062EA0 ?removeListener@event7@@SAXQAV1@@PAXPAXPAXPAXPAXPAXPAXPAXX@Z 
01:00062F40 ?removeAllListeners@event7@@SAXQAV1@@PAXPAXPAXPAXPAXPAXPAXPAX@Z 
01:00062F7C ?hasListeners@event7@@SAXQAV1@@PAXPAXPAXPAXPAXPAXPAXPAX@Z 
01:00062F9C ?notify@event7@@SAXQAV1@@PAXPAXPAXPAXPAXPAXPAXPAXPAXPAXPAXPAXPAXPAXPAX@Z 
01:0006302C ?_new@event7@@SAXQAVrTypeLibrary@TypeLibraries@RunTime@VIP@@0000000PAXPAPAV1@@PAPAXPAPAXPAPAXPAPAXPAPAXPAPAXPAPAXPAPAX@Z  (Idle)
01:00063084 ?_object_typelib_initializer@event7@@SGXQAV1@@PAXPAXPAXPAXPAXPAXPAXPAXQAVrTypeLibrary@TypeLibraries@RunTime@VIP@@1111111@Z 
01:000630C4 ?anonymous$o2$1$addlistener/2np$event7{@Source,@Type1,@Type2,@Type3,@Type4,@Type5,@Type6,@Type7}@event7@@SAXPAUanonymous$o2$1$addlistener/2np$event7{@Source,@Type1,@Type2,@Type3,@Type4,@Type5,@Type6,@Type7}c_struct@1/8@PAXPAX@Z 
01:000630E8 ?addListener@event7@@SAXQAV1@@PAXPAXPAXPAXPAXPAXPAXPAXQAVrTypeLibrary@TypeLibraries@RunTime@VIP@@1XQAVevent1@@@PAXPAX@Z 
01:00063180 ?anonymous$o3$1$addlistener/2np$event7{@Source,@Type1,@Type2,@Type3,@Type4,@Type5,@Type6,@Type7}@event7@@SAXPAUanonymous$o3$1$addlistener/2np$event7{@Source,@Type1,@Type2,@Type3,@Type4,@Type5,@Type6,@Type7}c_struct@1/8@PAXPAXPAX@Z 
01:000631A4 ?addListener@event7@@SAXQAV1@@PAXPAXPAXPAXPAXPAXPAXPAXQAVrTypeLibrary@TypeLibraries@RunTime@VIP@@11XQAVevent2@@@PAXPAXPAX@Z 
01:00063244 ?anonymous$o4$1$addlistener/2np$event7{@Source,@Type1,@Type2,@Type3,@Type4,@Type5,@Type6,@Type7}@event7@@SAXPAUanonymous$o4$1$addlistener/2np$event7{@Source,@Type1,@Type2,@Type3,@Type4,@Type5,@Type6,@Type7}c_struct@1/8@PAXPAXPAXPAX@Z 
01:00063268 ?addListener@event7@@SAXQAV1@@PAXPAXPAXPAXPAXPAXPAXPAXQAVrTypeLibrary@TypeLibraries@RunTime@VIP@@111XQAVevent3@@@PAXPAXPAXPAX@Z 
01:0006330C ?anonymous$o5$1$addlistener/2np$event7{@Source,@Type1,@Type2,@Type3,@Type4,@Type5,@Type6,@Type7}@event7@@SAXPAUanonymous$o5$1$addlistener/2np$event7{@Source,@Type1,@Type2,@Type3,@Type4,@Type5,@Type6,@Type7}c_struct@1/8@PAXPAXPAXPAXPAX@Z 
01:00063330 ?addListener@event7@@SAXQAV1@@PAXPAXPAXPAXPAXPAXPAXPAXQAVrTypeLibrary@TypeLibraries@RunTime@VIP@@1111XQAVevent4@@@PAXPAXPAXPAXPAX@Z 
01:000633DC ?anonymous$o6$1$addlistener/2np$event7{@Source,@Type1,@Type2,@Type3,@Type4,@Type5,@Type6,@Type7}@event7@@SAXPAUanonymous$o6$1$addlistener/2np$event7{@Source,@Type1,@Type2,@Type3,@Type4,@Type5,@Type6,@Type7}c_struct@1/8@PAXPAXPAXPAXPAXPAX@Z 
01:00063400 ?addListener@event7@@SAXQAV1@@PAXPAXPAXPAXPAXPAXPAXPAXQAVrTypeLibrary@TypeLibraries@RunTime@VIP@@11111XQAVevent5@@@PAXPAXPAXPAXPAXPAX@Z 
01:000634B0 ?anonymous$o7$1$addlistener/2np$event7{@Source,@Type1,@Type2,@Type3,@Type4,@Type5,@Type6,@Type7}@event7@@SAXPAUanonymous$o7$1$addlistener/2np$event7{@Source,@Type1,@Type2,@Type3,@Type4,@Type5,@Type6,@Type7}c_struct@1/8@PAXPAXPAXPAXPAXPAXPAX@Z 
01:000634D4 ?addListener@event7@@SAXQAV1@@PAXPAXPAXPAXPAXPAXPAXPAXQAVrTypeLibrary@TypeLibraries@RunTime@VIP@@111111XQAVevent6@@@PAXPAXPAXPAXPAXPAXPAX@Z 
01:0006358C ?anonymous$o8$1$addlistener/2np$event7{@Source,@Type1,@Type2,@Type3,@Type4,@Type5,@Type6,@Type7}@event7@@SAXPAUanonymous$o8$1$addlistener/2np$event7{@Source,@Type1,@Type2,@Type3,@Type4,@Type5,@Type6,@Type7}c_struct@1/8@PAXPAXPAXPAXPAXPAXPAXPAX@Z 
01:000635B0 ?addListener@event7@@SAXQAV1@@PAXPAXPAXPAXPAXPAXPAXPAXQAVrTypeLibrary@TypeLibraries@RunTime@VIP@@1111111X0@Z 
01:0006366C ?new@event6@@SAXQAV1@@PAXPAXPAXPAXPAXPAXPAXQAVrTypeLibrary@TypeLibraries@RunTime@VIP@@111111PAX@Z  (Idle)
01:00063680 ?addListener@event6@@SAXQAV1@@PAXPAXPAXPAXPAXPAXPAXX@Z 
01:000636A8 ?anonymous$o1$1$addlistener/2np$event6{@Source,@Type1,@Type2,@Type3,@Type4,@Type5,@Type6}@event6@@SAXPAUanonymous$o1$1$addlistener/2np$event6{@Source,@Type1,@Type2,@Type3,@Type4,@Type5,@Type6}c_struct@1/7@PAX@Z 
01:000636CC ?addListener@event6@@SAXQAV1@@PAXPAXPAXPAXPAXPAXPAXQAVrTypeLibrary@TypeLibraries@RunTime@VIP@@XQAVevent0@@@PAX@Z 
01:00063758 ?removeListener@event6@@SAXQAV1@@PAXPAXPAXPAXPAXPAXPAXX@Z 
01:000637F8 ?removeAllListeners@event6@@SAXQAV1@@PAXPAXPAXPAXPAXPAXPAX@Z 
01:00063834 ?hasListeners@event6@@SAXQAV1@@PAXPAXPAXPAXPAXPAXPAX@Z 
01:00063854 ?notify@event6@@SAXQAV1@@PAXPAXPAXPAXPAXPAXPAXPAXPAXPAXPAXPAXPAX@Z 
01:000638E0 ?_new@event6@@SAXQAVrTypeLibrary@TypeLibraries@RunTime@VIP@@000000PAXPAPAV1@@PAPAXPAPAXPAPAXPAPAXPAPAXPAPAXPAPAX@Z  (Idle)
01:00063934 ?_object_typelib_initializer@event6@@SGXQAV1@@PAXPAXPAXPAXPAXPAXPAXQAVrTypeLibrary@TypeLibraries@RunTime@VIP@@111111@Z 
01:00063970 ?anonymous$o2$1$addlistener/2np$event6{@Source,@Type1,@Type2,@Type3,@Type4,@Type5,@Type6}@event6@@SAXPAUanonymous$o2$1$addlistener/2np$event6{@Source,@Type1,@Type2,@Type3,@Type4,@Type5,@Type6}c_struct@1/7@PAXPAX@Z 
01:00063994 ?addListener@event6@@SAXQAV1@@PAXPAXPAXPAXPAXPAXPAXQAVrTypeLibrary@TypeLibraries@RunTime@VIP@@1XQAVevent1@@@PAXPAX@Z 
01:00063A28 ?anonymous$o3$1$addlistener/2np$event6{@Source,@Type1,@Type2,@Type3,@Type4,@Type5,@Type6}@event6@@SAXPAUanonymous$o3$1$addlistener/2np$event6{@Source,@Type1,@Type2,@Type3,@Type4,@Type5,@Type6}c_struct@1/7@PAXPAXPAX@Z 
01:00063A4C ?addListener@event6@@SAXQAV1@@PAXPAXPAXPAXPAXPAXPAXQAVrTypeLibrary@TypeLibraries@RunTime@VIP@@11XQAVevent2@@@PAXPAXPAX@Z 
01:00063AE4 ?anonymous$o4$1$addlistener/2np$event6{@Source,@Type1,@Type2,@Type3,@Type4,@Type5,@Type6}@event6@@SAXPAUanonymous$o4$1$addlistener/2np$event6{@Source,@Type1,@Type2,@Type3,@Type4,@Type5,@Type6}c_struct@1/7@PAXPAXPAXPAX@Z 
01:00063B08 ?addListener@event6@@SAXQAV1@@PAXPAXPAXPAXPAXPAXPAXQAVrTypeLibrary@TypeLibraries@RunTime@VIP@@111XQAVevent3@@@PAXPAXPAXPAX@Z 
01:00063BA8 ?anonymous$o5$1$addlistener/2np$event6{@Source,@Type1,@Type2,@Type3,@Type4,@Type5,@Type6}@event6@@SAXPAUanonymous$o5$1$addlistener/2np$event6{@Source,@Type1,@Type2,@Type3,@Type4,@Type5,@Type6}c_struct@1/7@PAXPAXPAXPAXPAX@Z 
01:00063BCC ?addListener@event6@@SAXQAV1@@PAXPAXPAXPAXPAXPAXPAXQAVrTypeLibrary@TypeLibraries@RunTime@VIP@@1111XQAVevent4@@@PAXPAXPAXPAXPAX@Z 
01:00063C70 ?anonymous$o6$1$addlistener/2np$event6{@Source,@Type1,@Type2,@Type3,@Type4,@Type5,@Type6}@event6@@SAXPAUanonymous$o6$1$addlistener/2np$event6{@Source,@Type1,@Type2,@Type3,@Type4,@Type5,@Type6}c_struct@1/7@PAXPAXPAXPAXPAXPAX@Z 
01:00063C94 ?addListener@event6@@SAXQAV1@@PAXPAXPAXPAXPAXPAXPAXQAVrTypeLibrary@TypeLibraries@RunTime@VIP@@11111XQAVevent5@@@PAXPAXPAXPAXPAXPAX@Z 
01:00063D40 ?anonymous$o7$1$addlistener/2np$event6{@Source,@Type1,@Type2,@Type3,@Type4,@Type5,@Type6}@event6@@SAXPAUanonymous$o7$1$addlistener/2np$event6{@Source,@Type1,@Type2,@Type3,@Type4,@Type5,@Type6}c_struct@1/7@PAXPAXPAXPAXPAXPAXPAX@Z 
01:00063D64 ?addListener@event6@@SAXQAV1@@PAXPAXPAXPAXPAXPAXPAXQAVrTypeLibrary@TypeLibraries@RunTime@VIP@@111111X0@Z 
01:00063E14 ?new@event5@@SAXQAV1@@PAXPAXPAXPAXPAXPAXQAVrTypeLibrary@TypeLibraries@RunTime@VIP@@11111PAX@Z  (Idle)
01:00063E28 ?addListener@event5@@SAXQAV1@@PAXPAXPAXPAXPAXPAXX@Z 
01:00063E50 ?anonymous$o1$1$addlistener/2np$event5{@Source,@Type1,@Type2,@Type3,@Type4,@Type5}@event5@@SAXPAUanonymous$o1$1$addlistener/2np$event5{@Source,@Type1,@Type2,@Type3,@Type4,@Type5}c_struct@1/6@PAX@Z 
01:00063E74 ?addListener@event5@@SAXQAV1@@PAXPAXPAXPAXPAXPAXQAVrTypeLibrary@TypeLibraries@RunTime@VIP@@XQAVevent0@@@PAX@Z 
01:00063EF8 ?removeListener@event5@@SAXQAV1@@PAXPAXPAXPAXPAXPAXX@Z 
01:00063F98 ?removeAllListeners@event5@@SAXQAV1@@PAXPAXPAXPAXPAXPAX@Z 
01:00063FD4 ?hasListeners@event5@@SAXQAV1@@PAXPAXPAXPAXPAXPAX@Z 
01:00063FF4 ?notify@event5@@SAXQAV1@@PAXPAXPAXPAXPAXPAXPAXPAXPAXPAXPAX@Z 
01:0006407C ?_new@event5@@SAXQAVrTypeLibrary@TypeLibraries@RunTime@VIP@@00000PAXPAPAV1@@PAPAXPAPAXPAPAXPAPAXPAPAXPAPAX@Z 
01:000640C8 ?_object_typelib_initializer@event5@@SGXQAV1@@PAXPAXPAXPAXPAXPAXQAVrTypeLibrary@TypeLibraries@RunTime@VIP@@11111@Z 
01:000640FC ?anonymous$o2$1$addlistener/2np$event5{@Source,@Type1,@Type2,@Type3,@Type4,@Type5}@event5@@SAXPAUanonymous$o2$1$addlistener/2np$event5{@Source,@Type1,@Type2,@Type3,@Type4,@Type5}c_struct@1/6@PAXPAX@Z 
01:00064120 ?addListener@event5@@SAXQAV1@@PAXPAXPAXPAXPAXPAXQAVrTypeLibrary@TypeLibraries@RunTime@VIP@@1XQAVevent1@@@PAXPAX@Z 
01:000641AC ?anonymous$o3$1$addlistener/2np$event5{@Source,@Type1,@Type2,@Type3,@Type4,@Type5}@event5@@SAXPAUanonymous$o3$1$addlistener/2np$event5{@Source,@Type1,@Type2,@Type3,@Type4,@Type5}c_struct@1/6@PAXPAXPAX@Z 
01:000641D0 ?addListener@event5@@SAXQAV1@@PAXPAXPAXPAXPAXPAXQAVrTypeLibrary@TypeLibraries@RunTime@VIP@@11XQAVevent2@@@PAXPAXPAX@Z 
01:00064264 ?anonymous$o4$1$addlistener/2np$event5{@Source,@Type1,@Type2,@Type3,@Type4,@Type5}@event5@@SAXPAUanonymous$o4$1$addlistener/2np$event5{@Source,@Type1,@Type2,@Type3,@Type4,@Type5}c_struct@1/6@PAXPAXPAXPAX@Z 
01:00064288 ?addListener@event5@@SAXQAV1@@PAXPAXPAXPAXPAXPAXQAVrTypeLibrary@TypeLibraries@RunTime@VIP@@111XQAVevent3@@@PAXPAXPAXPAX@Z 
01:00064320 ?anonymous$o5$1$addlistener/2np$event5{@Source,@Type1,@Type2,@Type3,@Type4,@Type5}@event5@@SAXPAUanonymous$o5$1$addlistener/2np$event5{@Source,@Type1,@Type2,@Type3,@Type4,@Type5}c_struct@1/6@PAXPAXPAXPAXPAX@Z 
01:00064344 ?addListener@event5@@SAXQAV1@@PAXPAXPAXPAXPAXPAXQAVrTypeLibrary@TypeLibraries@RunTime@VIP@@1111XQAVevent4@@@PAXPAXPAXPAXPAX@Z 
01:000643E4 ?anonymous$o6$1$addlistener/2np$event5{@Source,@Type1,@Type2,@Type3,@Type4,@Type5}@event5@@SAXPAUanonymous$o6$1$addlistener/2np$event5{@Source,@Type1,@Type2,@Type3,@Type4,@Type5}c_struct@1/6@PAXPAXPAXPAXPAXPAX@Z 
01:00064408 ?addListener@event5@@SAXQAV1@@PAXPAXPAXPAXPAXPAXQAVrTypeLibrary@TypeLibraries@RunTime@VIP@@11111X0@Z 
01:000644AC ?new@event4@@SAXQAV1@@PAXPAXPAXPAXPAXQAVrTypeLibrary@TypeLibraries@RunTime@VIP@@1111PAX@Z  (Idle)
01:000644C0 ?addListener@event4@@SAXQAV1@@PAXPAXPAXPAXPAXX@Z 
01:000644E8 ?anonymous$o1$1$addlistener/2np$event4{@Source,@Type1,@Type2,@Type3,@Type4}@event4@@SAXPAUanonymous$o1$1$addlistener/2np$event4{@Source,@Type1,@Type2,@Type3,@Type4}c_struct@1/5@PAX@Z 
01:0006450C ?addListener@event4@@SAXQAV1@@PAXPAXPAXPAXPAXQAVrTypeLibrary@TypeLibraries@RunTime@VIP@@XQAVevent0@@@PAX@Z 
01:0006458C ?removeListener@event4@@SAXQAV1@@PAXPAXPAXPAXPAXX@Z 
01:0006462C ?removeAllListeners@event4@@SAXQAV1@@PAXPAXPAXPAXPAX@Z 
01:00064668 ?hasListeners@event4@@SAXQAV1@@PAXPAXPAXPAXPAX@Z 
01:00064688 ?notify@event4@@SAXQAV1@@PAXPAXPAXPAXPAXPAXPAXPAXPAX@Z 
01:0006470C ?_new@event4@@SAXQAVrTypeLibrary@TypeLibraries@RunTime@VIP@@0000PAXPAPAV1@@PAPAXPAPAXPAPAXPAPAXPAPAX@Z 
01:00064754 ?_object_typelib_initializer@event4@@SGXQAV1@@PAXPAXPAXPAXPAXQAVrTypeLibrary@TypeLibraries@RunTime@VIP@@1111@Z 
01:00064784 ?anonymous$o2$1$addlistener/2np$event4{@Source,@Type1,@Type2,@Type3,@Type4}@event4@@SAXPAUanonymous$o2$1$addlistener/2np$event4{@Source,@Type1,@Type2,@Type3,@Type4}c_struct@1/5@PAXPAX@Z 
01:000647A8 ?addListener@event4@@SAXQAV1@@PAXPAXPAXPAXPAXQAVrTypeLibrary@TypeLibraries@RunTime@VIP@@1XQAVevent1@@@PAXPAX@Z 
01:00064830 ?anonymous$o3$1$addlistener/2np$event4{@Source,@Type1,@Type2,@Type3,@Type4}@event4@@SAXPAUanonymous$o3$1$addlistener/2np$event4{@Source,@Type1,@Type2,@Type3,@Type4}c_struct@1/5@PAXPAXPAX@Z 
01:00064854 ?addListener@event4@@SAXQAV1@@PAXPAXPAXPAXPAXQAVrTypeLibrary@TypeLibraries@RunTime@VIP@@11XQAVevent2@@@PAXPAXPAX@Z 
01:000648E0 ?anonymous$o4$1$addlistener/2np$event4{@Source,@Type1,@Type2,@Type3,@Type4}@event4@@SAXPAUanonymous$o4$1$addlistener/2np$event4{@Source,@Type1,@Type2,@Type3,@Type4}c_struct@1/5@PAXPAXPAXPAX@Z 
01:00064904 ?addListener@event4@@SAXQAV1@@PAXPAXPAXPAXPAXQAVrTypeLibrary@TypeLibraries@RunTime@VIP@@111XQAVevent3@@@PAXPAXPAXPAX@Z 
01:00064998 ?anonymous$o5$1$addlistener/2np$event4{@Source,@Type1,@Type2,@Type3,@Type4}@event4@@SAXPAUanonymous$o5$1$addlistener/2np$event4{@Source,@Type1,@Type2,@Type3,@Type4}c_struct@1/5@PAXPAXPAXPAXPAX@Z 
01:000649BC ?addListener@event4@@SAXQAV1@@PAXPAXPAXPAXPAXQAVrTypeLibrary@TypeLibraries@RunTime@VIP@@1111X0@Z 
01:00064A54 ?anonymous$o6$1$addlistener/2np$event4{@Source,@Type1,@Type2,@Type3,@Type4}@event4@@SAXPAUanonymous$o6$1$addlistener/2np$event4{@Source,@Type1,@Type2,@Type3,@Type4}c_struct@1/5@PAXPAXPAXPAXPAXPAX@Z 
01:00064A78 ?addListener@event4@@SAXQAV1@@PAXPAXPAXPAXPAXQAVrTypeLibrary@TypeLibraries@RunTime@VIP@@11111XQAVevent5@@@PAXPAXPAXPAXPAXPAX@Z 
01:00064B18 ?new@event3@@SAXQAV1@@PAXPAXPAXPAXQAVrTypeLibrary@TypeLibraries@RunTime@VIP@@111PAX@Z  (Idle)
01:00064B2C ?addListener@event3@@SAXQAV1@@PAXPAXPAXPAXX@Z 
01:00064B54 ?anonymous$o1$1$addlistener/2np$event3{@Source,@Type1,@Type2,@Type3}@event3@@SAXPAUanonymous$o1$1$addlistener/2np$event3{@Source,@Type1,@Type2,@Type3}c_struct@1/4@PAX@Z 
01:00064B78 ?addListener@event3@@SAXQAV1@@PAXPAXPAXPAXQAVrTypeLibrary@TypeLibraries@RunTime@VIP@@XQAVevent0@@@PAX@Z 
01:00064BF0 ?removeListener@event3@@SAXQAV1@@PAXPAXPAXPAXX@Z 
01:00064C90 ?removeAllListeners@event3@@SAXQAV1@@PAXPAXPAXPAX@Z 
01:00064CCC ?hasListeners@event3@@SAXQAV1@@PAXPAXPAXPAX@Z 
01:00064CEC ?notify@event3@@SAXQAV1@@PAXPAXPAXPAXPAXPAXPAX@Z 
01:00064D70 ?_new@event3@@SAXQAVrTypeLibrary@TypeLibraries@RunTime@VIP@@000PAXPAPAV1@@PAPAXPAPAXPAPAXPAPAX@Z 
01:00064DB0 ?_object_typelib_initializer@event3@@SGXQAV1@@PAXPAXPAXPAXQAVrTypeLibrary@TypeLibraries@RunTime@VIP@@111@Z 
01:00064DD8 ?anonymous$o2$1$addlistener/2np$event3{@Source,@Type1,@Type2,@Type3}@event3@@SAXPAUanonymous$o2$1$addlistener/2np$event3{@Source,@Type1,@Type2,@Type3}c_struct@1/4@PAXPAX@Z 
01:00064DFC ?addListener@event3@@SAXQAV1@@PAXPAXPAXPAXQAVrTypeLibrary@TypeLibraries@RunTime@VIP@@1XQAVevent1@@@PAXPAX@Z 
01:00064E7C ?anonymous$o3$1$addlistener/2np$event3{@Source,@Type1,@Type2,@Type3}@event3@@SAXPAUanonymous$o3$1$addlistener/2np$event3{@Source,@Type1,@Type2,@Type3}c_struct@1/4@PAXPAXPAX@Z 
01:00064EA0 ?addListener@event3@@SAXQAV1@@PAXPAXPAXPAXQAVrTypeLibrary@TypeLibraries@RunTime@VIP@@11XQAVevent2@@@PAXPAXPAX@Z 
01:00064F28 ?anonymous$o4$1$addlistener/2np$event3{@Source,@Type1,@Type2,@Type3}@event3@@SAXPAUanonymous$o4$1$addlistener/2np$event3{@Source,@Type1,@Type2,@Type3}c_struct@1/4@PAXPAXPAXPAX@Z 
01:00064F4C ?addListener@event3@@SAXQAV1@@PAXPAXPAXPAXQAVrTypeLibrary@TypeLibraries@RunTime@VIP@@111X0@Z 
01:00064FD8 ?anonymous$o5$1$addlistener/2np$event3{@Source,@Type1,@Type2,@Type3}@event3@@SAXPAUanonymous$o5$1$addlistener/2np$event3{@Source,@Type1,@Type2,@Type3}c_struct@1/4@PAXPAXPAXPAXPAX@Z 
01:00064FFC ?addListener@event3@@SAXQAV1@@PAXPAXPAXPAXQAVrTypeLibrary@TypeLibraries@RunTime@VIP@@1111XQAVevent4@@@PAXPAXPAXPAXPAX@Z 
01:00065090 ?anonymous$o6$1$addlistener/2np$event3{@Source,@Type1,@Type2,@Type3}@event3@@SAXPAUanonymous$o6$1$addlistener/2np$event3{@Source,@Type1,@Type2,@Type3}c_struct@1/4@PAXPAXPAXPAXPAXPAX@Z 
01:000650B4 ?addListener@event3@@SAXQAV1@@PAXPAXPAXPAXQAVrTypeLibrary@TypeLibraries@RunTime@VIP@@11111XQAVevent5@@@PAXPAXPAXPAXPAXPAX@Z 
01:0006514C ?new@event2@@SAXQAV1@@PAXPAXPAXQAVrTypeLibrary@TypeLibraries@RunTime@VIP@@11PAX@Z  (Idle)
01:00065160 ?addListener@event2@@SAXQAV1@@PAXPAXPAXX@Z 
01:00065188 ?anonymous$o1$1$addlistener/2np$event2{@Source,@Type1,@Type2}@event2@@SAXPAUanonymous$o1$1$addlistener/2np$event2{@Source,@Type1,@Type2}c_struct@1/3@PAX@Z 
01:000651AC ?addListener@event2@@SAXQAV1@@PAXPAXPAXQAVrTypeLibrary@TypeLibraries@RunTime@VIP@@XQAVevent0@@@PAX@Z 
01:00065220 ?removeListener@event2@@SAXQAV1@@PAXPAXPAXX@Z 
01:000652C0 ?removeAllListeners@event2@@SAXQAV1@@PAXPAXPAX@Z 
01:000652FC ?hasListeners@event2@@SAXQAV1@@PAXPAXPAX@Z 
01:0006531C ?notify@event2@@SAXQAV1@@PAXPAXPAXPAXPAX@Z 
01:0006539C ?_new@event2@@SAXQAVrTypeLibrary@TypeLibraries@RunTime@VIP@@00PAXPAPAV1@@PAPAXPAPAXPAPAX@Z 
01:000653D8 ?_object_typelib_initializer@event2@@SGXQAV1@@PAXPAXPAXQAVrTypeLibrary@TypeLibraries@RunTime@VIP@@11@Z 
01:000653FC ?anonymous$o2$1$addlistener/2np$event2{@Source,@Type1,@Type2}@event2@@SAXPAUanonymous$o2$1$addlistener/2np$event2{@Source,@Type1,@Type2}c_struct@1/3@PAXPAX@Z 
01:00065420 ?addListener@event2@@SAXQAV1@@PAXPAXPAXQAVrTypeLibrary@TypeLibraries@RunTime@VIP@@1XQAVevent1@@@PAXPAX@Z 
01:0006549C ?anonymous$o3$1$addlistener/2np$event2{@Source,@Type1,@Type2}@event2@@SAXPAUanonymous$o3$1$addlistener/2np$event2{@Source,@Type1,@Type2}c_struct@1/3@PAXPAXPAX@Z 
01:000654C0 ?addListener@event2@@SAXQAV1@@PAXPAXPAXQAVrTypeLibrary@TypeLibraries@RunTime@VIP@@11X0@Z 
01:00065540 ?anonymous$o4$1$addlistener/2np$event2{@Source,@Type1,@Type2}@event2@@SAXPAUanonymous$o4$1$addlistener/2np$event2{@Source,@Type1,@Type2}c_struct@1/3@PAXPAXPAXPAX@Z 
01:00065564 ?addListener@event2@@SAXQAV1@@PAXPAXPAXQAVrTypeLibrary@TypeLibraries@RunTime@VIP@@111XQAVevent3@@@PAXPAXPAXPAX@Z 
01:000655EC ?anonymous$o5$1$addlistener/2np$event2{@Source,@Type1,@Type2}@event2@@SAXPAUanonymous$o5$1$addlistener/2np$event2{@Source,@Type1,@Type2}c_struct@1/3@PAXPAXPAXPAXPAX@Z 
01:00065610 ?addListener@event2@@SAXQAV1@@PAXPAXPAXQAVrTypeLibrary@TypeLibraries@RunTime@VIP@@1111XQAVevent4@@@PAXPAXPAXPAXPAX@Z 
01:0006569C ?anonymous$o6$1$addlistener/2np$event2{@Source,@Type1,@Type2}@event2@@SAXPAUanonymous$o6$1$addlistener/2np$event2{@Source,@Type1,@Type2}c_struct@1/3@PAXPAXPAXPAXPAXPAX@Z 
01:000656C0 ?addListener@event2@@SAXQAV1@@PAXPAXPAXQAVrTypeLibrary@TypeLibraries@RunTime@VIP@@11111XQAVevent5@@@PAXPAXPAXPAXPAXPAX@Z 
01:00065754 ?new@event1@@SAXQAV1@@PAXPAXQAVrTypeLibrary@TypeLibraries@RunTime@VIP@@1PAX@Z  (Idle)
01:00065768 ?addListener@event1@@SAXQAV1@@PAXPAXX@Z 
01:00065790 ?anonymous$o1$1$addlistener/2np$event1{@Source,@Type1}@event1@@SAXPAUanonymous$o1$1$addlistener/2np$event1{@Source,@Type1}c_struct@1/2@PAX@Z 
01:000657B4 ?addListener@event1@@SAXQAV1@@PAXPAXQAVrTypeLibrary@TypeLibraries@RunTime@VIP@@XQAVevent0@@@PAX@Z 
01:00065820 ?removeListener@event1@@SAXQAV1@@PAXPAXX@Z 
01:000658C0 ?removeAllListeners@event1@@SAXQAV1@@PAXPAX@Z 
01:000658FC ?hasListeners@event1@@SAXQAV1@@PAXPAX@Z 
01:0006591C ?notify@event1@@SAXQAV1@@PAXPAXPAX@Z 
01:00065998 ?_new@event1@@SAXQAVrTypeLibrary@TypeLibraries@RunTime@VIP@@0PAXPAPAV1@@PAPAXPAPAX@Z 
01:000659CC ?_object_typelib_initializer@event1@@SGXQAV1@@PAXPAXQAVrTypeLibrary@TypeLibraries@RunTime@VIP@@1@Z 
01:000659E8 ?anonymous$o2$1$addlistener/2np$event1{@Source,@Type1}@event1@@SAXPAUanonymous$o2$1$addlistener/2np$event1{@Source,@Type1}c_struct@1/2@PAXPAX@Z 
01:00065A0C ?addListener@event1@@SAXQAV1@@PAXPAXQAVrTypeLibrary@TypeLibraries@RunTime@VIP@@1X0@Z 
01:00065A80 ?anonymous$o3$1$addlistener/2np$event1{@Source,@Type1}@event1@@SAXPAUanonymous$o3$1$addlistener/2np$event1{@Source,@Type1}c_struct@1/2@PAXPAXPAX@Z 
01:00065AA4 ?addListener@event1@@SAXQAV1@@PAXPAXQAVrTypeLibrary@TypeLibraries@RunTime@VIP@@11XQAVevent2@@@PAXPAXPAX@Z 
01:00065B20 ?anonymous$o4$1$addlistener/2np$event1{@Source,@Type1}@event1@@SAXPAUanonymous$o4$1$addlistener/2np$event1{@Source,@Type1}c_struct@1/2@PAXPAXPAXPAX@Z 
01:00065B44 ?addListener@event1@@SAXQAV1@@PAXPAXQAVrTypeLibrary@TypeLibraries@RunTime@VIP@@111XQAVevent3@@@PAXPAXPAXPAX@Z 
01:00065BC4 ?anonymous$o5$1$addlistener/2np$event1{@Source,@Type1}@event1@@SAXPAUanonymous$o5$1$addlistener/2np$event1{@Source,@Type1}c_struct@1/2@PAXPAXPAXPAXPAX@Z 
01:00065BE8 ?addListener@event1@@SAXQAV1@@PAXPAXQAVrTypeLibrary@TypeLibraries@RunTime@VIP@@1111XQAVevent4@@@PAXPAXPAXPAXPAX@Z 
01:00065C70 ?anonymous$o6$1$addlistener/2np$event1{@Source,@Type1}@event1@@SAXPAUanonymous$o6$1$addlistener/2np$event1{@Source,@Type1}c_struct@1/2@PAXPAXPAXPAXPAXPAX@Z 
01:00065C94 ?addListener@event1@@SAXQAV1@@PAXPAXQAVrTypeLibrary@TypeLibraries@RunTime@VIP@@11111XQAVevent5@@@PAXPAXPAXPAXPAXPAX@Z 
01:00065D20 ?new@event0@@SAXQAV1@@PAXQAVrTypeLibrary@TypeLibraries@RunTime@VIP@@PAX@Z  (Idle)
01:00065D34 ?addListener@event0@@SAXQAV1@@PAXX@Z 
01:00065D5C ?anonymous$o1$1$addlistener/2np$event0{@Source}@event0@@SAXPAUanonymous$o1$1$addlistener/2np$event0{@Source}c_struct@1/1@PAX@Z 
01:00065D80 ?addListener@event0@@SAXQAV1@@PAXQAVrTypeLibrary@TypeLibraries@RunTime@VIP@@X0@Z 
01:00065DE8 ?removeListener@event0@@SAXQAV1@@PAXX@Z 
01:00065E88 ?removeAllListeners@event0@@SAXQAV1@@PAX@Z 
01:00065EC4 ?hasListeners@event0@@SAXQAV1@@PAX@Z 
01:00065EE4 ?notify@event0@@SAXQAV1@@PAX@Z 
--- From 'Obj\Command.0BA5442E.obj'
01:00065F5C ?_new@event0@@SAXQAVrTypeLibrary@TypeLibraries@RunTime@VIP@@PAXPAPAV1@@PAPAX@Z 
--- From 'Obj\event.43AD3974.obj'
01:00065F8C ?_object_typelib_initializer@event0@@SGXQAV1@@PAXQAVrTypeLibrary@TypeLibraries@RunTime@VIP@@@Z 
01:00065FA4 ?anonymous$o2$1$addlistener/2np$event0{@Source}@event0@@SAXPAUanonymous$o2$1$addlistener/2np$event0{@Source}c_struct@1/1@PAXPAX@Z 
01:00065FC8 ?addListener@event0@@SAXQAV1@@PAXQAVrTypeLibrary@TypeLibraries@RunTime@VIP@@1XQAVevent1@@@PAXPAX@Z 
01:00066038 ?anonymous$o3$1$addlistener/2np$event0{@Source}@event0@@SAXPAUanonymous$o3$1$addlistener/2np$event0{@Source}c_struct@1/1@PAXPAXPAX@Z 
01:0006605C ?addListener@event0@@SAXQAV1@@PAXQAVrTypeLibrary@TypeLibraries@RunTime@VIP@@11XQAVevent2@@@PAXPAXPAX@Z 
01:000660D0 ?anonymous$o4$1$addlistener/2np$event0{@Source}@event0@@SAXPAUanonymous$o4$1$addlistener/2np$event0{@Source}c_struct@1/1@PAXPAXPAXPAX@Z 
01:000660F4 ?addListener@event0@@SAXQAV1@@PAXQAVrTypeLibrary@TypeLibraries@RunTime@VIP@@111XQAVevent3@@@PAXPAXPAXPAX@Z 
01:00066170 ?anonymous$o5$1$addlistener/2np$event0{@Source}@event0@@SAXPAUanonymous$o5$1$addlistener/2np$event0{@Source}c_struct@1/1@PAXPAXPAXPAXPAX@Z 
01:00066194 ?addListener@event0@@SAXQAV1@@PAXQAVrTypeLibrary@TypeLibraries@RunTime@VIP@@1111XQAVevent4@@@PAXPAXPAXPAXPAX@Z 
01:00066214 ?anonymous$o6$1$addlistener/2np$event0{@Source}@event0@@SAXPAUanonymous$o6$1$addlistener/2np$event0{@Source}c_struct@1/1@PAXPAXPAXPAXPAXPAX@Z 
01:00066238 ?addListener@event0@@SAXQAV1@@PAXQAVrTypeLibrary@TypeLibraries@RunTime@VIP@@11111XQAVevent5@@@PAXPAXPAXPAXPAXPAX@Z 
01:000662C8 event7{@Source,@Type1,@Type2,@Type3,@Type4,@Type5,@Type6,@Type7}?_initObject@@@QAGXQAV1@H@Z 
01:00066308 ?@create_object@event7@@SGQAV1@@PAXPAXPAXPAXPAXPAXPAXPAXQAVrTypeLibrary@TypeLibraries@RunTime@VIP@@0000000@Z 
01:00066348 event7{@Source,@Type1,@Type2,@Type3,@Type4,@Type5,@Type6,@Type7}?_InternalFinalizer@@@QAGXQAV1@@Z 
01:0006635C event6{@Source,@Type1,@Type2,@Type3,@Type4,@Type5,@Type6}?_initObject@@@QAGXQAV1@H@Z 
01:00066398 ?@create_object@event6@@SGQAV1@@PAXPAXPAXPAXPAXPAXPAXQAVrTypeLibrary@TypeLibraries@RunTime@VIP@@000000@Z 
01:000663D4 event6{@Source,@Type1,@Type2,@Type3,@Type4,@Type5,@Type6}?_InternalFinalizer@@@QAGXQAV1@@Z 
01:000663E8 event5{@Source,@Type1,@Type2,@Type3,@Type4,@Type5}?_initObject@@@QAGXQAV1@H@Z 
01:00066420 ?@create_object@event5@@SGQAV1@@PAXPAXPAXPAXPAXPAXQAVrTypeLibrary@TypeLibraries@RunTime@VIP@@00000@Z 
01:00066458 event5{@Source,@Type1,@Type2,@Type3,@Type4,@Type5}?_InternalFinalizer@@@QAGXQAV1@@Z 
01:0006646C event4{@Source,@Type1,@Type2,@Type3,@Type4}?_initObject@@@QAGXQAV1@H@Z 
01:000664A0 ?@create_object@event4@@SGQAV1@@PAXPAXPAXPAXPAXQAVrTypeLibrary@TypeLibraries@RunTime@VIP@@0000@Z 
01:000664D4 event4{@Source,@Type1,@Type2,@Type3,@Type4}?_InternalFinalizer@@@QAGXQAV1@@Z 
01:000664E8 event3{@Source,@Type1,@Type2,@Type3}?_initObject@@@QAGXQAV1@H@Z 
01:00066518 ?@create_object@event3@@SGQAV1@@PAXPAXPAXPAXQAVrTypeLibrary@TypeLibraries@RunTime@VIP@@000@Z 
01:00066548 event3{@Source,@Type1,@Type2,@Type3}?_InternalFinalizer@@@QAGXQAV1@@Z 
01:0006655C event2{@Source,@Type1,@Type2}?_initObject@@@QAGXQAV1@H@Z 
01:00066588 ?@create_object@event2@@SGQAV1@@PAXPAXPAXQAVrTypeLibrary@TypeLibraries@RunTime@VIP@@00@Z 
01:000665B4 event2{@Source,@Type1,@Type2}?_InternalFinalizer@@@QAGXQAV1@@Z 
01:000665C8 event1{@Source,@Type1}?_initObject@@@QAGXQAV1@H@Z 
01:000665F0 ?@create_object@event1@@SGQAV1@@PAXPAXQAVrTypeLibrary@TypeLibraries@RunTime@VIP@@0@Z 
01:00066618 event1{@Source,@Type1}?_InternalFinalizer@@@QAGXQAV1@@Z 
01:0006662C event0{@Source}?_initObject@@@QAGXQAV1@H@Z 
01:00066650 ?@create_object@event0@@SGQAV1@@PAXQAVrTypeLibrary@TypeLibraries@RunTime@VIP@@@Z 
01:00066674 event0{@Source}?_InternalFinalizer@@@QAGXQAV1@@Z 
--- From 'Obj\gdiplus.80149785.obj'
01:00066680 ?_createStream@iStream_api@@SAXQAEPAPAViStream_native@@@@Z 
--- From 'Obj\gui_api.7E4A6614.obj'
01:00066720 ?_createDialog@gui_native@@SAXPBUhModule@@HPBUhwnd@@XAAU3@@Z  (Idle)
01:00066740 ?_createDialogIndirect@gui_native@@SAXPBUhModule@@PAUdlgTemplate_struct@1@PBUhwnd@@XAAU5@@Z  (Idle)
01:00066760 ?_createDialog@gui_native@@SAXPBUhModule@@PB_WPBUhwnd@@XAAU3@@Z  (Idle)
01:00066780 ?_createDialogIndirect@gui_native@@SAXPBUhModule@@PAUdlgTemplateEx_struct@1@PBUhwnd@@XAAU5@@Z  (Idle)
01:000667A0 _AddClipboardFormatListener@4 
01:000667C4 _MenuItemFromPoint@16  (Idle)
01:000667E8 ?getScrollRange@gui_api@@SAXPBUhwnd@@HPAHPAH@Z  (Idle)
01:00066830 ?_getScrollInfo@gui_api@@SAXPBUhwnd@@HPAPAUscrollInfo_struct@1@@Z  (Idle)
01:00066924 ?_setScrollInfo@gui_api@@SAXPBUhwnd@@HPAUscrollInfo_struct@1@HPAH@Z  (Idle)
01:0006699C ?_scrollWindowEx@gui_api@@SAXPBUhwnd@@HHPAUrct_struct@vpiDomains@@3I3IPAH@Z  (Idle)
--- From 'Obj\gui.0D1EF882.obj'
01:000669F4 ?_makePoints@gui_api@@SAXPBUlParam@gui_native@@PAPAUpnt_struct@vpiDomains@@@Z 
--- From 'Obj\gui_api.7E4A6614.obj'
01:00066A4C ?getInteger16@gui_api@@SAXPBUunsignedNative@@AAUinteger16@@1@Z  (Idle)
01:00066A84 ?getUnsigned16@gui_api@@SAXPBUunsignedNative@@AAUunsigned16@@1@Z 
01:00066AC0 ?_makeLParam@gui_api@@SAXPAUpnt_struct@vpiDomains@@AAUlParam@gui_native@@@Z 
01:00066B3C ?_getWindowPlacement@gui_api@@SAXPBUhwnd@@PAPAUwindowPlacement_struct@1@@Z  (Idle)
01:00066C08 ?setWindowPlacement@gui_api@@SAXPBUhwnd@@PAUwindowPlacement_struct@1@@Z  (Idle)
01:00066CC0 ?_getTextExtentPoint32@gui_api@@SAXPBUhDC@@PB_WPAPAUsize_struct@gui_native@@@Z 
01:00066CF4 ?_getTextExtentPoint32@gui_api@@SAXPBUhDC@@PB_WPBUcharCount@@PAPAUsize_struct@gui_native@@@Z 
--- From 'Obj\gui.0D1EF882.obj'
01:00066D64 ?_getTextMetrics@gui_api@@SAXPBUhDC@@PAPAUtextmetric_struct@gui_native@@@Z 
--- From 'Obj\gui_api.7E4A6614.obj'
01:00066DC4 ?_registerClassEx@gui_api@@SAXIXHHPBUhModule@@PBUhIcon@@PBUhCursor@@PBUhBrush@@PB_W85AAUatom@@@Z  (Idle)
--- From 'Obj\controls.5CEFAE16.obj'
01:00066EB4 ?_createWindowEx@gui_api@@SAXIPB_W1IHHHHPBUhwnd@@PBUhMenu@@PBUhModule@@PAXAAU2@@Z 
--- From 'Obj\gui_api.7E4A6614.obj'
01:00066F6C ?_mkDlgTemplate@gui_api@@SAXPAUdlgTemplate_struct@1@PAPAU2gui_native@@@Z  (Idle)
01:000677AC ?writeVarArray@gui_api@@SAXQAVoutputStream@@@PAUvarArray_struct@1@@Z 
01:000678B0 ?align32@gui_api@@SAXQAVoutputStream@@@@Z 
01:00067974 ?_createDialogIndirectParam@gui_api@@SAXPBUhModule@@PAUdlgTemplate_struct@1@PBUhwnd@@XPBUlParam@@AAU5@@Z  (Idle)
01:000679D8 ?_beginPaint@gui_api@@SAXPBUhwnd@@PAPAUpaintStruct_struct@gui_native@@@Z  (Idle)
01:000679F8 ?_beginPaint@gui_api@@SAXPBUhwnd@@PAPAUpaintStruct_struct@gui_native@@AAUhDC@@@Z 
01:00067A60 ?endPaint@gui_api@@SAXPBUhwnd@@PAUpaintStruct_struct@gui_native@@@Z  (Idle)
--- From 'Obj\controls.5CEFAE16.obj'
01:00067A74 ?_getClientRect@gui_api@@SAXPBUhwnd@@PAPAUrct_struct@vpiDomains@@@Z 
--- From 'Obj\gui_api.7E4A6614.obj'
01:00067AD4 ?_getWindow_handle@gui_api@@SAXPBUhwnd@@HAAU3@@Z 
01:00067BCC ?_setWindow_handle@gui_api@@SAXPBUhwnd@@HPBU3@AAU3@@Z 
01:00067C20 ?_getWindow_integer@gui_api@@SAXPBUhwnd@@HPAH@Z  (Idle)
01:00067C50 ?_setWindow_integer@gui_api@@SAXPBUhwnd@@HHPAH@Z  (Idle)
01:00067C98 ?_getWindow_unsigned@gui_api@@SAXPBUhwnd@@HPAI@Z  (Idle)
01:00067CC8 ?_setWindow_unsigned@gui_api@@SAXPBUhwnd@@HIPAI@Z 
--- From 'Obj\gui.0D1EF882.obj'
01:00067D10 ?_getWindow_style@gui_api@@SAXPBUhwnd@@PAI@Z 
01:00067D2C ?setWindow_style@gui_api@@SAXPBUhwnd@@I@Z 
01:00067D4C ?_getWindow_exstyle@gui_api@@SAXPBUhwnd@@PAI@Z 
--- From 'Obj\gui_api.7E4A6614.obj'
01:00067D68 ?setWindow_exstyle@gui_api@@SAXPBUhwnd@@I@Z  (Idle)
01:00067D88 ?_getWindow_wndProc@gui_api@@SAXPBUhwnd@@PAX@Z 
01:00067DB0 ?_setWindow_wndProc@gui_api@@SAXPBUhwnd@@XPAX@Z 
01:00067DD8 ?_getClass_handle@gui_api@@SAXPBUhwnd@@HAAU3@@Z  (Idle)
01:00067E2C ?_setClass_handle@gui_api@@SAXPBUhwnd@@HPBU3@AAU3@@Z  (Idle)
01:00067E80 ?_getClass_integer@gui_api@@SAXPBUhwnd@@HPAH@Z  (Idle)
01:00067EB0 ?_setClass_integer@gui_api@@SAXPBUhwnd@@HHPAH@Z  (Idle)
01:00067EF8 ?_getClass_unsigned@gui_api@@SAXPBUhwnd@@HPAI@Z  (Idle)
01:00067F28 ?_setClass_unsigned@gui_api@@SAXPBUhwnd@@HIPAI@Z 
01:00067F70 ?extTextOut@gui_api@@SAXPBUhDC@@HHIPAUrct_struct@vpiDomains@@PB_W@Z  (Idle)
01:00067F9C ?extTextOut@gui_api@@SAXPBUhDC@@HHIPAUrct_struct@vpiDomains@@PB_WPAX@Z  (Idle)
01:00067FD0 ?extTextOut@gui_api@@SAXPBUhDC@@HHIPAUrct_struct@vpiDomains@@PB_WPBUcharCount@@PAX@Z 
--- From 'Obj\vpi.E4453945.obj'
01:00068024 ?invalidateRect@gui_api@@SAXPBUhwnd@@PAUrct_struct@vpiDomains@@PBUbooleanInt@@@Z 
--- From 'Obj\gui_api.7E4A6614.obj'
01:00068068 ?invalidate@gui_api@@SAXPBUhwnd@@PBUbooleanInt@@@Z  (Idle)
--- From 'Obj\gui.0D1EF882.obj'
01:00068088 ?bringWindowToTop@gui_api@@SAXPBUhwnd@@@Z 
01:000680C8 ?_setForegroundWindow@gui_api@@SAXPBUhwnd@@PAPAUboolean_struct@_builtIn@@@Z 
01:000680F8 ?_setFocus@gui_api@@SAXPBUhwnd@@AAU2@@Z 
--- From 'Obj\controls.5CEFAE16.obj'
01:0006813C ?_getParent@gui_api@@SAXPBUhwnd@@AAU2@@Z 
--- From 'Obj\gui.0D1EF882.obj'
01:00068184 ?_tryGetParent@gui_api@@SAXPBUhwnd@@AAU2@@Z 
01:000681A4 ?_setParent@gui_api@@SAXPBUhwnd@@0AAU2@@Z 
01:000681EC ?_clientToScreen@gui_api@@SAXPBUhwnd@@PAUpnt_struct@vpiDomains@@PAPAU34@@Z 
01:00068250 ?_screenToClient@gui_api@@SAXPBUhwnd@@PAUpnt_struct@vpiDomains@@PAPAU34@@Z 
--- From 'Obj\gui_api.7E4A6614.obj'
01:000682B4 ?_alloc_pnt@gui_api@@SAXHHPAPAUpnt_struct@vpiDomains@@@Z 
--- From 'Obj\gui.0D1EF882.obj'
01:000682E0 ?adjustWindowRectEx@gui_api@@SAXPAUrct_struct@vpiDomains@@IPAUboolean_struct@_builtIn@@I@Z 
--- From 'Obj\ImageList.3CB6D429.obj'
01:0006833C ?deleteObject@gui_api@@SAXPBUhandle@@@Z 
--- From 'Obj\gui_api.7E4A6614.obj'
01:0006834C ?_deleteObject@gui_api@@SAXPBUhandle@@PAPAUboolean_struct@_builtIn@@@Z  (Idle)
--- From 'Obj\controls.5CEFAE16.obj'
01:00068364 ?_selectObject@gui_api@@SAXPBUhDC@@PBUhandle@@AAU3@@Z 
--- From 'Obj\gui_api.7E4A6614.obj'
01:000683C4 ?_selectObject_region@gui_api@@SAXPBUhDC@@PBUhandle@@PAI@Z  (Idle)
--- From 'Obj\controls.5CEFAE16.obj'
01:00068430 ?selectObjectDeleteOld@gui_api@@SAXPBUhDC@@PBUhandle@@@Z 
--- From 'Obj\gui_api.7E4A6614.obj'
01:00068458 ?_createFontIndirect@gui_api@@SAXPAUlogfont_struct@gui_native@@AAUhFont@@@Z  (Idle)
01:000684A8 ?_createAcceleratorTable@gui_api@@SAXPAU?$__list_struct@Uaccel@gui_native@@@@AAUhandle@@@Z  (Idle)
01:00068538 ?fillAccelTable@gui_api@@SAXPAXPAU?$__list_struct@Uaccel@gui_native@@@@@Z 
01:00068598 ?_tryGetMessage@gui_api@@SAXPBUhwnd@@IIPAPAUmsg_struct@gui_native@@@Z  (Idle)
01:000685DC ?_allocMsg@gui_api@@SAXPAPAUmsg_struct@gui_native@@@Z 
01:00068600 ?tryGetMessageUpdate@gui_api@@SAXPAUmsg_struct@gui_native@@PBUhwnd@@II@Z 
--- From 'Obj\controls.5CEFAE16.obj'
01:00068658 ?releaseDC@gui_api@@SAXPBUhwnd@@PBUhDC@@@Z 
--- From 'Obj\gui_api.7E4A6614.obj'
01:0006866C ?_releaseDC_result@gui_api@@SAXPBUhwnd@@PBUhDC@@PAPAUboolean_struct@_builtIn@@@Z  (Idle)
01:00068690 ?_tryGetDC@gui_api@@SAXPBUhwnd@@AAUhDC@@@Z  (Idle)
--- From 'Obj\vpi.E4453945.obj'
01:000686B0 ?_getDC@gui_api@@SAXPBUhwnd@@AAUhDC@@@Z 
--- From 'Obj\gui.0D1EF882.obj'
01:00068728 ?_tryGetMenu@gui_api@@SAXPBUhwnd@@AAUhMenu@@@Z 
--- From 'Obj\gui_api.7E4A6614.obj'
01:00068778 ?_getMenu@gui_api@@SAXPBUhwnd@@AAUhMenu@@@Z  (Idle)
--- From 'Obj\gui.0D1EF882.obj'
01:000687F0 ?moveWindow@gui_api@@SAXPBUhwnd@@HHHHPAUboolean_struct@_builtIn@@@Z 
--- From 'Obj\controls.5CEFAE16.obj'
01:00068850 ?_mkW@gui_api@@SAXHAAUwParam@@@Z 
01:00068860 ?_mkL@gui_api@@SAXHAAUlParam@@@Z 
--- From 'Obj\gui_api.7E4A6614.obj'
01:00068870 ?_mkR@gui_api@@SAXHAAUlResult@@@Z 
--- From 'Obj\controls.5CEFAE16.obj'
01:00068880 ?_makeIntResource@gui_api@@SAXIPAPB_W@Z 
01:000688A4 ?isCtrlColorMsg@gui_api@@SAXI@Z 
--- From 'Obj\gui_api.7E4A6614.obj'
01:000688FC ?openClipboard@gui_api@@SAXPBUhwnd@@@Z 
01:0006893C ?closeClipboard@gui_api@@SAXXZ 
01:00068978 ?_getClipboardOwner@gui_api@@SAXAAUhwnd@@@Z  (Idle)
01:000689B8 ?_setClipboardViewer@gui_api@@SAXPBUhwnd@@AAU2@@Z  (Idle)
01:000689FC ?_getClipboardViewer@gui_api@@SAXAAUhwnd@@@Z  (Idle)
01:00068A3C ?_changeClipboardChain@gui_api@@SAXPBUhwnd@@0PAPAUboolean_struct@_builtIn@@@Z  (Idle)
01:00068A60 ?setClipboardData@gui_api@@SAXIPBUhandle@@@Z 
01:00068AA4 ?_getClipboardData@gui_api@@SAXIAAUhandle@@@Z 
01:00068AE8 ?_registerClipboardFormat@gui_api@@SAXPB_WPAI@Z 
01:00068B2C ?_countClipboardFormats@gui_api@@SAXPAH@Z  (Idle)
01:00068B6C ?_enumClipboardFormats@gui_api@@SAXIPAI@Z  (Idle)
01:00068BB0 ?_getClipboardFormatName@gui_api@@SAXIPAPB_W@Z  (Idle)
01:00068C10 ?emptyClipboard@gui_api@@SAXXZ 
01:00068C4C ?isClipboardFormatAvailable@gui_api@@SAXI@Z 
01:00068C68 ?_getPriorityClipboardFormat@gui_api@@SAXPAXHPAH@Z  (Idle)
01:00068CB0 ?_getOpenClipboardWindow@gui_api@@SAXAAUhwnd@@@Z  (Idle)
01:00068CF0 ?destroyWindow@gui_api@@SAXPBUhwnd@@@Z  (Idle)
01:00068D30 ?_getText@gui_api@@SAXPBUhwnd@@PAPB_W@Z  (Idle)
01:00068DBC ?setText@gui_api@@SAXPBUhwnd@@PB_W@Z  (Idle)
01:00068DF0 ?_getWindowRect@gui_api@@SAXPBUhwnd@@PAPAUrct_struct@vpiDomains@@@Z  (Idle)
01:00068E50 ?rectangle@gui_api@@SAXPBUhDC@@HHHH@Z  (Idle)
01:00068E9C ?drawFocusRect@gui_api@@SAXPBUhDC@@PAUrct_struct@vpiDomains@@@Z  (Idle)
--- From 'Obj\gui.0D1EF882.obj'
01:00068EE0 ?trackMouseEvent@gui_api@@SAXPAUtrackMouseEvent_struct@gui_native@@@Z 
--- From 'Obj\gui_api.7E4A6614.obj'
01:00068F20 ?trackMouseHover@gui_api@@SAXPBUhwnd@@@Z  (Idle)
--- From 'Obj\gui.0D1EF882.obj'
01:00068F58 ?trackMouseLeave@gui_api@@SAXPBUhwnd@@@Z 
--- From 'Obj\gui_api.7E4A6614.obj'
01:00068F90 ?setWindowPos@gui_api@@SAXPBUhwnd@@0HHHHI@Z 
01:00068FE0 ?updateLayeredWindow@gui_api@@SAXPBUhwnd@@PBUhDC@@PAUpnt_struct@vpiDomains@@PAUsize_struct@gui_native@@12PBUcolor@5@PAUblendFunction_struct@7@I@Z  (Idle)
01:00069038 ?_getStockObject@gui_api@@SAXHAAUhandle@@@Z  (Idle)
--- From 'Obj\controls.5CEFAE16.obj'
01:000690B4 gui_api_getParam 
--- From 'Obj\gui_api.7E4A6614.obj'
01:000690C4 ?getInteger16@gui_api@@SAXPBUintegerNative@@AAUinteger16@@1@Z  (Idle)
01:000690FC ?getInteger16@gui_api@@SAXPBUwParam@@AAUinteger16@@1@Z  (Idle)
01:00069134 ?getInteger16@gui_api@@SAXPBUlParam@@AAUinteger16@@1@Z 
01:0006916C ?getInteger16@gui_api@@SAXPBUlResult@@AAUinteger16@@1@Z  (Idle)
01:000691A4 ?getUnsigned16@gui_api@@SAXPBUintegerNative@@AAUunsigned16@@1@Z 
01:000691E0 ?getUnsigned16@gui_api@@SAXPBUwParam@@AAUunsigned16@@1@Z 
01:0006921C ?getUnsigned16@gui_api@@SAXPBUlParam@@AAUunsigned16@@1@Z 
01:00069258 ?getUnsigned16@gui_api@@SAXPBUlResult@@AAUunsigned16@@1@Z 
01:00069294 ?_createWindowEx@gui_api@@SAXIPBUatom@gui_native@@PB_WIHHHHPBUhwnd@@PBUhMenu@@PBUhModule@@PAXAAU4@@Z  (Idle)
01:00069354 ?_createFontIndirect@gui_api@@SAXPBUfont@vpiDomains@@AAUhFont@@@Z  (Idle)
--- From 'Obj\controls.5CEFAE16.obj'
01:000693A4 ?_mkW@gui_api@@SAXIAAUwParam@@@Z 
--- From 'Obj\gui_api.7E4A6614.obj'
01:000693B4 ?_mkL@gui_api@@SAXIAAUlParam@@@Z 
01:000693C4 ?_mkR@gui_api@@SAXIAAUlResult@@@Z 
--- From 'Obj\Command.0BA5442E.obj'
01:000693E0 ?menuLabel@command@@SGPB_WQAV1@@@Z 
01:000693F8 ?menuLabel@command@@SGXQAV1@@PB_W@Z 
01:00069440 ?ribbonLabel@command@@SGPB_WQAV1@@@Z 
01:00069458 ?ribbonLabel@command@@SGXQAV1@@PB_W@Z 
01:000694A0 ?icon@command@@SGPAUoptional_struct@core@@QAV0@@QAV1@@@Z 
01:000694B8 ?icon@command@@SGXQAV1@@PAUoptional_struct@core@@QAV0@@@Z 
01:0006953C ?enabled@command@@SGPAUboolean_struct@_builtIn@@QAV1@@@Z 
01:00069554 ?enabled@command@@SGXQAV1@@PAUboolean_struct@_builtIn@@@Z 
01:0006958C ?visible@command@@SGPAUboolean_struct@_builtIn@@QAV1@@@Z 
01:000695A4 ?visible@command@@SGXQAV1@@PAUboolean_struct@_builtIn@@@Z 
01:000695DC ?new@command@@SAXQAV1@@QAVwindow@@@PB_W@Z  (Idle)
01:00069640 ?_formatAcceleratorKey@command@@SAXPAUacceleratorKey_struct@vpiDomains@@PAPB_W@Z  (Idle)
01:000696F0 ?_formatKeyModifier@command@@SAXPBUkeyModifier@vpiDomains@@PAPB_W@Z 
01:000697B0 ?_tryFormatKeyModifier@command@@SAXPBUkeyModifier@vpiDomains@@PAPB_W@Z 
01:000697F4 ?_formatKeyCode@command@@SAXPBUkeyCode@vpiDomains@@PAPB_W@Z 
01:00069B10 ?_new@command@@SAXQAVwindow@@@PB_WPAPAV1@@@Z  (Idle)
01:00069B3C ?anonymous$o0$1$$command@1@SAXQAV1@@@Z 
01:00069B50 ?anonymous$o0$2$$command@1@SAXQAV1@@@Z 
01:00069B64 ?_object_facts_initializer@command@@SGXQAV1@@@Z 
01:00069BF8 ?id@command@@SGPB_WQAV1@@@Z 
01:00069C04 ?menuTag@command@@SGPBU0@QAV1@@@Z 
01:00069C10 ?window@command@@SGQAV0@@QAV1@@@Z 
01:00069C1C ?mnemonics@command@@SGXQAV1@@PAU?$__list_struct@PAUtuple_struct@core@@PBUpositive@@PB_W@@@Z 
01:00069C2C ?mnemonics@command@@SGPAU?$__list_struct@PAUtuple_struct@core@@PBUpositive@@PB_W@@QAV1@@@Z 
01:00069C38 ?tipTitle@command@@SGXQAV1@@PAUtipText_struct@toolTip@@@Z 
01:00069C48 ?tipTitle@command@@SGPAUtipText_struct@toolTip@@QAV1@@@Z 
01:00069C54 ?tipBody@command@@SGXQAV1@@PAUtipText_struct@tooltip@@@Z 
01:00069C64 ?tipBody@command@@SGPAUtipText_struct@tooltip@@QAV1@@@Z 
01:00069C70 ?acceleratorKey@command@@SGXQAV1@@PAUacceleratorKey_struct@vpiDomains@@@Z 
01:00069C80 ?acceleratorKey@command@@SGPAUacceleratorKey_struct@vpiDomains@@QAV1@@@Z 
01:00069C8C ?category@command@@SGXQAV1@@PAU?$__list_struct@Ustring@@@@@Z 
01:00069C9C ?category@command@@SGPAU?$__list_struct@Ustring@@@@QAV1@@@Z 
01:00069CA8 ?run@command@@SGXQAV1@@X@Z 
01:00069CB8 ?run@command@@SGXQAV1@@@Z 
01:00069CC4 ?queryState@command@@SGXQAV1@@X@Z 
01:00069CD4 ?queryState@command@@SGXQAV1@@@Z 
01:00069CE0 ?stateChangeEvent@command@@SGXQAV1@@QAVevent0@@@QAV1@@@Z 
01:00069CF0 ?stateChangeEvent@command@@SGQAVevent0@@@QAV1@@QAV1@@@Z 
01:00069D04 command?_initObject@@@QAGXQAV1@H@Z 
01:00069D28 ?@create_object@command@@SGQAV1@@XZ 
01:00069D44 command?_InternalFinalizer@@@QAGXQAV1@@Z 
--- From 'Obj\gdiplus.80149785.obj'
01:00069D50 ?newNative@textureBrush@@SAXQAV1@@PBUgpTexture@gdiplus_native@@@Z  (Idle)
01:00069D74 ?create@textureBrush@@SAXQAV1@@QAVimage@@@@Z  (Idle)
01:00069D88 ?create@textureBrush@@SAXQAV1@@QAVimage@@@PBUgpWrapMode@gdiplus_native@@@Z 
01:00069DD0 ?createF@textureBrush@@SAXQAV1@@QAVimage@@@PBUgpWrapMode@gdiplus_native@@PAUrectF_struct@gdiplus@@@Z  (Idle)
01:00069E58 ?createF@textureBrush@@SAXQAV1@@QAVimage@@@PBUgpWrapMode@gdiplus_native@@PANPANPANPAN@Z  (Idle)
01:00069F00 ?createI@textureBrush@@SAXQAV1@@QAVimage@@@PBUgpWrapMode@gdiplus_native@@HHHH@Z  (Idle)
01:00069F38 ?createI@textureBrush@@SAXQAV1@@QAVimage@@@PBUgpWrapMode@gdiplus_native@@PAUrectI_struct@gdiplus@@@Z 
01:00069FA4 ?createIAF@textureBrush@@SAXQAV1@@QAVimage@@@PAUrectF_struct@gdiplus@@@Z  (Idle)
01:0006A02C ?createIAF@textureBrush@@SAXQAV1@@QAVimage@@@PAUrectF_struct@gdiplus@@QAVimageAttributes@@@@Z  (Idle)
01:0006A0C0 ?createIAI@textureBrush@@SAXQAV1@@QAVimage@@@PAUrectI_struct@gdiplus@@@Z  (Idle)
01:0006A12C ?createIAI@textureBrush@@SAXQAV1@@QAVimage@@@PAUrectI_struct@gdiplus@@QAVimageAttributes@@@@Z  (Idle)
01:0006A1A4 ?transform@textureBrush@@SGQAVmatrix@@@QAV1@@@Z 
01:0006A200 ?transform@textureBrush@@SGXQAV1@@QAVmatrix@@@@Z 
01:0006A248 ?resetTransform@textureBrush@@SAXQAV1@@@Z 
01:0006A284 ?multiplyTransform@textureBrush@@SAXQAV1@@QAVmatrix@@@@Z 
01:0006A298 ?multiplyTransform@textureBrush@@SAXQAV1@@QAVmatrix@@@PBUgpMatrixOrder@gdiplus_native@@@Z 
01:0006A2E0 ?translateTransform@textureBrush@@SAXQAV1@@PANPAN@Z 
01:0006A2F4 ?translateTransform@textureBrush@@SAXQAV1@@PANPANPBUgpMatrixOrder@gdiplus_native@@@Z 
01:0006A378 ?scaleTransform@textureBrush@@SAXQAV1@@PANPAN@Z 
01:0006A38C ?scaleTransform@textureBrush@@SAXQAV1@@PANPANPBUgpMatrixOrder@gdiplus_native@@@Z 
01:0006A410 ?rotateTransform@textureBrush@@SAXQAV1@@PAN@Z 
01:0006A424 ?rotateTransform@textureBrush@@SAXQAV1@@PANPBUgpMatrixOrder@gdiplus_native@@@Z 
01:0006A484 ?wrapMode@textureBrush@@SGPBUgpWrapMode@gdiplus_native@@QAV1@@@Z 
01:0006A4C8 ?wrapMode@textureBrush@@SGXQAV1@@PBUgpWrapMode@gdiplus_native@@@Z 
01:0006A508 ?image@textureBrush@@SGQAV0@@QAV1@@@Z 
01:0006A55C ?_newNative@textureBrush@@SAXPBUgpTexture@gdiplus_native@@PAPAV1@@@Z  (Idle)
01:0006A584 ?_create@textureBrush@@SAXQAVimage@@@PAPAV1@@@Z  (Idle)
01:0006A5AC ?_create@textureBrush@@SAXQAVimage@@@PBUgpWrapMode@gdiplus_native@@PAPAV1@@@Z  (Idle)
01:0006A5D8 ?_createF@textureBrush@@SAXQAVimage@@@PBUgpWrapMode@gdiplus_native@@PAUrectF_struct@gdiplus@@PAPAV1@@@Z  (Idle)
01:0006A608 ?_createF@textureBrush@@SAXQAVimage@@@PBUgpWrapMode@gdiplus_native@@PANPANPANPANPAPAV1@@@Z  (Idle)
01:0006A640 ?_createI@textureBrush@@SAXQAVimage@@@PBUgpWrapMode@gdiplus_native@@HHHHPAPAV1@@@Z  (Idle)
01:0006A678 ?_createI@textureBrush@@SAXQAVimage@@@PBUgpWrapMode@gdiplus_native@@PAUrectI_struct@gdiplus@@PAPAV1@@@Z  (Idle)
01:0006A6A8 ?_createIAF@textureBrush@@SAXQAVimage@@@PAUrectF_struct@gdiplus@@PAPAV1@@@Z  (Idle)
01:0006A6D4 ?_createIAF@textureBrush@@SAXQAVimage@@@PAUrectF_struct@gdiplus@@QAVimageAttributes@@@PAPAV1@@@Z  (Idle)
01:0006A704 ?_createIAI@textureBrush@@SAXQAVimage@@@PAUrectI_struct@gdiplus@@PAPAV1@@@Z  (Idle)
01:0006A730 ?_createIAI@textureBrush@@SAXQAVimage@@@PAUrectI_struct@gdiplus@@QAVimageAttributes@@@PAPAV1@@@Z  (Idle)
01:0006A760 ?nativeTextureBrush@textureBrush@@SGPBUgpTexture@gdiplus_native@@QAV1@@@Z 
01:0006A76C ?newNative@stringFormat@@SAXQAV1@@PBUgpStringFormat@gdiplus_native@@@Z  (Idle)
01:0006A780 ?create@stringFormat@@SAXQAV1@@HPBUlangid@gui_native@@@Z  (Idle)
01:0006A7BC ?create@stringFormat@@SAXQAV1@@@Z  (Idle)
01:0006A7F4 ?finalize@stringFormat@@SGXQAV1@@@Z 
01:0006A854 ?_clone@stringFormat@@SAXQAV1@@PAPAV1@@@Z 
01:0006A898 ?formatFlags@stringFormat@@SGHQAV1@@@Z 
01:0006A8DC ?formatFlags@stringFormat@@SGXQAV1@@H@Z 
01:0006A91C ?alignment@stringFormat@@SGPBUstringAlignment@gdiplus_native@@QAV1@@@Z 
01:0006A960 ?alignment@stringFormat@@SGXQAV1@@PBUstringAlignment@gdiplus_native@@@Z 
01:0006A9A0 ?lineAlignment@stringFormat@@SGPBUstringAlignment@gdiplus_native@@QAV1@@@Z 
01:0006A9E4 ?lineAlignment@stringFormat@@SGXQAV1@@PBUstringAlignment@gdiplus_native@@@Z 
01:0006AA24 ?hotkeyPrefix@stringFormat@@SGHQAV1@@@Z 
01:0006AA68 ?hotkeyPrefix@stringFormat@@SGXQAV1@@H@Z 
01:0006AAA8 ?tabstopCount@stringFormat@@SGPBUpositive@@QAV1@@@Z 
01:0006AAF8 ?setTabStops@stringFormat@@SAXQAV1@@PANPAU?$__list_struct@PAN@@@Z 
01:0006AB70 ?getTabStops@stringFormat@@SAXQAV1@@PAPANPAPAU?$__list_struct@PAPAN@@@Z 
01:0006AC58 ?setDigitSubstitution@stringFormat@@SAXQAV1@@PBUlangid@gui_native@@PBUstringDigitSubstitute@gdiplus_native@@@Z 
01:0006AC94 ?getDigitSubstitution@stringFormat@@SAXQAV1@@AAUlangid@gui_native@@AAUstringDigitSubstitute@gdiplus_native@@@Z 
01:0006ACD0 ?trimming@stringFormat@@SGPBUstringTrimming@gdiplus_native@@QAV1@@@Z 
01:0006AD14 ?trimming@stringFormat@@SGXQAV1@@PBUstringTrimming@gdiplus_native@@@Z 
01:0006AD54 ?measurableCharacterRangeCount@stringFormat@@SGPBUpositive@@QAV1@@@Z 
01:0006ADA4 ?anonymous$o0$1$measurablecharacterrange/1np$stringFormat@1@SAXPAXPAUcharacterRange_struct@gdiplus@@@Z 
01:0006ADE0 ?measurableCharacterRange@stringFormat@@SGXQAV1@@PAU?$__list_struct@UcharacterRange@gdiplus@@@@@Z 
01:0006AE44 ?genericDefault@stringFormat@@SGQAV1@@QAV1@@@Z 
01:0006AE90 ?genericTypographi@stringFormat@@SGQAV1@@QAV1@@@Z 
01:0006AEDC ?_newNative@stringFormat@@SAXPBUgpStringFormat@gdiplus_native@@PAPAV1@@@Z 
01:0006AF04 ?_create@stringFormat@@SAXPAPAV1@@@Z  (Idle)
01:0006AF2C ?_create@stringFormat@@SAXHPBUlangid@gui_native@@PAPAV1@@@Z  (Idle)
01:0006AF58 ?nativeStringFormat@stringFormat@@SGPBUgpStringFormat@gdiplus_native@@QAV1@@@Z 
01:0006AF64 ?newNative@solidBrush@@SAXQAV1@@PBUgpSolidFill@gdiplus_native@@@Z  (Idle)
01:0006AF88 ?create@solidBrush@@SAXQAV1@@QAVcolor@@@@Z  (Idle)
01:0006AFB4 ?_newNative@solidBrush@@SAXPBUgpSolidFill@gdiplus_native@@PAPAV1@@@Z  (Idle)
01:0006AFDC ?_create@solidBrush@@SAXQAVcolor@@@PAPAV1@@@Z  (Idle)
01:0006B004 ?nativeSolidBrush@solidBrush@@SGPBUgpSolidFill@gdiplus_native@@QAV1@@@Z 
01:0006B010 ?newNative@region@@SAXQAV1@@PBUgpRegion@gdiplus_native@@@Z  (Idle)
01:0006B024 ?create@region@@SAXQAV1@@@Z  (Idle)
01:0006B058 ?createRectF@region@@SAXQAV1@@PAUrectF_struct@gdiplus@@@Z  (Idle)
01:0006B090 ?createRectI@region@@SAXQAV1@@PAUrectI_struct@gdiplus@@@Z  (Idle)
01:0006B0CC ?createPath@region@@SAXQAV1@@QAVgraphicsPath@@@@Z  (Idle)
01:0006B114 ?createRegionData@region@@SAXQAV1@@PAXPBUpositive@@@Z  (Idle)
01:0006B154 ?createHRGN@region@@SAXQAV1@@PBUhRgn@gui_native@@@Z  (Idle)
01:0006B190 ?finalize@region@@SGXQAV1@@@Z 
01:0006B1F0 ?_fromHrgn@region@@SAXQAV1@@PBUhRgn@gui_native@@PAPAV1@@@Z 
01:0006B208 ?_clone@region@@SAXQAV1@@PAPAV1@@@Z 
01:0006B24C ?makeInfinite@region@@SAXQAV1@@@Z 
01:0006B288 ?makeEmpty@region@@SAXQAV1@@@Z 
01:0006B2C4 ?intersectRectF@region@@SAXQAV1@@PAUrectF_struct@gdiplus@@@Z 
01:0006B308 ?intersectRectI@region@@SAXQAV1@@PAUrectI_struct@gdiplus@@@Z 
01:0006B34C ?intersectPath@region@@SAXQAV1@@QAVgraphicsPath@@@@Z 
01:0006B39C ?intersectRegion@region@@SAXQAV1@@0@Z 
01:0006B3EC ?unionRectF@region@@SAXQAV1@@PAUrectF_struct@gdiplus@@@Z 
01:0006B430 ?unionRectI@region@@SAXQAV1@@PAUrectI_struct@gdiplus@@@Z 
01:0006B474 ?unionPath@region@@SAXQAV1@@QAVgraphicsPath@@@@Z 
01:0006B4C4 ?unionRegion@region@@SAXQAV1@@0@Z 
01:0006B514 ?xorRectF@region@@SAXQAV1@@PAUrectF_struct@gdiplus@@@Z 
01:0006B558 ?xorRectI@region@@SAXQAV1@@PAUrectI_struct@gdiplus@@@Z 
01:0006B59C ?xorPath@region@@SAXQAV1@@QAVgraphicsPath@@@@Z 
01:0006B5EC ?xorRegion@region@@SAXQAV1@@0@Z 
01:0006B63C ?excludeRectF@region@@SAXQAV1@@PAUrectF_struct@gdiplus@@@Z 
01:0006B680 ?excludeRectI@region@@SAXQAV1@@PAUrectI_struct@gdiplus@@@Z 
01:0006B6C4 ?excludePath@region@@SAXQAV1@@QAVgraphicsPath@@@@Z 
01:0006B714 ?excludeRegion@region@@SAXQAV1@@0@Z 
01:0006B764 ?complementRectF@region@@SAXQAV1@@PAUrectF_struct@gdiplus@@@Z 
01:0006B7A8 ?complementRectI@region@@SAXQAV1@@PAUrectI_struct@gdiplus@@@Z 
01:0006B7EC ?complementPath@region@@SAXQAV1@@QAVgraphicsPath@@@@Z 
01:0006B83C ?complementRegion@region@@SAXQAV1@@0@Z 
01:0006B88C ?translateF@region@@SAXQAV1@@PANPAN@Z 
01:0006B90C ?translateI@region@@SAXQAV1@@HH@Z 
01:0006B948 ?transform@region@@SAXQAV1@@QAVmatrix@@@@Z 
01:0006B994 ?_getBoundsF@region@@SAXQAV1@@QAVgraphics@@@PAPAUrectF_struct@gdiplus@@@Z 
01:0006B9FC ?_getBoundsI@region@@SAXQAV1@@QAVgraphics@@@PAPAUrectI_struct@gdiplus@@@Z 
01:0006BA64 ?_getHRGN@region@@SAXQAV1@@QAVgraphics@@@AAUhRgn@gui_native@@@Z 
01:0006BAAC ?isEmpty@region@@SAXQAV1@@QAVgraphics@@@@Z 
01:0006BB00 ?isInfinite@region@@SAXQAV1@@QAVgraphics@@@@Z 
01:0006BB54 ?equals@region@@SAXQAV1@@0QAVgraphics@@@@Z 
01:0006BBBC ?_getDataSize@region@@SAXQAV1@@AAUbyteCount@@@Z 
01:0006BC0C ?_getData@region@@SAXQAV1@@PAPAXAAUbyteCount@@@Z 
01:0006BC8C ?isVisibleF@region@@SAXQAV1@@PAUpointF_struct@gdiplus@@@Z 
01:0006BCA0 ?isVisibleF@region@@SAXQAV1@@PANPAN@Z 
01:0006BD0C ?isVisiblePointF@region@@SAXQAV1@@PAUpointF_struct@gdiplus@@PAUoptional_struct@core@@QAVgraphics@@@@Z 
01:0006BD94 ?isVisibleRectF@region@@SAXQAV1@@PAUrectF_struct@gdiplus@@PAUoptional_struct@core@@QAVgraphics@@@@Z 
01:0006BE38 ?isVisibleI@region@@SAXQAV1@@PAUpointI_struct@gdiplus@@@Z 
01:0006BE4C ?isVisibleI@region@@SAXQAV1@@HH@Z 
01:0006BE80 ?isVisiblePointI@region@@SAXQAV1@@PAUpointI_struct@gdiplus@@PAUoptional_struct@core@@QAVgraphics@@@@Z 
01:0006BEFC ?isVisibleRectI@region@@SAXQAV1@@PAUrectI_struct@gdiplus@@PAUoptional_struct@core@@QAVgraphics@@@@Z 
01:0006BF88 ?_getRegionScanCount@region@@SAXQAV1@@QAVmatrix@@@AAUpositive@@@Z 
01:0006BFE4 ?_getRegionScanF@region@@SAXQAV1@@QAVmatrix@@@PAPAU?$__list_struct@UrectF@@@@@Z 
01:0006C0AC ?_getRegionScanI@region@@SAXQAV1@@QAVmatrix@@@PAPAU?$__list_struct@UrectI@@@@@Z 
01:0006C174 ?_newNative@region@@SAXPBUgpRegion@gdiplus_native@@PAPAV1@@@Z 
01:0006C19C ?_create@region@@SAXPAPAV1@@@Z  (Idle)
01:0006C1C4 ?_createRectF@region@@SAXPAUrectF_struct@gdiplus@@PAPAV1@@@Z  (Idle)
01:0006C1EC ?_createRectI@region@@SAXPAUrectI_struct@gdiplus@@PAPAV1@@@Z  (Idle)
01:0006C214 ?_createPath@region@@SAXQAVgraphicsPath@@@PAPAV1@@@Z  (Idle)
01:0006C23C ?_createRegionData@region@@SAXPAXPBUpositive@@PAPAV1@@@Z  (Idle)
01:0006C268 ?_createHRGN@region@@SAXPBUhRgn@gui_native@@PAPAV1@@@Z 
01:0006C290 ?nativeRegion@region@@SGXQAV1@@PBUgpRegion@gdiplus_native@@@Z 
01:0006C2A0 ?nativeRegion@region@@SGPBUgpRegion@gdiplus_native@@QAV1@@@Z 
01:0006C2AC ?create@privateFontCollection@@SAXQAV1@@@Z  (Idle)
01:0006C2E4 ?_create@privateFontCollection@@SAXPAPAV1@@@Z  (Idle)
01:0006C308 ?create@pen@@SAXQAV1@@@Z  (Idle)
01:0006C340 ?newNative@pen@@SAXQAV1@@PBUgpPen@gdiplus_native@@@Z  (Idle)
01:0006C354 ?createBrush@pen@@SAXQAV1@@PANQAVbrush@@@@Z  (Idle)
01:0006C3C0 ?createColor@pen@@SAXQAV1@@QAVcolor@@@PANPBUgpUnit@gdiplus_native@@@Z 
01:0006C430 ?finalize@pen@@SGXQAV1@@@Z 
01:0006C490 ?_clone@pen@@SAXQAV1@@PAPAV1@@@Z 
01:0006C4D4 ?alignment@pen@@SGPBUgpPenAlignment@gdiplus_native@@QAV1@@@Z 
01:0006C518 ?alignment@pen@@SGXQAV1@@PBUgpPenAlignment@gdiplus_native@@@Z 
01:0006C558 ?brush@pen@@SGQAV0@@QAV1@@@Z 
01:0006C6EC ?brush@pen@@SGXQAV1@@QAV0@@@Z 
01:0006C734 ?color@pen@@SGQAV0@@QAV1@@@Z 
01:0006C7CC ?color@pen@@SGXQAV1@@QAV0@@@Z 
01:0006C814 ?compoundArray@pen@@SGPAU?$__list_struct@PAN@@QAV1@@@Z 
01:0006C8CC ?compoundArray@pen@@SGXQAV1@@PAU?$__list_struct@PAN@@@Z 
01:0006C924 ?customEndCap@pen@@SGQAVcustomLineCap@@@QAV1@@@Z 
01:0006C978 ?customEndCap@pen@@SGXQAV1@@QAVcustomLineCap@@@@Z 
01:0006C9C0 ?customStartCap@pen@@SGQAVcustomLineCap@@@QAV1@@@Z 
01:0006CA14 ?customStartCap@pen@@SGXQAV1@@QAVcustomLineCap@@@@Z 
01:0006CA5C ?dashCap@pen@@SGPBUgpDashCap@gdiplus_native@@QAV1@@@Z 
01:0006CAA0 ?dashCap@pen@@SGXQAV1@@PBUgpDashCap@gdiplus_native@@@Z 
01:0006CAE0 ?_dashOffset@pen@@SAXQAV1@@PAPAN@Z 
01:0006CB50 ?dashOffset@pen@@SAXQAV1@@PAN@Z 
01:0006CBB4 ?dashPattern@pen@@SGPAU?$__list_struct@PAN@@QAV1@@@Z 
01:0006CC6C ?dashPattern@pen@@SGXQAV1@@PAU?$__list_struct@PAN@@@Z 
01:0006CCC4 ?dashStyle@pen@@SGPBUgpDashStyle@gdiplus_native@@QAV1@@@Z 
01:0006CD08 ?dashStyle@pen@@SGXQAV1@@PBUgpDashStyle@gdiplus_native@@@Z 
01:0006CD48 ?endCap@pen@@SGPBUgpLineCap@gdiplus_native@@QAV1@@@Z 
01:0006CD8C ?endCap@pen@@SGXQAV1@@PBUgpLineCap@gdiplus_native@@@Z 
01:0006CDCC ?startCap@pen@@SGPBUgpLineCap@gdiplus_native@@QAV1@@@Z 
01:0006CE10 ?startCap@pen@@SGXQAV1@@PBUgpLineCap@gdiplus_native@@@Z 
01:0006CE50 ?lineJoin@pen@@SGPBUgpLineJoin@gdiplus_native@@QAV1@@@Z 
01:0006CE94 ?lineJoin@pen@@SGXQAV1@@PBUgpLineJoin@gdiplus_native@@@Z 
01:0006CED4 ?_miterLimit@pen@@SAXQAV1@@PAPAN@Z 
01:0006CF44 ?miterLimit@pen@@SAXQAV1@@PAN@Z 
01:0006CFA8 ?penType@pen@@SGPBUgpPenType@gdiplus_native@@QAV1@@@Z 
01:0006CFEC ?_width@pen@@SAXQAV1@@PAPAN@Z 
01:0006D05C ?width@pen@@SAXQAV1@@PAN@Z 
01:0006D0C0 ?transform@pen@@SGQAVmatrix@@@QAV1@@@Z 
01:0006D11C ?transform@pen@@SGXQAV1@@QAVmatrix@@@@Z 
01:0006D164 ?setLineCap@pen@@SAXQAV1@@PBUgpLineCap@gdiplus_native@@1PBUgpDashCap@4@@Z 
01:0006D1A4 ?multiplyTransform@pen@@SAXQAV1@@QAVmatrix@@@PBUgpMatrixOrder@gdiplus_native@@@Z 
01:0006D1EC ?resetTransform@pen@@SAXQAV1@@@Z 
01:0006D228 ?rotateTransform@pen@@SAXQAV1@@PANPBUgpMatrixOrder@gdiplus_native@@@Z 
01:0006D288 ?scaleTransform@pen@@SAXQAV1@@PANPANPBUgpMatrixOrder@gdiplus_native@@@Z 
01:0006D30C ?_newNative@pen@@SAXPBUgpPen@gdiplus_native@@PAPAV1@@@Z 
01:0006D334 ?_create@pen@@SAXPAPAV1@@@Z  (Idle)
01:0006D35C ?_createBrush@pen@@SAXPANQAVbrush@@@PAPAV1@@@Z  (Idle)
01:0006D388 ?_createColor@pen@@SAXQAVcolor@@@PANPBUgpUnit@gdiplus_native@@PAPAV1@@@Z  (Idle)
01:0006D3B8 ?nativePen@pen@@SGPBUgpPen@gdiplus_native@@QAV1@@@Z 
01:0006D3C4 ?newNative@pathGradientBrush@@SAXQAV1@@PBUgpPathGradient@gdiplus_native@@@Z  (Idle)
01:0006D3E8 ?createPathGradientF@pathGradientBrush@@SAXQAV1@@PAU?$__list_struct@UpointF@@@@@Z  (Idle)
01:0006D3FC ?createPathGradientF@pathGradientBrush@@SAXQAV1@@PAU?$__list_struct@UpointF@@@@PBUgpWrapMode@gdiplus_native@@@Z 
01:0006D454 ?createPathGradientI@pathGradientBrush@@SAXQAV1@@PAU?$__list_struct@UpointI@@@@@Z  (Idle)
01:0006D468 ?createPathGradientI@pathGradientBrush@@SAXQAV1@@PAU?$__list_struct@UpointI@@@@PBUgpWrapMode@gdiplus_native@@@Z 
01:0006D4C0 ?createPathGradientFromPath@pathGradientBrush@@SAXQAV1@@QAVgraphicsPath@@@@Z  (Idle)
01:0006D508 ?centerColor@pathGradientBrush@@SGQAVcolor@@@QAV1@@@Z 
01:0006D55C ?centerColor@pathGradientBrush@@SGXQAV1@@QAVcolor@@@@Z 
01:0006D5A4 ?pointCount@pathGradientBrush@@SGPBUpositive@@QAV1@@@Z 
01:0006D5F4 ?surroundColorCount@pathGradientBrush@@SGPBUpositive@@QAV1@@@Z 
01:0006D644 $surroundColors$pathGradientBrush_implement$predicate$(i)$c$ 
01:0006D6C4 $surroundColors$pathGradientBrush_implement$predicate$(i,i)$c$ 
01:0006D73C ?graphicsPath@pathGradientBrush@@SGQAV0@@QAV1@@@Z 
01:0006D790 ?graphicsPath@pathGradientBrush@@SGXQAV1@@QAV0@@@Z 
01:0006D7D8 ?centerPointF@pathGradientBrush@@SGPAUpointF_struct@gdiplus@@QAV1@@@Z 
01:0006D830 ?centerPointF@pathGradientBrush@@SGXQAV1@@PAUpointF_struct@gdiplus@@@Z 
01:0006D870 ?centerPointI@pathGradientBrush@@SGPAUpointI_struct@gdiplus@@QAV1@@@Z 
01:0006D8C8 ?centerPointI@pathGradientBrush@@SGXQAV1@@PAUpointI_struct@gdiplus@@@Z 
01:0006D908 ?rectF@pathGradientBrush@@SGPAUrectF_struct@gdiplus@@QAV1@@@Z 
01:0006D960 ?rectI@pathGradientBrush@@SGPAUrectI_struct@gdiplus@@QAV1@@@Z 
01:0006D9B8 ?useGammaCorrection@pathGradientBrush@@SGPAUboolean_struct@_builtIn@@QAV1@@@Z 
01:0006DA0C ?useGammaCorrection@pathGradientBrush@@SGXQAV1@@PAUboolean_struct@_builtIn@@@Z 
01:0006DA60 ?blendCount@pathGradientBrush@@SGPBUpositive@@QAV1@@@Z 
01:0006DAB0 ?setBlend@pathGradientBrush@@SAXQAV1@@PAU?$__list_struct@PAN@@1@Z 
01:0006DB54 ?getBlend@pathGradientBrush@@SAXQAV1@@PAPAU?$__list_struct@PAPAN@@1@Z 
01:0006DBFC ?interpolationColorCount@pathGradientBrush@@SGPBUpositive@@QAV1@@@Z 
01:0006DC4C $setInterpolationColors$pathGradientBrush_implement$predicate$(i,i,i)$c$_m39 
01:0006DD28 $getInterpolationColors$pathGradientBrush_implement$predicate$(i,o,o)$c$_m40 
01:0006DDD0 ?setBlendBellShape@pathGradientBrush@@SAXQAV1@@PAN@Z 
01:0006DDE4 ?setBlendBellShape@pathGradientBrush@@SAXQAV1@@PANPAN@Z 
01:0006DE64 ?transform@pathGradientBrush@@SGQAVmatrix@@@QAV1@@@Z 
01:0006DEC0 ?transform@pathGradientBrush@@SGXQAV1@@QAVmatrix@@@@Z 
01:0006DF08 ?resetTransform@pathGradientBrush@@SAXQAV1@@@Z 
01:0006DF44 ?multiplyTransform@pathGradientBrush@@SAXQAV1@@QAVmatrix@@@@Z 
01:0006DF58 ?multiplyTransform@pathGradientBrush@@SAXQAV1@@QAVmatrix@@@PBUgpMatrixOrder@gdiplus_native@@@Z 
01:0006DFA0 ?translateTransform@pathGradientBrush@@SAXQAV1@@PANPAN@Z 
01:0006DFB4 ?translateTransform@pathGradientBrush@@SAXQAV1@@PANPANPBUgpMatrixOrder@gdiplus_native@@@Z 
01:0006E038 ?scaleTransform@pathGradientBrush@@SAXQAV1@@PANPAN@Z 
01:0006E04C ?scaleTransform@pathGradientBrush@@SAXQAV1@@PANPANPBUgpMatrixOrder@gdiplus_native@@@Z 
01:0006E0D0 ?rotateTransform@pathGradientBrush@@SAXQAV1@@PAN@Z 
01:0006E0E4 ?rotateTransform@pathGradientBrush@@SAXQAV1@@PANPBUgpMatrixOrder@gdiplus_native@@@Z 
01:0006E144 ?wrapMode@pathGradientBrush@@SGPBUgpWrapMode@gdiplus_native@@QAV1@@@Z 
01:0006E188 ?wrapMode@pathGradientBrush@@SGXQAV1@@PBUgpWrapMode@gdiplus_native@@@Z 
01:0006E1C8 ?getFocusScale@pathGradientBrush@@SAXQAV1@@PAPAN1@Z 
01:0006E274 ?setFocusScale@pathGradientBrush@@SAXQAV1@@PANPAN@Z 
01:0006E2F4 ?_newNative@pathGradientBrush@@SAXPBUgpPathGradient@gdiplus_native@@PAPAV1@@@Z 
01:0006E31C ?_createPathGradientF@pathGradientBrush@@SAXPAU?$__list_struct@UpointF@@@@PAPAV1@@@Z  (Idle)
01:0006E344 ?_createPathGradientF@pathGradientBrush@@SAXPAU?$__list_struct@UpointF@@@@PBUgpWrapMode@gdiplus_native@@PAPAV1@@@Z  (Idle)
01:0006E370 ?_createPathGradientI@pathGradientBrush@@SAXPAU?$__list_struct@UpointI@@@@PAPAV1@@@Z  (Idle)
01:0006E398 ?_createPathGradientI@pathGradientBrush@@SAXPAU?$__list_struct@UpointI@@@@PBUgpWrapMode@gdiplus_native@@PAPAV1@@@Z  (Idle)
01:0006E3C4 ?_createPathGradientFromPath@pathGradientBrush@@SAXQAVgraphicsPath@@@PAPAV1@@@Z  (Idle)
01:0006E3EC ?nativePathGradientBrush@pathGradientBrush@@SGPBUgpPathGradient@gdiplus_native@@QAV1@@@Z 
01:0006E3F8 ?newNative@metafile@@SAXQAV1@@PBUgpMetafile@gdiplus_native@@@Z  (Idle)
01:0006E410 ?createFromEnhMetafile@metafile@@SAXQAV1@@PBUhEnhMetafile@@PAUboolean_struct@_builtIn@@@Z  (Idle)
01:0006E45C ?create@metafile@@SAXQAV1@@PB_W@Z  (Idle)
01:0006E498 ?createFromWmf@metafile@@SAXQAV1@@PBUhMetafile@@PBUwmfPlaceableFileHeader@gdiplus_native@@PAUboolean_struct@_builtIn@@@Z  (Idle)
01:0006E4EC ?createFromIStream@metafile@@SAXQAV1@@QAViStream_native@@@@Z  (Idle)
01:0006E528 ?recordMetafile@metafile@@SAXQAV1@@PBUhDC@@PBUemfType@gdiplus_native@@PB_W@Z  (Idle)
01:0006E56C ?recordMetafile@metafile@@SAXQAV1@@PBUhDC@@PAUrectF_struct@gdiplus@@PBUmetafileFrameUnit@gdiplus_native@@PBUemfType@7@PB_W@Z  (Idle)
01:0006E5B4 ?recordMetafileI@metafile@@SAXQAV1@@PBUhDC@@PAUrectI_struct@gdiplus@@PBUmetafileFrameUnit@gdiplus_native@@PBUemfType@7@PB_W@Z  (Idle)
01:0006E5FC ?recordMetafileFilename@metafile@@SAXQAV1@@PB_WPBUhDC@@PBUemfType@gdiplus_native@@1@Z  (Idle)
01:0006E644 ?recordMetafileFilename@metafile@@SAXQAV1@@PB_WPBUhDC@@PAUrectF_struct@gdiplus@@PBUmetafileFrameUnit@gdiplus_native@@PBUemfType@7@1@Z  (Idle)
01:0006E690 ?recordMetafileFilenameI@metafile@@SAXQAV1@@PB_WPBUhDC@@PAUrectI_struct@gdiplus@@PBUmetafileFrameUnit@gdiplus_native@@PBUemfType@7@1@Z  (Idle)
01:0006E6DC ?recordMetafileStream@metafile@@SAXQAV1@@QAViStream_native@@@PBUhDC@@PBUemfType@gdiplus_native@@PB_W@Z  (Idle)
01:0006E724 ?recordMetafileStream@metafile@@SAXQAV1@@QAViStream_native@@@PBUhDC@@PAUrectF_struct@gdiplus@@PBUmetafileFrameUnit@gdiplus_native@@PBUemfType@8@PB_W@Z  (Idle)
01:0006E770 ?recordMetafileStreamI@metafile@@SAXQAV1@@QAViStream_native@@@PBUhDC@@PAUrectI_struct@gdiplus@@PBUmetafileFrameUnit@gdiplus_native@@PBUemfType@8@PB_W@Z  (Idle)
01:0006E7BC ?_getMetafileHeaderFromWmf@metafile@@SAXPBUhMetafile@@PBUwmfPlaceableFileHeader@gdiplus_native@@PAPAUmetafileHeader_struct@4@@Z  (Idle)
01:0006E810 ?_getMetafileHeaderFromEmf@metafile@@SAXPBUhEnhMetafile@@PAPAUmetafileHeader_struct@gdiplus_native@@@Z  (Idle)
01:0006E868 ?_getMetafileHeaderFromFile@metafile@@SAXPB_WPAPAUmetafileHeader_struct@gdiplus_native@@@Z  (Idle)
01:0006E8C0 ?_getMetafileHeaderFromStream@metafile@@SAXQAViStream_native@@@PAPAUmetafileHeader_struct@gdiplus_native@@@Z  (Idle)
01:0006E918 ?_getMetafileHeader@metafile@@SAXQAV1@@PAPAUmetafileHeader_struct@gdiplus_native@@@Z 
01:0006E978 ?_newNative@metafile@@SAXPBUgpMetafile@gdiplus_native@@PAPAV1@@@Z  (Idle)
01:0006E9A0 ?_create@metafile@@SAXPB_WPAPAV1@@@Z  (Idle)
01:0006E9C8 ?_createFromEnhMetafile@metafile@@SAXPBUhEnhMetafile@@PAUboolean_struct@_builtIn@@PAPAV1@@@Z  (Idle)
01:0006E9F4 ?_createFromWmf@metafile@@SAXPBUhMetafile@@PBUwmfPlaceableFileHeader@gdiplus_native@@PAUboolean_struct@_builtIn@@PAPAV1@@@Z  (Idle)
01:0006EA24 ?_createFromIStream@metafile@@SAXQAViStream_native@@@PAPAV1@@@Z  (Idle)
01:0006EA4C ?_recordMetafile@metafile@@SAXPBUhDC@@PBUemfType@gdiplus_native@@PB_WPAPAV1@@@Z  (Idle)
01:0006EA7C ?_recordMetafile@metafile@@SAXPBUhDC@@PAUrectF_struct@gdiplus@@PBUmetafileFrameUnit@gdiplus_native@@PBUemfType@6@PB_WPAPAV1@@@Z  (Idle)
01:0006EAB0 ?_recordMetafileI@metafile@@SAXPBUhDC@@PAUrectI_struct@gdiplus@@PBUmetafileFrameUnit@gdiplus_native@@PBUemfType@6@PB_WPAPAV1@@@Z  (Idle)
01:0006EAE4 ?_recordMetafileFilename@metafile@@SAXPB_WPBUhDC@@PBUemfType@gdiplus_native@@0PAPAV1@@@Z  (Idle)
01:0006EB18 ?_recordMetafileFilename@metafile@@SAXPB_WPBUhDC@@PAUrectF_struct@gdiplus@@PBUmetafileFrameUnit@gdiplus_native@@PBUemfType@6@0PAPAV1@@@Z  (Idle)
01:0006EB50 ?_recordMetafileFilenameI@metafile@@SAXPB_WPBUhDC@@PAUrectI_struct@gdiplus@@PBUmetafileFrameUnit@gdiplus_native@@PBUemfType@6@0PAPAV1@@@Z  (Idle)
01:0006EB88 ?_recordMetafileStream@metafile@@SAXQAViStream_native@@@PBUhDC@@PBUemfType@gdiplus_native@@PB_WPAPAV1@@@Z  (Idle)
01:0006EBBC ?_recordMetafileStream@metafile@@SAXQAViStream_native@@@PBUhDC@@PAUrectF_struct@gdiplus@@PBUmetafileFrameUnit@gdiplus_native@@PBUemfType@7@PB_WPAPAV1@@@Z  (Idle)
01:0006EBF4 ?_recordMetafileStreamI@metafile@@SAXQAViStream_native@@@PBUhDC@@PAUrectI_struct@gdiplus@@PBUmetafileFrameUnit@gdiplus_native@@PBUemfType@7@PB_WPAPAV1@@@Z  (Idle)
01:0006EC2C ?nativeMetafile@metafile@@SGXQAV1@@PBUgpMetafile@gdiplus_native@@@Z 
01:0006EC3C ?nativeMetafile@metafile@@SGPBUgpMetafile@gdiplus_native@@QAV1@@@Z 
01:0006EC48 ?newNative@matrix@@SAXQAV1@@PBUgpMatrix@gdiplus_native@@@Z  (Idle)
01:0006EC5C ?create@matrix@@SAXQAV1@@@Z  (Idle)
01:0006EC94 ?createI@matrix@@SAXQAV1@@PAUrect_struct@gdiplus_native@@PBUgpPoint@4@@Z  (Idle)
01:0006ECD0 ?createF@matrix@@SAXQAV1@@PAUrectF_struct@gdiplus_native@@PBUgpPointF@4@@Z  (Idle)
01:0006ED0C ?create@matrix@@SAXQAV1@@PANPANPANPANPANPAN@Z  (Idle)
01:0006EE1C ?finalize@matrix@@SGXQAV1@@@Z 
01:0006EE7C ?_clone@matrix@@SAXQAV1@@PAPAV1@@@Z 
01:0006EEC0 ?elements@matrix@@SGPAUelements_struct@1@QAV1@@@Z 
01:0006EF14 ?elements@matrix@@SGXQAV1@@PAUelements_struct@1@@Z 
01:0006EFAC ?setElements@matrix@@SAXQAV1@@PANPANPANPANPANPAN@Z 
01:0006F098 ?_offsetX@matrix@@SAXQAV1@@PAPAN@Z 
01:0006F10C ?_offsetY@matrix@@SAXQAV1@@PAPAN@Z 
01:0006F180 ?reset@matrix@@SAXQAV1@@@Z 
01:0006F1C0 ?multiply@matrix@@SAXQAV1@@0@Z 
01:0006F1D4 ?multiply@matrix@@SAXQAV1@@0PBUgpMatrixOrder@gdiplus_native@@@Z 
01:0006F21C ?translate@matrix@@SAXQAV1@@PANPAN@Z 
01:0006F230 ?translate@matrix@@SAXQAV1@@PANPANPBUgpMatrixOrder@gdiplus_native@@@Z 
01:0006F2B4 ?scale@matrix@@SAXQAV1@@PANPAN@Z 
01:0006F2C8 ?scale@matrix@@SAXQAV1@@PANPANPBUgpMatrixOrder@gdiplus_native@@@Z 
01:0006F34C ?rotate@matrix@@SAXQAV1@@PAN@Z 
01:0006F360 ?rotate@matrix@@SAXQAV1@@PANPBUgpMatrixOrder@gdiplus_native@@@Z 
01:0006F3C0 ?rotateAt@matrix@@SAXQAV1@@PANPBUgpPointF@gdiplus_native@@PBUgpMatrixOrder@4@@Z 
01:0006F3C8 ?shear@matrix@@SAXQAV1@@PANPAN@Z 
01:0006F3DC ?shear@matrix@@SAXQAV1@@PANPANPBUgpMatrixOrder@gdiplus_native@@@Z 
01:0006F460 ?invert@matrix@@SAXQAV1@@@Z 
01:0006F49C ?_transformI@matrix@@SAXQAV1@@PAU?$__list_struct@UpointI@@@@PAPAU?$__list_struct@U3@@@@Z 
01:0006F4FC ?_transformF@matrix@@SAXQAV1@@PAU?$__list_struct@UpointF@@@@PAPAU?$__list_struct@U3@@@@Z 
01:0006F55C ?isInvertible@matrix@@SAXQAV1@@@Z 
01:0006F5A0 ?isIdentity@matrix@@SAXQAV1@@@Z 
01:0006F5E4 ?isEqual@matrix@@SAXQAV1@@0@Z 
01:0006F63C ?_newNative@matrix@@SAXPBUgpMatrix@gdiplus_native@@PAPAV1@@@Z 
01:0006F664 ?_create@matrix@@SAXPAPAV1@@@Z 
01:0006F68C ?_createI@matrix@@SAXPAUrect_struct@gdiplus_native@@PBUgpPoint@3@PAPAV1@@@Z  (Idle)
01:0006F6B8 ?_createF@matrix@@SAXPAUrectF_struct@gdiplus_native@@PBUgpPointF@3@PAPAV1@@@Z  (Idle)
01:0006F6E4 ?_create@matrix@@SAXPANPANPANPANPANPANPAPAV1@@@Z  (Idle)
01:0006F71C ?nativeMatrix@matrix@@SGXQAV1@@PBUgpMatrix@gdiplus_native@@@Z 
01:0006F72C ?nativeMatrix@matrix@@SGPBUgpMatrix@gdiplus_native@@QAV1@@@Z 
01:0006F738 ?newNative@linearGradientBrush@@SAXQAV1@@PBUgpLineGradient@gdiplus_native@@@Z  (Idle)
01:0006F75C ?createLineBrushF@linearGradientBrush@@SAXQAV1@@PAUpointF_struct@gdiplus@@1QAVcolor@@@3@Z  (Idle)
01:0006F7B8 ?createLineBrushI@linearGradientBrush@@SAXQAV1@@PAUpointI_struct@gdiplus@@1QAVcolor@@@3@Z  (Idle)
01:0006F818 ?createLineBrushFromRectF@linearGradientBrush@@SAXQAV1@@PAUrectF_struct@gdiplus@@QAVcolor@@@2PBUlinearGradientMode@gdiplus_native@@@Z  (Idle)
01:0006F878 ?createLineBrushFromRectI@linearGradientBrush@@SAXQAV1@@PAUrectI_struct@gdiplus@@QAVcolor@@@2PBUlinearGradientMode@gdiplus_native@@@Z  (Idle)
01:0006F8D8 ?createFromRectWithAngleF@linearGradientBrush@@SAXQAV1@@PAUrectF_struct@gdiplus@@QAVcolor@@@2PAN@Z  (Idle)
01:0006F8EC ?createFromRectWithAngleF@linearGradientBrush@@SAXQAV1@@PAUrectF_struct@gdiplus@@QAVcolor@@@2PANPAUboolean_struct@_builtIn@@@Z 
01:0006F984 ?createFromRectWithAngleI@linearGradientBrush@@SAXQAV1@@PAUrectI_struct@gdiplus@@QAVcolor@@@2PAN@Z  (Idle)
01:0006F998 ?createFromRectWithAngleI@linearGradientBrush@@SAXQAV1@@PAUrectI_struct@gdiplus@@QAVcolor@@@2PANPAUboolean_struct@_builtIn@@@Z 
01:0006FA30 ?setLinearColors@linearGradientBrush@@SAXQAV1@@QAVcolor@@@1@Z 
01:0006FA84 ?getLinearColors@linearGradientBrush@@SAXQAV1@@PAPAVcolor@@@1@Z 
01:0006FB2C ?rectF@linearGradientBrush@@SGPAUrectF_struct@gdiplus@@QAV1@@@Z 
01:0006FB84 ?rectI@linearGradientBrush@@SGPAUrectI_struct@gdiplus@@QAV1@@@Z 
01:0006FBDC ?useGammaCorrection@linearGradientBrush@@SGPAUboolean_struct@_builtIn@@QAV1@@@Z 
01:0006FC30 ?useGammaCorrection@linearGradientBrush@@SGXQAV1@@PAUboolean_struct@_builtIn@@@Z 
01:0006FC84 ?blendCount@linearGradientBrush@@SGPBUpositive@@QAV1@@@Z 
01:0006FCD4 ?setBlend@linearGradientBrush@@SAXQAV1@@PAU?$__list_struct@PAN@@1@Z 
01:0006FD78 ?getBlend@linearGradientBrush@@SAXQAV1@@PAPAU?$__list_struct@PAPAN@@1@Z 
01:0006FE20 ?interpolationColorCount@linearGradientBrush@@SGPBUpositive@@QAV1@@@Z 
01:0006FE70 $setInterpolationColors$linearGradientBrush_implement$predicate$(i,i,i)$c$_m27 
01:0006FF4C $getInterpolationColors$linearGradientBrush_implement$predicate$(i,o,o)$c$_m28 
01:0006FFF4 ?setBlendBellShape@linearGradientBrush@@SAXQAV1@@PAN@Z 
01:00070008 ?setBlendBellShape@linearGradientBrush@@SAXQAV1@@PANPAN@Z 
01:00070088 ?transform@linearGradientBrush@@SGQAVmatrix@@@QAV1@@@Z 
01:000700E4 ?transform@linearGradientBrush@@SGXQAV1@@QAVmatrix@@@@Z 
01:0007012C ?resetTransform@linearGradientBrush@@SAXQAV1@@@Z 
01:00070168 ?multiplyTransform@linearGradientBrush@@SAXQAV1@@QAVmatrix@@@@Z 
01:0007017C ?multiplyTransform@linearGradientBrush@@SAXQAV1@@QAVmatrix@@@PBUgpMatrixOrder@gdiplus_native@@@Z 
01:000701C4 ?translateTransform@linearGradientBrush@@SAXQAV1@@PANPAN@Z 
01:000701D8 ?translateTransform@linearGradientBrush@@SAXQAV1@@PANPANPBUgpMatrixOrder@gdiplus_native@@@Z 
01:0007025C ?scaleTransform@linearGradientBrush@@SAXQAV1@@PANPAN@Z 
01:00070270 ?scaleTransform@linearGradientBrush@@SAXQAV1@@PANPANPBUgpMatrixOrder@gdiplus_native@@@Z 
01:000702F4 ?rotateTransform@linearGradientBrush@@SAXQAV1@@PAN@Z 
01:00070308 ?rotateTransform@linearGradientBrush@@SAXQAV1@@PANPBUgpMatrixOrder@gdiplus_native@@@Z 
01:00070368 ?wrapMode@linearGradientBrush@@SGPBUgpWrapMode@gdiplus_native@@QAV1@@@Z 
01:000703AC ?wrapMode@linearGradientBrush@@SGXQAV1@@PBUgpWrapMode@gdiplus_native@@@Z 
01:000703EC ?_newNative@linearGradientBrush@@SAXPBUgpLineGradient@gdiplus_native@@PAPAV1@@@Z 
01:00070414 ?_createLineBrushF@linearGradientBrush@@SAXPAUpointF_struct@gdiplus@@0QAVcolor@@@2PAPAV1@@@Z  (Idle)
01:00070448 ?_createLineBrushI@linearGradientBrush@@SAXPAUpointI_struct@gdiplus@@0QAVcolor@@@2PAPAV1@@@Z  (Idle)
01:0007047C ?_createLineBrushFromRectF@linearGradientBrush@@SAXPAUrectF_struct@gdiplus@@QAVcolor@@@1PBUlinearGradientMode@gdiplus_native@@PAPAV1@@@Z  (Idle)
01:000704B0 ?_createLineBrushFromRectI@linearGradientBrush@@SAXPAUrectI_struct@gdiplus@@QAVcolor@@@1PBUlinearGradientMode@gdiplus_native@@PAPAV1@@@Z  (Idle)
01:000704E4 ?_createFromRectWithAngleF@linearGradientBrush@@SAXPAUrectF_struct@gdiplus@@QAVcolor@@@1PANPAPAV1@@@Z  (Idle)
01:00070518 ?_createFromRectWithAngleF@linearGradientBrush@@SAXPAUrectF_struct@gdiplus@@QAVcolor@@@1PANPAUboolean_struct@_builtIn@@PAPAV1@@@Z  (Idle)
01:0007054C ?_createFromRectWithAngleI@linearGradientBrush@@SAXPAUrectI_struct@gdiplus@@QAVcolor@@@1PANPAPAV1@@@Z  (Idle)
01:00070580 ?_createFromRectWithAngleI@linearGradientBrush@@SAXPAUrectI_struct@gdiplus@@QAVcolor@@@1PANPAUboolean_struct@_builtIn@@PAPAV1@@@Z  (Idle)
01:000705B4 ?nativeLinearGradientBrush@linearGradientBrush@@SGPBUgpLineGradient@gdiplus_native@@QAV1@@@Z 
01:000705C0 ?create@installedFontCollection@@SAXQAV1@@@Z  (Idle)
01:000705F8 ?_create@installedFontCollection@@SAXPAPAV1@@@Z  (Idle)
01:0007061C ?new@imageAttributes@@SAXQAV1@@@Z  (Idle)
01:00070654 ?new@imageAttributes@@SAXQAV1@@PBUgpImageAttributes@gdiplus_native@@@Z 
01:00070668 ?finalize@imageAttributes@@SGXQAV1@@@Z 
01:000706C8 ?_clone@imageAttributes@@SAXQAV1@@PAPAV1@@@Z 
01:0007070C ?setToIdentity@imageAttributes@@SAXQAV1@@@Z 
01:00070720 ?setToIdentity@imageAttributes@@SAXQAV1@@PBUcolorAdjustType@gdiplus_native@@@Z 
01:00070760 ?reset@imageAttributes@@SAXQAV1@@@Z 
01:00070774 ?reset@imageAttributes@@SAXQAV1@@PBUcolorAdjustType@gdiplus_native@@@Z 
01:000707B4 ?setColorMatrix@imageAttributes@@SAXQAV1@@PAUcolorMatrix_struct@gdiplus_native@@@Z 
01:000707CC ?setColorMatrix@imageAttributes@@SAXQAV1@@PAUcolorMatrix_struct@gdiplus_native@@PBUcolorMatrixFlags@4@PBUcolorAdjustType@4@@Z 
01:00070810 ?clearColorMatrix@imageAttributes@@SAXQAV1@@@Z 
01:00070824 ?clearColorMatrix@imageAttributes@@SAXQAV1@@PBUcolorAdjustType@gdiplus_native@@@Z 
01:0007086C ?setColorMatrices@imageAttributes@@SAXQAV1@@PAUcolorMatrix_struct@gdiplus_native@@1@Z 
01:00070884 ?setColorMatrices@imageAttributes@@SAXQAV1@@PAUcolorMatrix_struct@gdiplus_native@@1PBUcolorMatrixFlags@4@PBUcolorAdjustType@4@@Z 
01:000708C8 ?clearColorMatrices@imageAttributes@@SAXQAV1@@@Z 
01:000708DC ?clearColorMatrices@imageAttributes@@SAXQAV1@@PBUcolorAdjustType@gdiplus_native@@@Z 
01:00070924 ?setThreshold@imageAttributes@@SAXQAV1@@PAN@Z 
01:00070938 ?setThreshold@imageAttributes@@SAXQAV1@@PANPBUcolorAdjustType@gdiplus_native@@@Z 
01:00070998 ?clearThreshold@imageAttributes@@SAXQAV1@@@Z 
01:000709AC ?clearThreshold@imageAttributes@@SAXQAV1@@PBUcolorAdjustType@gdiplus_native@@@Z 
01:000709F0 ?setGamma@imageAttributes@@SAXQAV1@@PAN@Z 
01:00070A04 ?setGamma@imageAttributes@@SAXQAV1@@PANPBUcolorAdjustType@gdiplus_native@@@Z 
01:00070A64 ?clearGamma@imageAttributes@@SAXQAV1@@@Z 
01:00070A78 ?clearGamma@imageAttributes@@SAXQAV1@@PBUcolorAdjustType@gdiplus_native@@@Z 
01:00070ABC ?setNoOp@imageAttributes@@SAXQAV1@@@Z 
01:00070AD0 ?setNoOp@imageAttributes@@SAXQAV1@@PBUcolorAdjustType@gdiplus_native@@@Z 
01:00070B14 ?clearNoOp@imageAttributes@@SAXQAV1@@@Z 
01:00070B28 ?clearNoOp@imageAttributes@@SAXQAV1@@PBUcolorAdjustType@gdiplus_native@@@Z 
01:00070B6C ?setColorKey@imageAttributes@@SAXQAV1@@QAVcolor@@@1@Z 
01:00070B80 ?setColorKey@imageAttributes@@SAXQAV1@@QAVcolor@@@1PBUcolorAdjustType@gdiplus_native@@@Z 
01:00070BD8 ?clearColorKey@imageAttributes@@SAXQAV1@@@Z 
01:00070BEC ?clearColorKey@imageAttributes@@SAXQAV1@@PBUcolorAdjustType@gdiplus_native@@@Z 
01:00070C34 ?setOutputChannel@imageAttributes@@SAXQAV1@@PBUcolorChannelFlags@gdiplus_native@@@Z 
01:00070C48 ?setOutputChannel@imageAttributes@@SAXQAV1@@PBUcolorChannelFlags@gdiplus_native@@PBUcolorAdjustType@4@@Z 
01:00070C84 ?clearOutputChannel@imageAttributes@@SAXQAV1@@@Z 
01:00070C98 ?clearOutputChannel@imageAttributes@@SAXQAV1@@PBUcolorAdjustType@gdiplus_native@@@Z 
01:00070CDC ?setOutputChannelColorProfile@imageAttributes@@SAXQAV1@@PB_W@Z 
01:00070CF0 ?setOutputChannelColorProfile@imageAttributes@@SAXQAV1@@PB_WPBUcolorAdjustType@gdiplus_native@@@Z 
01:00070D2C ?clearOutputChannelColorProfile@imageAttributes@@SAXQAV1@@@Z 
01:00070D40 ?clearOutputChannelColorProfile@imageAttributes@@SAXQAV1@@PBUcolorAdjustType@gdiplus_native@@@Z 
01:00070D84 ?setRemapTable@imageAttributes@@SAXQAV1@@PBUpositive@@PBUcolorMap@gdiplus_native@@@Z 
01:00070D98 ?setRemapTable@imageAttributes@@SAXQAV1@@PBUpositive@@PBUcolorMap@gdiplus_native@@PBUcolorAdjustType@5@@Z 
01:00070DDC ?clearRemapTable@imageAttributes@@SAXQAV1@@@Z 
01:00070DF0 ?clearRemapTable@imageAttributes@@SAXQAV1@@PBUcolorAdjustType@gdiplus_native@@@Z 
01:00070E38 ?setBrushRemapTable@imageAttributes@@SAXQAV1@@PBUpositive@@PBUcolorMap@gdiplus_native@@@Z 
01:00070E4C ?clearBrushRemapTable@imageAttributes@@SAXQAV1@@@Z 
01:00070E60 ?setWrapMode@imageAttributes@@SAXQAV1@@PBUgpWrapMode@gdiplus_native@@QAVcolor@@@PAUboolean_struct@_builtIn@@@Z 
01:00070EC0 ?_getAdjustedPalette@imageAttributes@@SAXQAV1@@PBUcolorAdjustType@gdiplus_native@@PAPAUcolorPalette_struct@4@@Z 
01:00070F18 ?_new@imageAttributes@@SAXPAPAV1@@@Z  (Idle)
01:00070F40 ?_new@imageAttributes@@SAXPBUgpImageAttributes@gdiplus_native@@PAPAV1@@@Z 
01:00070F68 ?nativeImageAttributes@imageAttributes@@SGXQAV1@@PBUgpImageAttributes@gdiplus_native@@@Z 
01:00070F78 ?nativeImageAttributes@imageAttributes@@SGPBUgpImageAttributes@gdiplus_native@@QAV1@@@Z 
01:00070F84 ?newNative@image@@SAXQAV1@@PBUgpImage@gdiplus_native@@@Z 
01:00070FAC ?createFromFile@image@@SAXQAV1@@PB_WPAUboolean_struct@_builtIn@@@Z  (Idle)
01:00070FC8 ?createFromFile@image@@SAXQAV1@@PB_W@Z 
01:00071000 ?createFromFileICM@image@@SAXQAV1@@PB_W@Z 
01:0007103C ?createFromStream@image@@SAXQAV1@@QAViStream_native@@@@Z  (Idle)
01:00071078 ?createFromStreamICM@image@@SAXQAV1@@QAViStream_native@@@@Z  (Idle)
01:000710B4 ?createFromStream@image@@SAXQAV1@@QAViStream_native@@@PAUboolean_struct@_builtIn@@@Z  (Idle)
01:000710D0 ?createFromBinary@image@@SAXQAV1@@QAE@Z  (Idle)
01:00071154 ?_fromStream@image@@SAXQAV1@@QAViStream_native@@@PAUboolean_struct@_builtIn@@PAPAV1@@@Z 
01:00071174 ?_clone@image@@SAXQAV1@@PAPAV1@@@Z 
01:000711CC ?_fromFile@image@@SAXQAV1@@PB_WPAUboolean_struct@_builtIn@@PAPAV1@@@Z 
01:000711EC ?_fromFile@image@@SAXQAV1@@PB_WPAPAV1@@@Z 
01:00071204 ?_fromFileICM@image@@SAXQAV1@@PB_WPAPAV1@@@Z 
01:0007121C ?finalize@image@@SGXQAV1@@@Z 
01:0007124C ?dispose@image@@SAXQAV1@@@Z 
01:000712EC ?_getEncoderParameterListSize@image@@SAXQAV1@@PAUnativeGuid_struct@core@@AAUbyteCount@@@Z 
01:00071354 ?_getEncoderParameterList@image@@SAXQAV1@@PAUnativeGuid_struct@core@@PBUbyteCount@@PAPAUencoderParameters_struct@gdiplus@@@Z 
01:000713C8 ?saveToFile@image@@SAXQAV1@@PB_WPAUnativeGuid_struct@core@@PAUencoderParameters_struct@gdiplus@@@Z 
01:0007141C ?saveToStream@image@@SAXQAV1@@QAViStream_native@@@PAUnativeGuid_struct@core@@PAUencoderParameters_struct@gdiplus@@@Z 
01:00071470 ?saveAdd@image@@SAXQAV1@@PAUencoderParameters_struct@gdiplus@@@Z 
01:000714C8 ?saveAdd@image@@SAXQAV1@@0PAUencoderParameters_struct@gdiplus@@@Z 
01:00071528 ?type@image@@SGPBUimageType@gdiplus_native@@QAV1@@@Z 
01:00071580 ?physicalSize@image@@SGPAUsizeF_struct@gdiplus@@QAV1@@@Z 
01:000715F4 ?getBounds@image@@SAXQAV1@@PAPAUrectF_struct@gdiplus@@AAUgpUnit@gdiplus_native@@@Z 
01:00071664 ?_width@image@@SAXQAV1@@PAPAN@Z 
01:000716DC ?_height@image@@SAXQAV1@@PAPAN@Z 
01:00071754 ?_horizontalResolution@image@@SAXQAV1@@PAPAN@Z 
01:000717D8 ?_verticalResolution@image@@SAXQAV1@@PAPAN@Z 
01:0007185C ?flags@image@@SGIQAV1@@@Z 
01:000718B4 ?rawFormat@image@@SGPAUnativeGuid_struct@core@@QAV1@@@Z 
01:00071924 ?pixelFormat@image@@SGPBU0gdiplus_native@@QAV1@@@Z 
01:0007197C ?paletteSize@image@@SGHQAV1@@@Z 
01:000719D4 ?palette@image@@SGPAUcolorPalette_struct@gdiplus_native@@QAV1@@@Z 
01:00071A5C ?palette@image@@SGXQAV1@@PAUcolorPalette_struct@gdiplus_native@@@Z 
01:00071AB0 ?_getThumbnailImage@image@@SAXQAV1@@IIXPAXPAPAV1@@@Z 
01:00071B1C ?frameDimensionCount@image@@SGPBUpositive@@QAV1@@@Z 
01:00071B84 ?frameDimensionsList@image@@SGPAU?$__list_struct@UnativeGuid@@@@QAV1@@@Z 
01:00071C1C ?_getFrameCount@image@@SAXQAV1@@PAUnativeGuid_struct@core@@PAI@Z 
01:00071C6C ?selectActiveFrame@image@@SAXQAV1@@PAUnativeGuid_struct@core@@I@Z 
01:00071CBC ?rotateFlip@image@@SAXQAV1@@PBUrotateFlipType@gdiplus_native@@@Z 
01:00071D14 ?propertyCount@image@@SGPBUpositive@@QAV1@@@Z 
01:00071D7C ?propertyIdList@image@@SGPAU?$__list_struct@UpropertyId@@@@QAV1@@@Z 
01:00071E18 ?_getPropertyItemSize@image@@SAXQAV1@@PBUpropertyId@@AAUbyteCount@@@Z 
01:00071E80 ?_getPropertyItem@image@@SAXQAV1@@PBUpropertyId@@PBUbyteCount@@PAPAUpropertyItem_struct@gdiplus@@@Z 
01:00071EF8 ?_getPropertyItem@image@@SAXQAV1@@PBUpropertyId@@PAPAUpropertyItem_struct@gdiplus@@@Z 
01:00071F30 ?getPropertySize@image@@SAXQAV1@@AAUbyteCount@@AAUpositive@@@Z 
01:00071FB0 ?_getAllPropertyItems@image@@SAXQAV1@@PBUbyteCount@@PBUpositive@@PAPAU?$__list_struct@UpropertyItem@gdiplus@@@@@Z 
01:00072034 ?removePropertyItem@image@@SAXQAV1@@PBUpropertyId@@@Z 
01:0007208C ?setPropertyItem@image@@SAXQAV1@@PAUpropertyItem_struct@gdiplus@@@Z 
01:000720E4 ?_newNative@image@@SAXPBUgpImage@gdiplus_native@@PAPAV1@@@Z 
01:0007210C ?_createFromFile@image@@SAXPB_WPAUboolean_struct@_builtIn@@PAPAV1@@@Z 
01:00072138 ?_createFromFile@image@@SAXPB_WPAPAV1@@@Z 
01:00072160 ?_createFromFileICM@image@@SAXPB_WPAPAV1@@@Z 
01:00072188 ?_createFromStream@image@@SAXQAViStream_native@@@PAUboolean_struct@_builtIn@@PAPAV1@@@Z 
01:000721B4 ?_createFromStreamICM@image@@SAXQAViStream_native@@@PAPAV1@@@Z  (Idle)
01:000721DC ?_createFromStream@image@@SAXQAViStream_native@@@PAPAV1@@@Z  (Idle)
01:00072204 ?_createFromBinary@image@@SAXQAEPAPAV1@@@Z  (Idle)
01:0007222C ?_object_facts_initializer@image@@SGXQAV1@@@Z 
01:00072244 ?nativeImage@image@@SGPBUgpImage@gdiplus_native@@QAV1@@@Z 
01:00072264 ?createFromFile@icon@@SAXQAV1@@PB_W@Z  (Idle)
01:00072290 ?createFromBinary@icon@@SAXQAV1@@QAE@Z  (Idle)
01:000722BC $createFromImages$icon_class$predicate$(i,i)$b$  (Idle)
01:000722E8 ?_loadIconAsBitmap@icon@@SAXPB_WHHPAPAVbitmap@@@@Z  (Idle)
01:000724F0 ?_getImage@icon@@SAXQAV1@@HHPAPAVimage@@@@Z 
01:00072524 ?_getBitmap@icon@@SAXQAV1@@HHPAPAVbitmap@@@@Z 
01:00072960 ?_adjustBitmapDim@icon@@SAXQAVimage@@@HHPAPAVbitmap@@@@Z 
01:00072A08 ?_getHBitmap@icon@@SAXQAV1@@HHAAUhBitmap@gui_native@@@Z 
01:00072B6C ?_createFromFile@icon@@SAXPB_WPAPAV1@@@Z  (Idle)
01:00072B94 ?_createFromBinary@icon@@SAXQAEPAPAV1@@@Z  (Idle)
01:00072BBC $createFromImages$icon_class$predicate$(i,o)$b$_c6  (Idle)
01:00072BE4 ?newNative@hatchBrush@@SAXQAV1@@PBUgpHatch@gdiplus_native@@@Z  (Idle)
01:00072C08 ?createHatchBrush@hatchBrush@@SAXQAV1@@PBUgpHatchStyle@gdiplus_native@@QAVcolor@@@2@Z  (Idle)
01:00072C60 ?hatchStyle@hatchBrush@@SGPBUgpHatchStyle@gdiplus_native@@QAV1@@@Z 
01:00072CA4 ?foregroundColor@hatchBrush@@SGQAVcolor@@@QAV1@@@Z 
01:00072CF8 ?backgroundColor@hatchBrush@@SGQAVcolor@@@QAV1@@@Z 
01:00072D4C ?_newNative@hatchBrush@@SAXPBUgpHatch@gdiplus_native@@PAPAV1@@@Z 
01:00072D74 ?_createHatchBrush@hatchBrush@@SAXPBUgpHatchStyle@gdiplus_native@@QAVcolor@@@1PAPAV1@@@Z  (Idle)
01:00072DA4 ?nativeHatchBrush@hatchBrush@@SGPBUgpHatch@gdiplus_native@@QAV1@@@Z 
01:00072DB0 ?newNative@graphicsPathIterator@@SAXQAV1@@PBUgpPathIterator@gdiplus_native@@@Z  (Idle)
01:00072DC4 ?create@graphicsPathIterator@@SAXQAV1@@@Z  (Idle)
01:00072DFC ?create@graphicsPathIterator@@SAXQAV1@@QAVgraphicsPath@@@@Z  (Idle)
01:00072E40 ?finalize@graphicsPathIterator@@SGXQAV1@@@Z 
01:00072EA0 ?_nextSubPath@graphicsPathIterator@@SAXQAV1@@AAUpositive@@1PAPAUboolean_struct@_builtIn@@1@Z 
01:00072F38 ?_nextSubPath@graphicsPathIterator@@SAXQAV1@@PAPAVgraphicsPath@@@PAPAUboolean_struct@_builtIn@@AAUpositive@@@Z 
01:00072FBC ?_nextPathType@graphicsPathIterator@@SAXQAV1@@PAHAAUpositive@@22@Z 
01:00073050 ?_nextMarker@graphicsPathIterator@@SAXQAV1@@AAUpositive@@11@Z 
01:000730D4 ?_nextMarker@graphicsPathIterator@@SAXQAV1@@PAPAVgraphicsPath@@@AAUpositive@@@Z 
01:00073140 ?count@graphicsPathIterator@@SGPBUpositive@@QAV1@@@Z 
01:00073190 ?subPathCount@graphicsPathIterator@@SGPBUpositive@@QAV1@@@Z 
01:000731E0 ?hasCurve@graphicsPathIterator@@SAXQAV1@@@Z 
01:00073224 ?rewind@graphicsPathIterator@@SAXQAV1@@@Z 
01:00073260 ?enumerate@graphicsPathIterator@@SAXQAV1@@PAPAU?$__list_struct@UpointF@@@@PAPAU?$__list_struct@Uinteger@@@@@Z 
01:00073318 ?copyData@graphicsPathIterator@@SAXQAV1@@PAPAU?$__list_struct@UpointF@@@@PAPAU?$__list_struct@Uinteger@@@@PBUpositive@@3@Z 
01:000733FC ?_newNative@graphicsPathIterator@@SAXPBUgpPathIterator@gdiplus_native@@PAPAV1@@@Z  (Idle)
01:00073424 ?_create@graphicsPathIterator@@SAXPAPAV1@@@Z  (Idle)
01:0007344C ?_create@graphicsPathIterator@@SAXQAVgraphicsPath@@@PAPAV1@@@Z  (Idle)
01:00073474 ?newNative@graphicsPath@@SAXQAV1@@PBUgpPath@gdiplus_native@@@Z  (Idle)
01:00073488 ?create@graphicsPath@@SAXQAV1@@@Z  (Idle)
01:0007349C ?create@graphicsPath@@SAXQAV1@@PBUgpFillMode@gdiplus_native@@@Z 
01:000734D4 ?createPathF@graphicsPath@@SAXQAV1@@PAU?$__list_struct@UpointF@@@@PAU?$__list_struct@Uinteger@@@@@Z  (Idle)
01:000734E8 ?createPathF@graphicsPath@@SAXQAV1@@PAU?$__list_struct@UpointF@@@@PAU?$__list_struct@Uinteger@@@@PBUgpFillMode@gdiplus_native@@@Z 
01:00073594 ?createPathI@graphicsPath@@SAXQAV1@@PAU?$__list_struct@UpointI@@@@PAU?$__list_struct@Uinteger@@@@@Z  (Idle)
01:000735A8 ?createPathI@graphicsPath@@SAXQAV1@@PAU?$__list_struct@UpointI@@@@PAU?$__list_struct@Uinteger@@@@PBUgpFillMode@gdiplus_native@@@Z 
01:00073654 ?finalize@graphicsPath@@SGXQAV1@@@Z 
01:000736B4 ?_clone@graphicsPath@@SAXQAV1@@PAPAV1@@@Z 
01:000736F8 ?reset@graphicsPath@@SAXQAV1@@@Z 
01:00073734 ?fillMode@graphicsPath@@SGPBUgpFillMode@gdiplus_native@@QAV1@@@Z 
01:00073778 ?fillMode@graphicsPath@@SGXQAV1@@PBUgpFillMode@gdiplus_native@@@Z 
01:000737B8 ?getPathData@graphicsPath@@SAXQAV1@@PAPAU?$__list_struct@UpointF@@@@PAPAU?$__list_struct@Uinteger@@@@@Z 
01:000738AC ?startFigure@graphicsPath@@SAXQAV1@@@Z 
01:000738E8 ?closeFigure@graphicsPath@@SAXQAV1@@@Z 
01:00073924 ?closeAllFigures@graphicsPath@@SAXQAV1@@@Z 
01:00073960 ?setMarker@graphicsPath@@SAXQAV1@@@Z 
01:0007399C ?clearMarkers@graphicsPath@@SAXQAV1@@@Z 
01:000739D8 ?reverse@graphicsPath@@SAXQAV1@@@Z 
01:00073A14 ?lastPoint@graphicsPath@@SGPAUpointF_struct@gdiplus@@QAV1@@@Z 
01:00073A6C ?addArcF@graphicsPath@@SAXQAV1@@PANPANPANPANPANPAN@Z 
01:00073B7C ?addArcI@graphicsPath@@SAXQAV1@@HHHHPANPAN@Z 
01:00073C08 ?addArcI@graphicsPath@@SAXQAV1@@PAUrectI_struct@gdiplus@@PANPAN@Z 
01:00073C64 ?addArcF@graphicsPath@@SAXQAV1@@PAUrectF_struct@gdiplus@@PANPAN@Z 
01:00073D94 ?addBezierF@graphicsPath@@SAXQAV1@@PANPANPANPANPANPANPANPAN@Z 
01:00073EEC ?addBezierI@graphicsPath@@SAXQAV1@@HHHHHHHH@Z 
01:00073F38 ?addBezierF@graphicsPath@@SAXQAV1@@PAUpointF_struct@gdiplus@@111@Z 
01:00073FEC ?addBezierI@graphicsPath@@SAXQAV1@@PAUpointI_struct@gdiplus@@111@Z 
01:0007406C ?addBeziersI@graphicsPath@@SAXQAV1@@PAU?$__list_struct@UpointI@@@@@Z 
01:000740C4 ?addBeziersF@graphicsPath@@SAXQAV1@@PAU?$__list_struct@UpointF@@@@@Z 
01:0007411C ?addClosedCurveF@graphicsPath@@SAXQAV1@@PAU?$__list_struct@UpointF@@@@@Z 
01:00074174 ?addClosedCurveI@graphicsPath@@SAXQAV1@@PAU?$__list_struct@UpointI@@@@@Z 
01:000741CC ?addClosedCurveF@graphicsPath@@SAXQAV1@@PAU?$__list_struct@UpointF@@@@PAN@Z 
01:00074244 ?addClosedCurveI@graphicsPath@@SAXQAV1@@PAU?$__list_struct@UpointI@@@@PAN@Z 
01:000742BC ?addCurveF@graphicsPath@@SAXQAV1@@PAU?$__list_struct@UpointF@@@@@Z 
01:00074314 ?addCurveI@graphicsPath@@SAXQAV1@@PAU?$__list_struct@UpointI@@@@@Z 
01:0007436C ?addCurveF@graphicsPath@@SAXQAV1@@PAU?$__list_struct@UpointF@@@@PAN@Z 
01:000743E4 ?addCurveI@graphicsPath@@SAXQAV1@@PAU?$__list_struct@UpointI@@@@PAN@Z 
01:0007445C ?addCurveF@graphicsPath@@SAXQAV1@@PAU?$__list_struct@UpointF@@@@HHPAN@Z 
01:000744D8 ?addCurveI@graphicsPath@@SAXQAV1@@PAU?$__list_struct@UpointI@@@@HHPAN@Z 
01:00074554 ?addEllipseF@graphicsPath@@SAXQAV1@@PANPANPANPAN@Z 
01:0007461C ?addEllipseI@graphicsPath@@SAXQAV1@@HHHH@Z 
01:0007465C ?addEllipseF@graphicsPath@@SAXQAV1@@PAUrectF_struct@gdiplus@@@Z 
01:000746D8 ?addEllipseI@graphicsPath@@SAXQAV1@@PAUrectI_struct@gdiplus@@@Z 
01:00074734 ?addLineI@graphicsPath@@SAXQAV1@@HHHH@Z 
01:00074774 ?addLineF@graphicsPath@@SAXQAV1@@PANPANPANPAN@Z 
01:0007483C ?addLineI@graphicsPath@@SAXQAV1@@PAUpointI_struct@gdiplus@@1@Z 
01:00074880 ?addLineF@graphicsPath@@SAXQAV1@@PAUpointF_struct@gdiplus@@1@Z 
01:0007499C ?addLinesF@graphicsPath@@SAXQAV1@@PAU?$__list_struct@UpointF@@@@@Z 
01:000749F4 ?addLinesI@graphicsPath@@SAXQAV1@@PAU?$__list_struct@UpointI@@@@@Z 
01:00074A4C ?addPath@graphicsPath@@SAXQAV1@@0PAUboolean_struct@_builtIn@@@Z 
01:00074AA8 ?addPieF@graphicsPath@@SAXQAV1@@PANPANPANPANPANPAN@Z 
01:00074BB8 ?addPieI@graphicsPath@@SAXQAV1@@HHHHPANPAN@Z 
01:00074C44 ?addPieI@graphicsPath@@SAXQAV1@@PAUrectI_struct@gdiplus@@PANPAN@Z 
01:00074CA0 ?addPieF@graphicsPath@@SAXQAV1@@PAUrectF_struct@gdiplus@@PANPAN@Z 
01:00074DD0 ?addPolygonF@graphicsPath@@SAXQAV1@@PAU?$__list_struct@UpointF@@@@@Z 
01:00074E28 ?addPolygonI@graphicsPath@@SAXQAV1@@PAU?$__list_struct@UpointI@@@@@Z 
01:00074E80 ?addRectangleF@graphicsPath@@SAXQAV1@@PANPANPANPAN@Z 
01:00074F48 ?addRectangleI@graphicsPath@@SAXQAV1@@HHHH@Z 
01:00074F88 ?addRectangleF@graphicsPath@@SAXQAV1@@PAUrectF_struct@gdiplus@@@Z 
01:00075004 ?addRectangleI@graphicsPath@@SAXQAV1@@PAUrectI_struct@gdiplus@@@Z 
01:00075060 ?addRectanglesF@graphicsPath@@SAXQAV1@@PAU?$__list_struct@UrectF@@@@@Z 
01:000750B8 ?addRectanglesI@graphicsPath@@SAXQAV1@@PAU?$__list_struct@UrectI@@@@@Z 
01:00075110 ?addString@graphicsPath@@SAXQAV1@@PB_WHPAUoptional_struct@core@@QAVfontFamily@@@HPANPAUrectF_struct@gdiplus@@PAU34@QAVstringFormat@@@@Z 
01:000751B8 ?transform@graphicsPath@@SAXQAV1@@QAVmatrix@@@@Z 
01:00075204 ?_getBoundsF@graphicsPath@@SAXQAV1@@PAPAUrectF_struct@gdiplus@@@Z 
01:00075234 ?_getBoundsF@graphicsPath@@SAXQAV1@@QAVmatrix@@@PAPAUrectF_struct@gdiplus@@@Z 
01:00075278 ?_getBoundsF@graphicsPath@@SAXQAV1@@PAUoptional_struct@core@@QAVmatrix@@@PAU34@QAVpen@@@PAPAUrectF_struct@gdiplus@@@Z 
01:00075310 ?_getBoundsI@graphicsPath@@SAXQAV1@@PAPAUrectI_struct@gdiplus@@@Z 
01:00075340 ?_getBoundsI@graphicsPath@@SAXQAV1@@QAVmatrix@@@PAPAUrectI_struct@gdiplus@@@Z 
01:00075384 ?_getBoundsI@graphicsPath@@SAXQAV1@@PAUoptional_struct@core@@QAVmatrix@@@PAU34@QAVpen@@@PAPAUrectI_struct@gdiplus@@@Z 
01:0007541C ?flatten@graphicsPath@@SAXQAV1@@@Z 
01:0007543C ?flatten@graphicsPath@@SAXQAV1@@QAVmatrix@@@@Z 
01:00075478 ?flatten@graphicsPath@@SAXQAV1@@PAUoptional_struct@core@@QAVmatrix@@@PAN@Z 
01:000754F4 ?widen@graphicsPath@@SAXQAV1@@QAVpen@@@@Z 
01:00075514 ?widen@graphicsPath@@SAXQAV1@@QAVpen@@@PAUoptional_struct@core@@QAVmatrix@@@@Z 
01:00075528 ?widen@graphicsPath@@SAXQAV1@@QAVpen@@@PAUoptional_struct@core@@QAVmatrix@@@PAN@Z 
01:000755B4 ?outline@graphicsPath@@SAXQAV1@@@Z 
01:000755D4 ?outline@graphicsPath@@SAXQAV1@@QAVmatrix@@@@Z 
01:00075610 ?outline@graphicsPath@@SAXQAV1@@PAUoptional_struct@core@@QAVmatrix@@@PAN@Z 
01:0007568C ?warp@graphicsPath@@SAXQAV1@@PAU?$__list_struct@UpointF@@@@PAUrectF_struct@gdiplus@@PAUoptional_struct@core@@QAVmatrix@@@PBUwarpMode@gdiplus_native@@PAN@Z 
01:00075768 ?pointCount@graphicsPath@@SGPBUpositive@@QAV1@@@Z 
01:000757B8 ?pathPointsF@graphicsPath@@SGPAU?$__list_struct@UpointF@@@@QAV1@@@Z 
01:00075838 ?pathPointsI@graphicsPath@@SGPAU?$__list_struct@UpointI@@@@QAV1@@@Z 
01:000758B8 ?pathTypes@graphicsPath@@SGPAU?$__list_struct@Uinteger@@@@QAV1@@@Z 
01:00075930 ?isVisibleF@graphicsPath@@SAXQAV1@@PAUpointF_struct@gdiplus@@@Z 
01:00075944 ?isVisibleF@graphicsPath@@SAXQAV1@@PANPAN@Z 
01:000759B0 ?isVisiblePointF@graphicsPath@@SAXQAV1@@PAUpointF_struct@gdiplus@@PAUoptional_struct@core@@QAVgraphics@@@@Z 
01:00075A38 ?isVisibleI@graphicsPath@@SAXQAV1@@PAUpointI_struct@gdiplus@@@Z 
01:00075A4C ?isVisibleI@graphicsPath@@SAXQAV1@@HH@Z 
01:00075A80 ?isVisiblePointI@graphicsPath@@SAXQAV1@@PAUpointI_struct@gdiplus@@PAUoptional_struct@core@@QAVgraphics@@@@Z 
01:00075AFC ?isOutlineVisibleF@graphicsPath@@SAXQAV1@@PAUpointF_struct@gdiplus@@@Z 
01:00075B1C ?isOutlineVisibleF@graphicsPath@@SAXQAV1@@PANPAN@Z 
01:00075B94 ?isOutlineVisiblePointF@graphicsPath@@SAXQAV1@@PAUpointF_struct@gdiplus@@PAUoptional_struct@core@@QAVpen@@@PAU56@QAVgraphics@@@@Z 
01:00075C3C ?isOutlineVisibleI@graphicsPath@@SAXQAV1@@PAUpointI_struct@gdiplus@@@Z 
01:00075C5C ?isOutlineVisibleI@graphicsPath@@SAXQAV1@@HH@Z 
01:00075CA0 ?isOutlineVisiblePointI@graphicsPath@@SAXQAV1@@PAUpointI_struct@gdiplus@@PAUoptional_struct@core@@QAVpen@@@PAU56@QAVgraphics@@@@Z 
01:00075D3C ?_newNative@graphicsPath@@SAXPBUgpPath@gdiplus_native@@PAPAV1@@@Z 
01:00075D64 ?_create@graphicsPath@@SAXPAPAV1@@@Z 
01:00075D8C ?_create@graphicsPath@@SAXPBUgpFillMode@gdiplus_native@@PAPAV1@@@Z  (Idle)
01:00075DB4 ?_createPathF@graphicsPath@@SAXPAU?$__list_struct@UpointF@@@@PAU?$__list_struct@Uinteger@@@@PAPAV1@@@Z  (Idle)
01:00075DE0 ?_createPathF@graphicsPath@@SAXPAU?$__list_struct@UpointF@@@@PAU?$__list_struct@Uinteger@@@@PBUgpFillMode@gdiplus_native@@PAPAV1@@@Z  (Idle)
01:00075E10 ?_createPathI@graphicsPath@@SAXPAU?$__list_struct@UpointI@@@@PAU?$__list_struct@Uinteger@@@@PAPAV1@@@Z  (Idle)
01:00075E3C ?_createPathI@graphicsPath@@SAXPAU?$__list_struct@UpointI@@@@PAU?$__list_struct@Uinteger@@@@PBUgpFillMode@gdiplus_native@@PAPAV1@@@Z  (Idle)
01:00075E6C ?nativePath@graphicsPath@@SGXQAV1@@PBUgpPath@gdiplus_native@@@Z 
01:00075E7C ?nativePath@graphicsPath@@SGPBUgpPath@gdiplus_native@@QAV1@@@Z 
01:00075E88 ?createFromWindow@graphics@@SAXQAV1@@QAVwindow@@@@Z  (Idle)
01:00075EB4 ?newNative@graphics@@SAXQAV1@@PBUgpGraphics@gdiplus_native@@@Z  (Idle)
01:00075EC8 ?createFromHDC@graphics@@SAXQAV1@@PBUhDC@gui_native@@@Z  (Idle)
01:00075F00 ?createFromHDC@graphics@@SAXQAV1@@PBUhDC@gui_native@@PBUhandle@@@Z  (Idle)
01:00075F40 ?createFromHWND@graphics@@SAXQAV1@@PBUhwnd@core@@@Z 
01:00075F54 ?createFromHWND@graphics@@SAXQAV1@@PBUhwnd@@PAUboolean_struct@_builtIn@@@Z 
01:00075FC4 ?createFromImage@graphics@@SAXQAV1@@QAVimage@@@@Z  (Idle)
01:0007600C ?finalize@graphics@@SGXQAV1@@@Z 
01:00076028 ?delete@graphics@@SAXQAV1@@@Z 
01:00076088 ?flush@graphics@@SAXQAV1@@@Z 
01:0007609C ?flush@graphics@@SAXQAV1@@PBUgpFlushIntention@gdiplus_native@@@Z 
01:000760DC ?_getHDC@graphics@@SAXQAV1@@AAUhDC@gui_native@@@Z 
01:0007611C ?releaseHDC@graphics@@SAXQAV1@@PBUhDC@gui_native@@@Z 
01:0007615C ?compositingMode@graphics@@SGXQAV1@@PBU0gdiplus_native@@@Z 
01:0007619C ?compositingMode@graphics@@SGPBU0gdiplus_native@@QAV1@@@Z 
01:000761E0 ?compositingQuality@graphics@@SGXQAV1@@PBU0gdiplus_native@@@Z 
01:00076220 ?compositingQuality@graphics@@SGPBU0gdiplus_native@@QAV1@@@Z 
01:00076264 ?_dpiX@graphics@@SAXQAV1@@PAPAN@Z 
01:000762D4 ?_dpiY@graphics@@SAXQAV1@@PAPAN@Z 
01:00076344 ?interpolationMode@graphics@@SGPBU0gdiplus_native@@QAV1@@@Z 
01:00076388 ?interpolationMode@graphics@@SGXQAV1@@PBU0gdiplus_native@@@Z 
01:000763C8 ?renderingOrigin@graphics@@SGPAUpointI_struct@gdiplus@@QAV1@@@Z 
01:00076428 ?renderingOrigin@graphics@@SGXQAV1@@PAUpointI_struct@gdiplus@@@Z 
01:00076470 ?textRenderingHint@graphics@@SGPBU0gdiplus_native@@QAV1@@@Z 
01:000764B4 ?textRenderingHint@graphics@@SGXQAV1@@PBU0gdiplus_native@@@Z 
01:000764F4 ?textContrast@graphics@@SGIQAV1@@@Z 
01:00076538 ?textContrast@graphics@@SGXQAV1@@I@Z 
01:00076578 ?smoothingMode@graphics@@SGXQAV1@@PBU0gdiplus_native@@@Z 
01:000765B8 ?smoothingMode@graphics@@SGPBU0gdiplus_native@@QAV1@@@Z 
01:000765FC ?pixelOffsetMode@graphics@@SGPBU0gdiplus_native@@QAV1@@@Z 
01:00076640 ?pixelOffsetMode@graphics@@SGXQAV1@@PBU0gdiplus_native@@@Z 
01:00076680 ?transform@graphics@@SGQAVmatrix@@@QAV1@@@Z 
01:000766DC ?transform@graphics@@SGXQAV1@@QAVmatrix@@@@Z 
01:00076724 ?resetTransform@graphics@@SAXQAV1@@@Z 
01:00076760 ?multiplyTransform@graphics@@SAXQAV1@@QAVmatrix@@@@Z 
01:00076774 ?multiplyTransform@graphics@@SAXQAV1@@QAVmatrix@@@PBUgpMatrixOrder@gdiplus_native@@@Z 
01:000767BC ?translateTransform@graphics@@SAXQAV1@@PANPAN@Z 
01:000767D0 ?translateTransform@graphics@@SAXQAV1@@PANPANPBUgpMatrixOrder@gdiplus_native@@@Z 
01:00076854 ?scaleTransform@graphics@@SAXQAV1@@PANPAN@Z 
01:00076868 ?scaleTransform@graphics@@SAXQAV1@@PANPANPBUgpMatrixOrder@gdiplus_native@@@Z 
01:000768EC ?rotateTransform@graphics@@SAXQAV1@@PAN@Z 
01:00076900 ?rotateTransform@graphics@@SAXQAV1@@PANPBUgpMatrixOrder@gdiplus_native@@@Z 
01:00076960 ?_transformPointsF@graphics@@SAXQAV1@@PBUgpCoordinateSpace@gdiplus_native@@1PAU?$__list_struct@UpointF@@@@PAPAU?$__list_struct@U7@@@@Z 
01:000769CC ?_transformPointsI@graphics@@SAXQAV1@@PBUgpCoordinateSpace@gdiplus_native@@1PAU?$__list_struct@UpointI@@@@PAPAU?$__list_struct@U7@@@@Z 
01:00076A38 ?_pageScale@graphics@@SAXQAV1@@PAPAN@Z 
01:00076AA8 ?pageScale@graphics@@SAXQAV1@@PAN@Z 
01:00076B0C ?pageUnit@graphics@@SGPBUgpUnit@gdiplus_native@@QAV1@@@Z 
01:00076B50 ?pageUnit@graphics@@SGXQAV1@@PBUgpUnit@gdiplus_native@@@Z 
01:00076B90 ?_getNearestColor@graphics@@SAXQAV1@@QAVcolor@@@PAPAV3@@@Z 
01:00076C00 ?drawArcF@graphics@@SAXQAV1@@QAVpen@@@PANPANPANPANPANPAN@Z 
01:00076D20 ?drawArcI@graphics@@SAXQAV1@@QAVpen@@@HHHHPANPAN@Z 
01:00076DBC ?drawArcI@graphics@@SAXQAV1@@QAVpen@@@PAUrectI_struct@gdiplus@@PANPAN@Z 
01:00076E18 ?drawArcF@graphics@@SAXQAV1@@QAVpen@@@PAUrectF_struct@gdiplus@@PANPAN@Z 
01:00076F48 ?drawBezierF@graphics@@SAXQAV1@@QAVpen@@@PANPANPANPANPANPANPANPAN@Z 
01:000770B0 ?drawBezierI@graphics@@SAXQAV1@@QAVpen@@@HHHHHHHH@Z 
01:0007710C ?drawBezierF@graphics@@SAXQAV1@@QAVpen@@@PAUpointF_struct@gdiplus@@222@Z 
01:000771D0 ?drawBezierI@graphics@@SAXQAV1@@QAVpen@@@PAUpointI_struct@gdiplus@@222@Z 
01:00077260 ?drawBeziersI@graphics@@SAXQAV1@@QAVpen@@@PAU?$__list_struct@UpointI@@@@@Z 
01:000772C0 ?drawBeziersF@graphics@@SAXQAV1@@QAVpen@@@PAU?$__list_struct@UpointF@@@@@Z 
01:00077320 ?drawClosedCurveF@graphics@@SAXQAV1@@QAVpen@@@PAU?$__list_struct@UpointF@@@@@Z 
01:00077380 ?drawClosedCurveI@graphics@@SAXQAV1@@QAVpen@@@PAU?$__list_struct@UpointI@@@@@Z 
01:000773E0 ?drawClosedCurveF@graphics@@SAXQAV1@@QAVpen@@@PAU?$__list_struct@UpointF@@@@PAN@Z 
01:00077468 ?drawClosedCurveI@graphics@@SAXQAV1@@QAVpen@@@PAU?$__list_struct@UpointI@@@@PAN@Z 
01:000774F0 ?drawCurveF@graphics@@SAXQAV1@@QAVpen@@@PAU?$__list_struct@UpointF@@@@@Z 
01:00077550 ?drawCurveI@graphics@@SAXQAV1@@QAVpen@@@PAU?$__list_struct@UpointI@@@@@Z 
01:000775B0 ?drawCurveF@graphics@@SAXQAV1@@QAVpen@@@PAU?$__list_struct@UpointF@@@@PAN@Z 
01:00077638 ?drawCurveI@graphics@@SAXQAV1@@QAVpen@@@PAU?$__list_struct@UpointI@@@@PAN@Z 
01:000776C0 ?drawCurveF@graphics@@SAXQAV1@@QAVpen@@@PAU?$__list_struct@UpointF@@@@HHPAN@Z 
01:0007774C ?drawCurveI@graphics@@SAXQAV1@@QAVpen@@@PAU?$__list_struct@UpointI@@@@HHPAN@Z 
01:000777D8 ?drawEllipseF@graphics@@SAXQAV1@@QAVpen@@@PANPANPANPAN@Z 
01:000778B0 ?drawEllipseI@graphics@@SAXQAV1@@QAVpen@@@HHHH@Z 
01:00077900 ?drawEllipseF@graphics@@SAXQAV1@@QAVpen@@@PAUrectF_struct@gdiplus@@@Z 
01:00077984 ?drawEllipseI@graphics@@SAXQAV1@@QAVpen@@@PAUrectI_struct@gdiplus@@@Z 
01:000779EC ?drawImageF@graphics@@SAXQAV1@@PAUoptional_struct@core@@QAVimage@@@PANPAN@Z 
01:00077A8C ?drawImageI@graphics@@SAXQAV1@@PAUoptional_struct@core@@QAVimage@@@HH@Z 
01:00077AE8 ?drawImageF@graphics@@SAXQAV1@@PAUoptional_struct@core@@QAVimage@@@PAUpointF_struct@gdiplus@@@Z 
01:00077B60 ?drawImageI@graphics@@SAXQAV1@@PAUoptional_struct@core@@QAVimage@@@PAUpointI_struct@gdiplus@@@Z 
01:00077BCC ?drawImageRectF@graphics@@SAXQAV1@@PAUoptional_struct@core@@QAVimage@@@PANPANPANPAN@Z 
01:00077CB4 ?drawImageRectI@graphics@@SAXQAV1@@PAUoptional_struct@core@@QAVimage@@@HHHH@Z 
01:00077D18 ?drawImageRectF@graphics@@SAXQAV1@@PAUoptional_struct@core@@QAVimage@@@PAUrectF_struct@gdiplus@@@Z 
01:00077DAC ?drawImageRectI@graphics@@SAXQAV1@@PAUoptional_struct@core@@QAVimage@@@PAUrectI_struct@gdiplus@@@Z 
01:00077E28 ?drawImagePointsF@graphics@@SAXQAV1@@PAUoptional_struct@core@@QAVimage@@@PAU?$__list_struct@UpointF@@@@@Z 
01:00077F20 ?drawImagePointsI@graphics@@SAXQAV1@@PAUoptional_struct@core@@QAVimage@@@PAU?$__list_struct@UpointI@@@@@Z 
01:00078018 ?drawImagePointRectF@graphics@@SAXQAV1@@PAUoptional_struct@core@@QAVimage@@@PANPANPANPANPANPANPBUgpUnit@gdiplus_native@@@Z 
01:0007814C ?drawImagePointRectI@graphics@@SAXQAV1@@PAUoptional_struct@core@@QAVimage@@@HHHHHHPBUgpUnit@gdiplus_native@@@Z 
01:000781B8 ?drawImageRectRectF@graphics@@SAXQAV1@@PAUoptional_struct@core@@QAVimage@@@PAUrectF_struct@gdiplus@@PANPANPANPANPBUgpUnit@gdiplus_native@@PAU34@QAVimageAttributes@@@XPAX@Z 
01:00078308 ?drawImageRectRectI@graphics@@SAXQAV1@@PAUoptional_struct@core@@QAVimage@@@PAUrectI_struct@gdiplus@@HHHHPBUgpUnit@gdiplus_native@@PAU34@QAVimageAttributes@@@XPAX@Z 
01:000783BC ?drawImagePointsRectF@graphics@@SAXQAV1@@PAUoptional_struct@core@@QAVimage@@@PAU?$__list_struct@UpointF@@@@PANPANPANPANPBUgpUnit@gdiplus_native@@PAU34@QAVimageAttributes@@@XPAX@Z 
01:000784EC ?drawImagePointsRectI@graphics@@SAXQAV1@@PAUoptional_struct@core@@QAVimage@@@PAU?$__list_struct@UpointI@@@@HHHHPBUgpUnit@gdiplus_native@@PAU34@QAVimageAttributes@@@XPAX@Z 
01:00078594 ?drawLineI@graphics@@SAXQAV1@@QAVpen@@@HHHH@Z 
01:000785E4 ?drawLineF@graphics@@SAXQAV1@@QAVpen@@@PANPANPANPAN@Z 
01:000786BC ?drawLineI@graphics@@SAXQAV1@@QAVpen@@@PAUpointI_struct@gdiplus@@2@Z 
01:00078700 ?drawLineF@graphics@@SAXQAV1@@QAVpen@@@PAUpointF_struct@gdiplus@@2@Z 
01:0007881C ?drawLinesF@graphics@@SAXQAV1@@QAVpen@@@PAU?$__list_struct@UpointF@@@@@Z 
01:0007887C ?drawLinesI@graphics@@SAXQAV1@@QAVpen@@@PAU?$__list_struct@UpointI@@@@@Z 
01:000788DC ?drawPath@graphics@@SAXQAV1@@QAVpen@@@QAVgraphicsPath@@@@Z 
01:00078930 ?drawPieF@graphics@@SAXQAV1@@QAVpen@@@PANPANPANPANPANPAN@Z 
01:00078A50 ?drawPieI@graphics@@SAXQAV1@@QAVpen@@@HHHHPANPAN@Z 
01:00078AEC ?drawPieI@graphics@@SAXQAV1@@QAVpen@@@PAUrectI_struct@gdiplus@@PANPAN@Z 
01:00078B48 ?drawPieF@graphics@@SAXQAV1@@QAVpen@@@PAUrectF_struct@gdiplus@@PANPAN@Z 
01:00078C78 ?drawPolygonF@graphics@@SAXQAV1@@QAVpen@@@PAU?$__list_struct@UpointF@@@@@Z 
01:00078CD8 ?drawPolygonI@graphics@@SAXQAV1@@QAVpen@@@PAU?$__list_struct@UpointI@@@@@Z 
01:00078D38 ?drawRectangleF@graphics@@SAXQAV1@@QAVpen@@@PANPANPANPAN@Z 
01:00078E10 ?drawRectangleI@graphics@@SAXQAV1@@QAVpen@@@HHHH@Z 
01:00078E60 ?drawRectangleF@graphics@@SAXQAV1@@QAVpen@@@PAUrectF_struct@gdiplus@@@Z 
01:00078EE4 ?drawRectangleI@graphics@@SAXQAV1@@QAVpen@@@PAUrectI_struct@gdiplus@@@Z 
01:00078F4C ?drawRectanglesF@graphics@@SAXQAV1@@QAVpen@@@PAU?$__list_struct@UrectF@@@@@Z 
01:00078FAC ?drawRectanglesI@graphics@@SAXQAV1@@QAVpen@@@PAU?$__list_struct@UrectI@@@@@Z 
01:0007900C ?drawString@graphics@@SAXQAV1@@PB_WHPAUoptional_struct@core@@QAVfont@@@PAUrectF_struct@gdiplus@@PAU34@QAVstringFormat@@@PAU34@QAVbrush@@@@Z 
01:000790B0 ?measureString@graphics@@SAXQAV1@@PB_WHPAUoptional_struct@core@@QAVfont@@@PAUrectF_struct@gdiplus@@PAU34@QAVstringFormat@@@PAPAU67@PAHPAH@Z 
01:00079158 $measureCharacterRanges$graphics_implement$predicate$(i,i,i,i,i,i,i)$c$_m105 
01:00079284 ?drawDriverString@graphics@@SAXQAV1@@PB_WHPAUoptional_struct@core@@QAVfont@@@PAU34@QAVbrush@@@PAU?$__list_struct@UpointF@@@@IPAU34@QAVmatrix@@@@Z 
01:00079340 ?measureDriverString@graphics@@SAXQAV1@@PB_WHPAUoptional_struct@core@@QAVfont@@@PAU?$__list_struct@UpointF@@@@IPAU34@QAVmatrix@@@PAPAUrectF_struct@gdiplus@@@Z 
01:000793FC ?drawCachedBitmap@graphics@@SAXQAV1@@QAVcachedBitmap@@@HH@Z 
01:00079448 ?setClipGraphics@graphics@@SAXQAV1@@0@Z 
01:0007945C ?setClipGraphics@graphics@@SAXQAV1@@0PBUcombineMode@gdiplus_native@@@Z 
01:000794A4 ?setClipRectF@graphics@@SAXQAV1@@PAUrectF_struct@gdiplus@@@Z 
01:000794B8 ?setClipRectF@graphics@@SAXQAV1@@PAUrectF_struct@gdiplus@@PBUcombineMode@gdiplus_native@@@Z 
01:00079530 ?setClipRectI@graphics@@SAXQAV1@@PAUrectI_struct@gdiplus@@@Z 
01:00079544 ?setClipRectI@graphics@@SAXQAV1@@PAUrectI_struct@gdiplus@@PBUcombineMode@gdiplus_native@@@Z 
01:0007959C ?setClipRegion@graphics@@SAXQAV1@@QAVregion@@@@Z 
01:000795B0 ?setClipRegion@graphics@@SAXQAV1@@QAVregion@@@PBUcombineMode@gdiplus_native@@@Z 
01:000795F8 ?setClipPath@graphics@@SAXQAV1@@QAVgraphicsPath@@@@Z 
01:0007960C ?setClipPath@graphics@@SAXQAV1@@QAVgraphicsPath@@@PBUcombineMode@gdiplus_native@@@Z 
01:00079654 ?setClipHrgn@graphics@@SAXQAV1@@PBUhRgn@gui_native@@@Z 
01:00079668 ?setClipHrgn@graphics@@SAXQAV1@@PBUhRgn@gui_native@@PBUcombineMode@gdiplus_native@@@Z 
01:000796A4 ?intersectClipRectF@graphics@@SAXQAV1@@PAUrectF_struct@gdiplus@@@Z 
01:000796B8 ?intersectClipRectI@graphics@@SAXQAV1@@PAUrectI_struct@gdiplus@@@Z 
01:000796CC ?intersectClipRegion@graphics@@SAXQAV1@@QAVregion@@@@Z 
01:000796E0 ?excludeClipRectF@graphics@@SAXQAV1@@PAUrectF_struct@gdiplus@@@Z 
01:000796F4 ?excludeClipRectI@graphics@@SAXQAV1@@PAUrectI_struct@gdiplus@@@Z 
01:00079708 ?excludeClipRegion@graphics@@SAXQAV1@@QAVregion@@@@Z 
01:0007971C ?resetClip@graphics@@SAXQAV1@@@Z 
01:00079758 ?translateClipF@graphics@@SAXQAV1@@PANPAN@Z 
01:000797D8 ?translateClipI@graphics@@SAXQAV1@@HH@Z 
01:00079814 ?_getClip@graphics@@SAXQAV1@@PAPAVregion@@@@Z 
01:00079858 ?_getClipBoundsF@graphics@@SAXQAV1@@PAPAUrectF_struct@gdiplus@@@Z 
01:000798B8 ?_getClipBoundsI@graphics@@SAXQAV1@@PAPAUrectI_struct@gdiplus@@@Z 
01:00079918 ?isClipEmpty@graphics@@SAXQAV1@@@Z 
01:0007995C ?_getVisibleClipBoundsF@graphics@@SAXQAV1@@PAPAUrectF_struct@gdiplus@@@Z 
01:000799BC ?_getVisibleClipBoundsI@graphics@@SAXQAV1@@PAPAUrectI_struct@gdiplus@@@Z 
01:00079A1C ?isVisibleClipEmpty@graphics@@SAXQAV1@@@Z 
01:00079A60 ?isVisiblePointF@graphics@@SAXQAV1@@PANPAN@Z 
01:00079AC4 ?isVisiblePointF@graphics@@SAXQAV1@@PAUpointF_struct@gdiplus@@@Z 
01:00079B28 ?isVisiblePointI@graphics@@SAXQAV1@@HH@Z 
01:00079B54 ?isVisiblePointI@graphics@@SAXQAV1@@PAUpointI_struct@gdiplus@@@Z 
01:00079BA8 ?isVisibleRectF@graphics@@SAXQAV1@@PANPANPANPAN@Z 
01:00079C50 ?isVisibleRectF@graphics@@SAXQAV1@@PAUrectF_struct@gdiplus@@@Z 
01:00079CD4 ?isVisibleRectI@graphics@@SAXQAV1@@HHHH@Z 
01:00079D0C ?isVisibleRectI@graphics@@SAXQAV1@@PAUrectI_struct@gdiplus@@@Z 
01:00079D74 ?_save@graphics@@SAXQAV1@@AAUgpGraphicsState@gdiplus_native@@@Z 
01:00079DB4 ?restore@graphics@@SAXQAV1@@PBUgpGraphicsState@gdiplus_native@@@Z 
01:00079DF4 ?addMetafileComment@graphics@@SAXQAV1@@QAE@Z 
01:00079E4C ?halfTonePalette@graphics@@SGPBUhPalette@gui_native@@QAV1@@@Z 
01:00079E64 ?clear@graphics@@SAXQAV1@@QAVcolor@@@@Z 
01:00079EB0 ?enumerateMetaFileDestPointF@graphics@@SAXQAV1@@PAUoptional_struct@core@@QAVmetafile@@@PAUpointF_struct@gdiplus@@XPAXPAU34@QAVimageAttributes@@@@Z 
01:00079F34 ?enumerateMetaFileDestPointI@graphics@@SAXQAV1@@PAUoptional_struct@core@@QAVmetafile@@@PAUpointI_struct@gdiplus@@XPAXPAU34@QAVimageAttributes@@@@Z 
01:00079FB8 ?enumerateMetaFileDestRectF@graphics@@SAXQAV1@@PAUoptional_struct@core@@QAVmetafile@@@PAUrectF_struct@gdiplus@@XPAXPAU34@QAVimageAttributes@@@@Z 
01:0007A03C ?enumerateMetaFileDestRectI@graphics@@SAXQAV1@@PAUoptional_struct@core@@QAVmetafile@@@PAUrectI_struct@gdiplus@@XPAXPAU34@QAVimageAttributes@@@@Z 
01:0007A0C0 ?enumerateMetaFileDestPointsF@graphics@@SAXQAV1@@PAUoptional_struct@core@@QAVmetafile@@@PAU?$__list_struct@UpointF@@@@XPAXPAU34@QAVimageAttributes@@@@Z 
01:0007A160 ?enumerateMetaFileDestPointsI@graphics@@SAXQAV1@@PAUoptional_struct@core@@QAVmetafile@@@PAU?$__list_struct@UpointI@@@@XPAXPAU34@QAVimageAttributes@@@@Z 
01:0007A200 ?enumerateMetaFileSrcRectDestPointF@graphics@@SAXQAV1@@PAUoptional_struct@core@@QAVmetafile@@@PAUpointF_struct@gdiplus@@PAUrectF_struct@7@PBUgpUnit@gdiplus_native@@XPAXPAU34@QAVimageAttributes@@@@Z 
01:0007A28C ?enumerateMetaFileSrcRectDestPointI@graphics@@SAXQAV1@@PAUoptional_struct@core@@QAVmetafile@@@PAUpointI_struct@gdiplus@@PAUrectI_struct@7@PBUgpUnit@gdiplus_native@@XPAXPAU34@QAVimageAttributes@@@@Z 
01:0007A318 ?enumerateMetaFileSrcRectDestRectF@graphics@@SAXQAV1@@PAUoptional_struct@core@@QAVmetafile@@@PAUrectF_struct@gdiplus@@2PBUgpUnit@gdiplus_native@@XPAXPAU34@QAVimageAttributes@@@@Z 
01:0007A3A4 ?enumerateMetaFileSrcRectDestRectI@graphics@@SAXQAV1@@PAUoptional_struct@core@@QAVmetafile@@@PAUrectI_struct@gdiplus@@2PBUgpUnit@gdiplus_native@@XPAXPAU34@QAVimageAttributes@@@@Z 
01:0007A430 ?enumerateMetaFileSrcRectDestPointsF@graphics@@SAXQAV1@@PAUoptional_struct@core@@QAVmetafile@@@PAU?$__list_struct@UpointF@@@@PAUrectF_struct@gdiplus@@PBUgpUnit@gdiplus_native@@XPAXPAU34@QAVimageAttributes@@@@Z 
01:0007A4D4 ?enumerateMetaFileSrcRectDestPointsI@graphics@@SAXQAV1@@PAUoptional_struct@core@@QAVmetafile@@@PAU?$__list_struct@UpointI@@@@PAUrectI_struct@gdiplus@@PBUgpUnit@gdiplus_native@@XPAXPAU34@QAVimageAttributes@@@@Z 
01:0007A578 ?fillClosedCurveF@graphics@@SAXQAV1@@QAVbrush@@@PAU?$__list_struct@UpointF@@@@@Z 
01:0007A5DC ?fillClosedCurveI@graphics@@SAXQAV1@@QAVbrush@@@PAU?$__list_struct@UpointI@@@@@Z 
01:0007A640 ?fillClosedCurveF@graphics@@SAXQAV1@@QAVbrush@@@PAU?$__list_struct@UpointF@@@@PBUgpFillMode@gdiplus_native@@@Z 
01:0007A654 ?fillClosedCurveI@graphics@@SAXQAV1@@QAVbrush@@@PAU?$__list_struct@UpointI@@@@PBUgpFillMode@gdiplus_native@@@Z 
01:0007A668 ?fillClosedCurveF@graphics@@SAXQAV1@@QAVbrush@@@PAU?$__list_struct@UpointF@@@@PBUgpFillMode@gdiplus_native@@PAN@Z 
01:0007A6F4 ?fillClosedCurveI@graphics@@SAXQAV1@@QAVbrush@@@PAU?$__list_struct@UpointI@@@@PBUgpFillMode@gdiplus_native@@PAN@Z 
01:0007A780 ?fillEllipseF@graphics@@SAXQAV1@@QAVbrush@@@PANPANPANPAN@Z 
01:0007A858 ?fillEllipseI@graphics@@SAXQAV1@@QAVbrush@@@HHHH@Z 
01:0007A8AC ?fillEllipseF@graphics@@SAXQAV1@@QAVbrush@@@PAUrectF_struct@gdiplus@@@Z 
01:0007A930 ?fillEllipseI@graphics@@SAXQAV1@@QAVbrush@@@PAUrectI_struct@gdiplus@@@Z 
01:0007A998 ?fillPath@graphics@@SAXQAV1@@QAVbrush@@@QAVgraphicsPath@@@@Z 
01:0007A9EC ?fillPieF@graphics@@SAXQAV1@@QAVbrush@@@PANPANPANPANPANPAN@Z 
01:0007AB0C ?fillPieI@graphics@@SAXQAV1@@QAVbrush@@@HHHHPANPAN@Z 
01:0007ABA8 ?fillPieI@graphics@@SAXQAV1@@QAVbrush@@@PAUrectI_struct@gdiplus@@PANPAN@Z 
01:0007AC04 ?fillPieF@graphics@@SAXQAV1@@QAVbrush@@@PAUrectF_struct@gdiplus@@PANPAN@Z 
01:0007AD34 ?fillPolygonF@graphics@@SAXQAV1@@QAVbrush@@@PAU?$__list_struct@UpointF@@@@@Z 
01:0007AD48 ?fillPolygonI@graphics@@SAXQAV1@@QAVbrush@@@PAU?$__list_struct@UpointI@@@@@Z 
01:0007AD5C ?fillPolygonF@graphics@@SAXQAV1@@QAVbrush@@@PAU?$__list_struct@UpointF@@@@PBUgpFillMode@gdiplus_native@@@Z 
01:0007ADC0 ?fillPolygonI@graphics@@SAXQAV1@@QAVbrush@@@PAU?$__list_struct@UpointI@@@@PBUgpFillMode@gdiplus_native@@@Z 
01:0007AE24 ?fillRectangleF@graphics@@SAXQAV1@@QAVbrush@@@PANPANPANPAN@Z 
01:0007AEFC ?fillRectangleI@graphics@@SAXQAV1@@QAVbrush@@@HHHH@Z 
01:0007AF50 ?fillRectangleF@graphics@@SAXQAV1@@QAVbrush@@@PAUrectF_struct@gdiplus@@@Z 
01:0007AFD4 ?fillRectangleI@graphics@@SAXQAV1@@QAVbrush@@@PAUrectI_struct@gdiplus@@@Z 
01:0007B03C ?fillRectanglesF@graphics@@SAXQAV1@@QAVbrush@@@PAU?$__list_struct@UrectF@@@@@Z 
01:0007B0A0 ?fillRectanglesI@graphics@@SAXQAV1@@QAVbrush@@@PAU?$__list_struct@UrectI@@@@@Z 
01:0007B104 ?fillRegion@graphics@@SAXQAV1@@QAVbrush@@@QAVregion@@@@Z 
01:0007B158 ?_beginContainer@graphics@@SAXQAV1@@AAUgpGraphicsContainer@gdiplus_native@@@Z 
01:0007B198 ?_beginContainerF@graphics@@SAXQAV1@@PAUrectF_struct@gdiplus@@1PBUgpUnit@gdiplus_native@@AAUgpGraphicsContainer@8@@Z 
01:0007B1D8 ?_beginContainerI@graphics@@SAXQAV1@@PAUrectI_struct@gdiplus@@1PBUgpUnit@gdiplus_native@@AAUgpGraphicsContainer@8@@Z 
01:0007B218 ?endContainer@graphics@@SAXQAV1@@PBUgpGraphicsContainer@gdiplus_native@@@Z 
01:0007B258 ?_newNative@graphics@@SAXPBUgpGraphics@gdiplus_native@@PAPAV1@@@Z  (Idle)
01:0007B280 ?_createFromWindow@graphics@@SAXQAVwindow@@@PAPAV1@@@Z  (Idle)
01:0007B2A8 ?_createFromHDC@graphics@@SAXPBUhDC@gui_native@@PAPAV1@@@Z  (Idle)
01:0007B2D0 ?_createFromHDC@graphics@@SAXPBUhDC@gui_native@@PBUhandle@@PAPAV1@@@Z  (Idle)
01:0007B2FC ?_createFromHWND@graphics@@SAXPBUhwnd@core@@PAPAV1@@@Z  (Idle)
01:0007B324 ?_createFromHWND@graphics@@SAXPBUhwnd@@PAUboolean_struct@_builtIn@@PAPAV1@@@Z  (Idle)
--- From 'Obj\ImageList.3CB6D429.obj'
01:0007B350 ?_createFromImage@graphics@@SAXQAVimage@@@PAPAV1@@@Z 
--- From 'Obj\gdiplus.80149785.obj'
01:0007B378 ?nativeGraphics@graphics@@SGPBUgpGraphics@gdiplus_native@@QAV1@@@Z 
01:0007B384 addSizeInteger  (Idle)
01:0007B3DC addSizeFloat  (Idle)
01:0007B438 addPointInteger  (Idle)
01:0007B490 addPointFloat  (Idle)
01:0007B4EC subSizeInteger  (Idle)
01:0007B544 subSizeFloat  (Idle)
01:0007B5A0 subPointInteger  (Idle)
01:0007B5F8 subPointFloat  (Idle)
01:0007B654 offsetRectPointInteger  (Idle)
01:0007B6C0 offsetRectPointFloat  (Idle)
01:0007B734 offsetRectInteger  (Idle)
01:0007B790 offsetRectFloat  (Idle)
01:0007B830 ?isEmptyAreaInteger@gdiplusSupport@@SAXPAUrectI_struct@gdiplus@@@Z  (Idle)
01:0007B874 ?isEmptyAreaFloat@gdiplusSupport@@SAXPAUrectF_struct@gdiplus@@@Z  (Idle)
01:0007B8F4 ?containsInteger@gdiplusSupport@@SAXPAUrectI_struct@gdiplus@@HH@Z  (Idle)
01:0007B958 ?containsPointInteger@gdiplusSupport@@SAXPAUrectI_struct@gdiplus@@PAUpointI_struct@3@@Z  (Idle)
01:0007B984 ?containsFloat@gdiplusSupport@@SAXPAUrectF_struct@gdiplus@@PANPAN@Z  (Idle)
01:0007BACC ?containsPointFloat@gdiplusSupport@@SAXPAUrectF_struct@gdiplus@@PAUpointF_struct@3@@Z  (Idle)
01:0007BC74 ?_inflateInteger@gdiplusSupport@@SAXPAUrectI_struct@gdiplus@@HHPAPAU23@@Z  (Idle)
01:0007BCEC ?_inflatePointInteger@gdiplusSupport@@SAXPAUrectI_struct@gdiplus@@PAUpointI_struct@3@PAPAU23@@Z  (Idle)
01:0007BD20 ?_inflateFloat@gdiplusSupport@@SAXPAUrectF_struct@gdiplus@@PANPANPAPAU23@@Z  (Idle)
01:0007BE2C ?_inflatePointFloat@gdiplusSupport@@SAXPAUrectF_struct@gdiplus@@PAUpointF_struct@3@PAPAU23@@Z  (Idle)
01:0007BEC8 ?_intersectInteger@gdiplusSupport@@SAXPAUrectI_struct@gdiplus@@0PAPAU23@@Z  (Idle)
01:0007BFC0 ?_intersectFloat@gdiplusSupport@@SAXPAUrectF_struct@gdiplus@@0PAPAU23@@Z  (Idle)
01:0007C0F4 ?intersectsWithInteger@gdiplusSupport@@SAXPAUrectI_struct@gdiplus@@0@Z  (Idle)
01:0007C11C ?intersectsWithFloat@gdiplusSupport@@SAXPAUrectF_struct@gdiplus@@0@Z  (Idle)
01:0007C144 ?_unionInteger@gdiplusSupport@@SAXPAUrectI_struct@gdiplus@@0PAPAU23@@Z  (Idle)
01:0007C23C ?_unionFloat@gdiplusSupport@@SAXPAUrectF_struct@gdiplus@@0PAPAU23@@Z  (Idle)
01:0007C370 ?anonymous$c0$1$pointilisttoarray/3np$gdiplusSupport@1@SAXPAXPAUpointI_struct@gdiplus@@@Z 
01:0007C3AC ?pointIListToArray@gdiplusSupport@@SAXPAU?$__list_struct@UpointI@@@@PAPAXAAUpositive@@@Z 
01:0007C3F4 ?anonymous$c0$1$bytelisttoarray/3np$gdiplusSupport@1@SAXPAXH@Z 
01:0007C418 ?byteListToArray@gdiplusSupport@@SAXPAU?$__list_struct@Uinteger@@@@PAPAXAAUpositive@@@Z 
01:0007C460 ?pointFListToArray@gdiplusSupport@@SAXPAU?$__list_struct@UpointF@@@@PAPAXAAUpositive@@@Z 
01:0007C4D4 ?rectFListToArray@gdiplusSupport@@SAXPAU?$__list_struct@UrectF@@@@PAPAXAAUpositive@@@Z 
01:0007C530 ?rectIListToArray@gdiplusSupport@@SAXPAU?$__list_struct@UrectI@@@@PAPAXAAUpositive@@@Z 
01:0007C58C ?anonymous$c0$1$colorlisttoarray/3np$gdiplusSupport@1@SAXPAXQAVcolor@@@@Z 
01:0007C5A8 $colorListToArray$gdiplusSupport_class$predicate$(i,o,o)$b$_c34 
01:0007C5F0 ?anonymous$c0$1$reallisttoarray/3np$gdiplusSupport@1@SAXPAXPAN@Z 
01:0007C620 ?realListToArray@gdiplusSupport@@SAXPAU?$__list_struct@PAN@@PAPAXAAUpositive@@@Z 
01:0007C668 ?fillPointFArray@gdiplusSupport@@SAXPAXPAU?$__list_struct@UpointF@@@@@Z 
01:0007C6E4 ?fillRectFArray@gdiplusSupport@@SAXPAXPAU?$__list_struct@UrectF@@@@@Z 
01:0007C7B0 ?fillRectIArray@gdiplusSupport@@SAXPAXPAU?$__list_struct@UrectI@@@@@Z 
01:0007C85C ?_arrayToList@gdiplusSupport@@SAXQAVrTypeLibrary@TypeLibraries@RunTime@VIP@@PAXPBUpositive@@XPAPAU?$__list_struct@PAPAX@@@Z  (Idle)
01:0007C8F8 ?_anonymous$c0$1$tocolorlist/2nf$gdiplusSupport@1@SAXPAXPAPAUtuple_struct@core@@PAPAXPAPAVcolor@@@@Z 
01:0007C96C $toColorList$gdiplusSupport_class$predicate$(i,i,o)$b$_c40 
01:0007C9AC ?_anonymous$c0$1$toreallist/2nf$gdiplusSupport@1@SAXPAXPAPAUtuple_struct@core@@PAPAXPAPAN@Z 
01:0007CA38 ?_toRealList@gdiplusSupport@@SAXPAXPBUpositive@@PAPAU?$__list_struct@PAPAN@@@Z 
01:0007CA78 ?_anonymous$c0$1$topointilist/2nf$gdiplusSupport@1@SAXPAXPAPAUtuple_struct@core@@PAPAXPAPAUpointI_struct@gdiplus@@@Z 
01:0007CB24 ?_toPointIList@gdiplusSupport@@SAXPAXPBUpositive@@PAPAU?$__list_struct@UpointI@@@@@Z 
01:0007CB64 ?_anonymous$c0$1$topropertyitemlist/2nf$gdiplusSupport@1@SAXPAXPAPAUtuple_struct@core@@PAPAXPAPAUpropertyItem_struct@gdiplus@@@Z 
01:0007CBBC ?_toPropertyItemList@gdiplusSupport@@SAXPAXPBUpositive@@PAPAU?$__list_struct@UpropertyItem@gdiplus@@@@@Z 
01:0007CBFC ?_anonymous$c0$1$tounsignedlist/2nf$gdiplusSupport@1@SAXPAXPAPAUtuple_struct@core@@PAPAXPAI@Z 
01:0007CC60 ?_toUnsignedList@gdiplusSupport@@SAXPAXPBUpositive@@PAPAU?$__list_struct@Uunsigned@@@@@Z 
01:0007CCA0 ?_anonymous$c0$1$toguidlist/2nf$gdiplusSupport@1@SAXPAXPAPAUtuple_struct@core@@PAPAXPAPAUnativeGuid_struct@3@@Z 
01:0007CCF8 ?_toGUIDList@gdiplusSupport@@SAXPAXPBUpositive@@PAPAU?$__list_struct@UnativeGuid@@@@@Z 
01:0007CD38 ?_anonymous$c0$1$tobytelist/2nf$gdiplusSupport@1@SAXPAXPAPAUtuple_struct@core@@PAPAXPAH@Z 
01:0007CD9C ?_toByteList@gdiplusSupport@@SAXPAXPBUpositive@@PAPAU?$__list_struct@Uinteger@@@@@Z 
01:0007CDDC ?_anonymous$c0$1$torectilist/2nf$gdiplusSupport@1@SAXPAXPAPAUtuple_struct@core@@PAPAXPAPAUrectI_struct@gdiplus@@@Z 
01:0007CEE8 ?_toRectIList@gdiplusSupport@@SAXPAXPBUpositive@@PAPAU?$__list_struct@UrectI@@@@@Z 
01:0007CF28 ?_anonymous$c0$1$torectflist/2nf$gdiplusSupport@1@SAXPAXPAPAUtuple_struct@core@@PAPAXPAPAUrectF_struct@gdiplus@@@Z 
01:0007D034 ?_toRectFList@gdiplusSupport@@SAXPAXPBUpositive@@PAPAU?$__list_struct@UrectF@@@@@Z 
01:0007D074 ?_toPointFList@gdiplusSupport@@SAXPAXPBUpositive@@PAPAU?$__list_struct@UpointF@@@@@Z 
01:0007D154 ?checkStatus_explicit@gdiplusSupport@@SAXPAUprogramPoint_struct@core@@PBUgpStatus@gdiplus_native@@PB_W@Z 
01:0007D1A0 ?_getExceptionParameters@gdiplusSupport@@SAXPBUgpStatus@gdiplus_native@@PB_WPBUhResult@@PAPAU?$__list_struct@UnamedValue@@@@@Z 
01:0007D420 ?_tryGetStatusMessage@gdiplusSupport@@SAXPBUgpStatus@gdiplus_native@@PAPB_W@Z 
--- From 'Obj\ImageList.3CB6D429.obj'
01:0007D61C ?_startup@gdiplus@@SAXPAI@Z 
--- From 'Obj\gdiplus.80149785.obj'
01:0007D660 ?_startup@gdiplus@@SAXPAUgdiplusStartupInput_struct@gdiplus_native@@PAI@Z 
01:0007D69C ?_startup@gdiplus@@SAXPAUgdiplusStartupInput_struct@gdiplus_native@@PAPAUgdiplusStartupOutput_struct@3@PAI@Z  (Idle)
01:0007D6F0 ?shutdown@gdiplus@@SAXI@Z  (Idle)
01:0007D700 ?anonymous$c0$1$mkrunnable/1nf$gdiplus@1@SAXPAUanonymous$c0$1$mkrunnable/1nf$gdiplusc_struct@1@@Z 
01:0007D790 ?_mkRunnable@gdiplus@@SAXXPAX@Z  (Idle)
01:0007D7C4 ?getImageDecodersSize@gdiplus@@SAXAAUpositive@@AAUbyteCount@@@Z  (Idle)
01:0007D824 ?_anonymous$c0$1$imagedecoders/0nf$gdiplus@1@SAXPAXPAPAUtuple_struct@core@@PAPAXPAPAUimageCodecInfo_struct@1@@Z 
01:0007D938 ?imageDecoders@gdiplus@@SGPAU?$__list_struct@UimageCodecInfo@@@@XZ  (Idle)
01:0007D9C4 ?getImageEncodersSize@gdiplus@@SAXAAUpositive@@AAUbyteCount@@@Z  (Idle)
01:0007DA24 ?_anonymous$c0$1$imageencoders/0nf$gdiplus@1@SAXPAXPAPAUtuple_struct@core@@PAPAXPAPAUimageCodecInfo_struct@1@@Z 
01:0007DB38 ?imageEncoders@gdiplus@@SGPAU?$__list_struct@UimageCodecInfo@@@@XZ  (Idle)
01:0007DBC4 ?_nullToEmptyString@gdiplus@@SAXPB_WPAPB_W@Z 
01:0007DC08 ?objectTypeIsValid@gdiplus@@SAXH@Z  (Idle)
01:0007DC28 ?_pointR@gdiplus@@SAXPANPANPAPAUpointF_struct@1@@Z  (Idle)
01:0007DC8C ?_sizeR@gdiplus@@SAXPANPANPAPAUsizeF_struct@1@@Z  (Idle)
01:0007DCF0 ?_rectR@gdiplus@@SAXPANPANPANPANPAPAUrectF_struct@1@@Z  (Idle)
01:0007DD94 ?_rectF@gdiplus@@SAXPAUpointF_struct@1@PAUsizeF_struct@1@PAPAUrectF_struct@1@@Z  (Idle)
01:0007DDE8 ?newNative@fontFamily@@SAXQAV1@@PBUgpFontFamily@gdiplus_native@@@Z  (Idle)
01:0007DDFC ?create@fontFamily@@SAXQAV1@@@Z  (Idle)
01:0007DE0C ?createFromName@fontFamily@@SAXQAV1@@PB_W@Z  (Idle)
01:0007DE48 ?createFromName@fontFamily@@SAXQAV1@@PB_WQAVfontCollection@@@@Z  (Idle)
01:0007DE90 ?finalize@fontFamily@@SGXQAV1@@@Z 
01:0007DEF0 ?_clone@fontFamily@@SAXQAV1@@PAPAV1@@@Z 
01:0007DF34 ?_getFamilyName@fontFamily@@SAXQAV1@@PBUlangid@gui_native@@PAPB_W@Z 
01:0007DF80 ?isAvailable@fontFamily@@SAXQAV1@@@Z 
01:0007DFCC ?isStyleAvailable@fontFamily@@SAXQAV1@@H@Z 
01:0007E014 ?_getEmHeight@fontFamily@@SAXQAV1@@HPAH@Z 
01:0007E05C ?_getCellAscent@fontFamily@@SAXQAV1@@HPAH@Z 
01:0007E0A4 ?_getCellDescent@fontFamily@@SAXQAV1@@HPAH@Z 
01:0007E0EC ?_getLineSpacing@fontFamily@@SAXQAV1@@HPAH@Z 
01:0007E134 ?genericSansSerif@fontFamily@@SGQAV1@@XZ  (Idle)
01:0007E1A8 ?genericSerif@fontFamily@@SGQAV1@@XZ  (Idle)
01:0007E21C ?genericMonospace@fontFamily@@SGQAV1@@XZ  (Idle)
01:0007E290 ?_newNative@fontFamily@@SAXPBUgpFontFamily@gdiplus_native@@PAPAV1@@@Z 
01:0007E2B8 ?_create@fontFamily@@SAXPAPAV1@@@Z  (Idle)
01:0007E2E0 ?_createFromName@fontFamily@@SAXPB_WPAPAV1@@@Z  (Idle)
01:0007E308 ?_createFromName@fontFamily@@SAXPB_WQAVfontCollection@@@PAPAV1@@@Z  (Idle)
01:0007E334 ?nativeFontFamily@fontFamily@@SGPBUgpFontFamily@gdiplus_native@@QAV1@@@Z 
01:0007E340 ?newNative@fontCollection@@SAXQAV1@@PBUgpFontCollection@gdiplus_native@@@Z 
01:0007E354 ?create@fontCollection@@SAXQAV1@@@Z  (Idle)
01:0007E364 ?_anonymous$o0$1$families/0nf$fontCollection@1@SAXPAXPAPAUtuple_struct@core@@PAPAXPAPAVfontFamily@@@@Z 
01:0007E3C8 $families$fontCollection_implement$predicate$(i)$c$ 
01:0007E4A0 ?_newNative@fontCollection@@SAXPBUgpFontCollection@gdiplus_native@@PAPAV1@@@Z  (Idle)
01:0007E4C8 ?_create@fontCollection@@SAXPAPAV1@@@Z  (Idle)
01:0007E4F0 ?nativeFontCollection@fontCollection@@SGPBUgpFontCollection@gdiplus_native@@QAV1@@@Z 
01:0007E4FC ?newNative@font@@SAXQAV1@@PBUgpFont@gdiplus_native@@@Z  (Idle)
01:0007E510 ?createFromHDC@font@@SAXQAV1@@PBUhDC@gui_native@@@Z  (Idle)
01:0007E548 ?createFromLogFont@font@@SAXQAV1@@PBUhDC@gui_native@@PAUlogfont_struct@4@@Z  (Idle)
01:0007E588 ?createFromFontFamily@font@@SAXQAV1@@QAVfontFamily@@@PANHPBUgpUnit@gdiplus_native@@@Z  (Idle)
01:0007E5FC ?finalize@font@@SGXQAV1@@@Z 
01:0007E65C ?_clone@font@@SAXQAV1@@PAPAV1@@@Z 
01:0007E6A0 ?_getLogFont@font@@SAXQAV1@@QAVgraphics@@@PAPAUlogfont_struct@gui_native@@@Z 
01:0007E704 ?_getHeight@font@@SAXQAV1@@QAVgraphics@@@PAPAN@Z 
01:0007E784 ?_getHeightGivenDPI@font@@SAXQAV1@@PANPAPAN@Z 
01:0007E818 ?style@font@@SGHQAV1@@@Z 
01:0007E85C ?_size@font@@SAXQAV1@@PAPAN@Z 
01:0007E8CC ?unit@font@@SGHQAV1@@@Z 
01:0007E910 ?fontfamily@font@@SGQAVfontFamily@@@QAV1@@@Z 
01:0007E964 ?_newNative@font@@SAXPBUgpFont@gdiplus_native@@PAPAV1@@@Z 
01:0007E98C ?_createFromHDC@font@@SAXPBUhDC@gui_native@@PAPAV1@@@Z  (Idle)
01:0007E9B4 ?_createFromLogFont@font@@SAXPBUhDC@gui_native@@PAUlogfont_struct@3@PAPAV1@@@Z  (Idle)
01:0007E9E0 ?_createFromFontFamily@font@@SAXQAVfontFamily@@@PANHPBUgpUnit@gdiplus_native@@PAPAV1@@@Z  (Idle)
01:0007EA14 ?nativeFont@font@@SGXQAV1@@PBUgpFont@gdiplus_native@@@Z 
01:0007EA24 ?nativeFont@font@@SGPBUgpFont@gdiplus_native@@QAV1@@@Z 
01:0007EA30 ?newNative@customLineCap@@SAXQAV1@@PBUgpCustomLineCap@gdiplus_native@@@Z 
01:0007EA44 ?createFillPath@customLineCap@@SAXQAV1@@QAVgraphicsPath@@@PBUgpLineCap@gdiplus_native@@PAN@Z  (Idle)
01:0007EAB8 ?createStrokePath@customLineCap@@SAXQAV1@@QAVgraphicsPath@@@PBUgpLineCap@gdiplus_native@@PAN@Z  (Idle)
01:0007EB2C ?create@customLineCap@@SAXQAV1@@@Z  (Idle)
01:0007EB3C ?_clone@customLineCap@@SAXQAV1@@PAPAV1@@@Z 
01:0007EB80 ?finalize@customLineCap@@SGXQAV1@@@Z 
01:0007EBE0 ?setStrokeCaps@customLineCap@@SAXQAV1@@PBUgpLineCap@gdiplus_native@@1@Z 
01:0007EC1C ?getStrokeCaps@customLineCap@@SAXQAV1@@AAUgpLineCap@gdiplus_native@@1@Z 
01:0007EC58 ?strokeJoin@customLineCap@@SGPBUgpLineJoin@gdiplus_native@@QAV1@@@Z 
01:0007EC9C ?strokeJoin@customLineCap@@SGXQAV1@@PBUgpLineJoin@gdiplus_native@@@Z 
01:0007ECDC ?baseCap@customLineCap@@SGPBUgpLineCap@gdiplus_native@@QAV1@@@Z 
01:0007ED20 ?baseCap@customLineCap@@SGXQAV1@@PBUgpLineCap@gdiplus_native@@@Z 
01:0007ED60 ?_baseInset@customLineCap@@SAXQAV1@@PAPAN@Z 
01:0007EDD0 ?baseInset@customLineCap@@SAXQAV1@@PAN@Z 
01:0007EE34 ?_widthScale@customLineCap@@SAXQAV1@@PAPAN@Z 
01:0007EEA4 ?widthScale@customLineCap@@SAXQAV1@@PAN@Z 
01:0007EF08 ?_create@customLineCap@@SAXPAPAV1@@@Z  (Idle)
01:0007EF30 ?_newNative@customLineCap@@SAXPBUgpCustomLineCap@gdiplus_native@@PAPAV1@@@Z 
01:0007EF58 ?_createFillPath@customLineCap@@SAXQAVgraphicsPath@@@PBUgpLineCap@gdiplus_native@@PANPAPAV1@@@Z  (Idle)
01:0007EF88 ?_createStrokePath@customLineCap@@SAXQAVgraphicsPath@@@PBUgpLineCap@gdiplus_native@@PANPAPAV1@@@Z  (Idle)
01:0007EFB8 ?nativeCustomLineCap@customLineCap@@SGXQAV1@@PBUgpCustomLineCap@gdiplus_native@@@Z 
01:0007EFC8 ?nativeCustomLineCap@customLineCap@@SGPBUgpCustomLineCap@gdiplus_native@@QAV1@@@Z 
01:0007EFD4 ?newNative@color@@SAXQAV1@@I@Z  (Idle)
01:0007EFE8 ?create@color@@SAXQAV1@@@Z  (Idle)
01:0007EFFC ?create@color@@SAXQAV1@@I@Z  (Idle)
01:0007F000 ?create@color@@SAXQAV1@@PBUunsigned8@@11@Z  (Idle)
01:0007F030 ?create@color@@SAXQAV1@@PBUunsigned8@@111@Z 
01:0007F064 ?createFromVpiColor@color@@SAXQAV1@@PBU1vpiDomains@@@Z  (Idle)
01:0007F124 ?alphaPart@color@@SGPBUunsigned8@@QAV1@@@Z 
01:0007F168 ?redPart@color@@SGPBUunsigned8@@QAV1@@@Z 
01:0007F1AC ?greenPart@color@@SGPBUunsigned8@@QAV1@@@Z 
01:0007F1F0 ?bluePart@color@@SGPBUunsigned8@@QAV1@@@Z 
01:0007F234 ?vpiColor@color@@SGPBU1vpiDomains@@QAV1@@@Z 
01:0007F2A4 ?_makeARGB@color@@SAXPBUunsigned8@@000PAI@Z 
01:0007F334 ?_newNative@color@@SAXIPAPAV1@@@Z 
01:0007F35C ?_create@color@@SAXPAPAV1@@@Z  (Idle)
--- From 'Obj\ImageList.3CB6D429.obj'
01:0007F384 ?_create@color@@SAXIPAPAV1@@@Z 
--- From 'Obj\gdiplus.80149785.obj'
01:0007F3AC ?_create@color@@SAXPBUunsigned8@@00PAPAV1@@@Z  (Idle)
--- From 'Obj\ImageList.3CB6D429.obj'
01:0007F3E0 ?_create@color@@SAXPBUunsigned8@@000PAPAV1@@@Z 
--- From 'Obj\gdiplus.80149785.obj'
01:0007F418 ?_createFromVpiColor@color@@SAXPBU1vpiDomains@@PAPAV1@@@Z  (Idle)
01:0007F440 ?nativeColor@color@@SGXQAV1@@I@Z 
01:0007F450 ?nativeColor@color@@SGIQAV1@@@Z 
01:0007F45C ?create@cachedBitmap@@SAXQAV1@@QAVbitmap@@@QAVgraphics@@@@Z  (Idle)
01:0007F4B4 ?finalize@cachedBitmap@@SGXQAV1@@@Z 
01:0007F514 ?_create@cachedBitmap@@SAXQAVbitmap@@@QAVgraphics@@@PAPAV1@@@Z  (Idle)
01:0007F540 ?nativeCachedBitmap@cachedBitmap@@SGXQAV1@@PBUgpCachedBitmap@gdiplus_native@@@Z 
01:0007F550 ?nativeCachedBitmap@cachedBitmap@@SGPBUgpCachedBitmap@gdiplus_native@@QAV1@@@Z 
01:0007F55C ?newNative@brush@@SAXQAV1@@PBUgpBrush@gdiplus_native@@@Z 
01:0007F570 ?_clone@brush@@SAXQAV1@@PAPAV1@@@Z 
01:0007F704 ?finalize@brush@@SGXQAV1@@@Z 
01:0007F764 ?brushType@brush@@SGPBUgpBrushType@gdiplus_native@@QAV1@@@Z 
01:0007F7A8 ?_newNative@brush@@SAXPBUgpBrush@gdiplus_native@@PAPAV1@@@Z  (Idle)
01:0007F7D0 ?nativeBrush@brush@@SGXQAV1@@PBUgpBrush@gdiplus_native@@@Z 
01:0007F7E0 ?nativeBrush@brush@@SGPBUgpBrush@gdiplus_native@@QAV1@@@Z 
01:0007F7EC ?newNative@bitmap@@SAXQAV1@@PBUgpBitmap@gdiplus_native@@@Z  (Idle)
01:0007F808 ?createFromFile@bitmap@@SAXQAV1@@PB_WPAUboolean_struct@_builtIn@@@Z  (Idle)
01:0007F824 ?createFromFile@bitmap@@SAXQAV1@@PB_W@Z 
01:0007F85C ?createFromFileICM@bitmap@@SAXQAV1@@PB_W@Z 
01:0007F898 ?createFromBitmapInfo@bitmap@@SAXQAV1@@PBUbitmapInfo@@PAX@Z  (Idle)
01:0007F8D8 ?createFromHBitmap@bitmap@@SAXQAV1@@PBUhBitmap@gui_native@@PBUhPalette@4@@Z  (Idle)
01:0007F918 ?createFromHIcon@bitmap@@SAXQAV1@@PBUhIcon@gui_native@@@Z  (Idle)
01:0007F954 ?createFromResource@bitmap@@SAXQAV1@@PBUhModule@core@@PB_W@Z  (Idle)
01:0007F994 ?createFromStream@bitmap@@SAXQAV1@@QAViStream_native@@@PAUboolean_struct@_builtIn@@@Z  (Idle)
01:0007F9B0 ?createFromStream@bitmap@@SAXQAV1@@QAViStream_native@@@@Z 
01:0007F9EC ?createFromStreamICM@bitmap@@SAXQAV1@@QAViStream_native@@@@Z 
01:0007FA28 ?createFromScan@bitmap@@SAXQAV1@@HHHPBUpixelFormat@gdiplus_native@@PAX@Z  (Idle)
01:0007FA70 ?create@bitmap@@SAXQAV1@@HHPBUpixelFormat@gdiplus_native@@@Z  (Idle)
01:0007FA8C ?createFromGraphics@bitmap@@SAXQAV1@@HHQAVgraphics@@@@Z  (Idle)
01:0007FAD8 ?createFromDirectDrawSurface@bitmap@@SAXQAV1@@QAViUnknown@@@@Z  (Idle)
01:0007FB14 ?createFromBinary@bitmap@@SAXQAV1@@QAE@Z  (Idle)
01:0007FB4C ?_clone@bitmap@@SAXQAVimage@@@PAPAV2@@@Z 
01:0007FBA8 ?_cloneRectI@bitmap@@SAXQAV1@@PAUrectI_struct@gdiplus@@PBUpixelFormat@gdiplus_native@@PAPAV1@@@Z 
01:0007FC14 ?_cloneRectF@bitmap@@SAXQAV1@@PAUrectF_struct@gdiplus@@PBUpixelFormat@gdiplus_native@@PAPAV1@@@Z 
01:0007FC9C ?_cloneI@bitmap@@SAXQAV1@@HHHHPBUpixelFormat@gdiplus_native@@PAPAV1@@@Z 
01:0007FCE0 ?_cloneF@bitmap@@SAXQAV1@@PANPANPANPANPBUpixelFormat@gdiplus_native@@PAPAV1@@@Z 
01:0007FD94 ?_fromBITMAPINFO@bitmap@@SAXQAV1@@PBUbitmapInfo@@PAXPAPAV1@@@Z 
01:0007FDB4 ?_fromFile@bitmap@@SAXQAVimage@@@PB_WPAUboolean_struct@_builtIn@@PAPAV2@@@Z 
01:0007FDE4 ?_fromHBITMAP@bitmap@@SAXQAV1@@PBUhBitmap@gui_native@@PBUhPalette@4@PAPAV1@@@Z 
01:0007FE04 ?_fromHICON@bitmap@@SAXQAV1@@PBUhIcon@gui_native@@PAPAV1@@@Z 
01:0007FE1C ?_fromResource@bitmap@@SAXQAV1@@PBUhModule@core@@PB_WPAPAV1@@@Z 
01:0007FE3C ?_getHBITMAP@bitmap@@SAXQAV1@@QAVcolor@@@AAUhBitmap@gui_native@@@Z 
01:0007FE84 ?_getHICON@bitmap@@SAXQAV1@@AAUhIcon@gui_native@@@Z 
01:0007FEC4 ?_getPixel@bitmap@@SAXQAV1@@HHPAPAVcolor@@@@Z 
01:0007FF14 ?setPixel@bitmap@@SAXQAV1@@HHQAVcolor@@@@Z 
01:0007FF5C ?lockBits@bitmap@@SAXQAV1@@PAUrect_struct@gdiplus_native@@IPBUpixelFormat@4@PAUbitmapData_struct@gdiplus@@@Z 
01:0007FF9C ?setResolution@bitmap@@SAXQAV1@@PANPAN@Z 
01:0008001C ?unlockBits@bitmap@@SAXQAV1@@PAUbitmapData_struct@gdiplus@@@Z 
01:0008005C ?_newNative@bitmap@@SAXPBUgpBitmap@gdiplus_native@@PAPAV1@@@Z 
--- From 'Obj\ImageList.3CB6D429.obj'
01:00080084 ?_create@bitmap@@SAXHHPBUpixelFormat@gdiplus_native@@PAPAV1@@@Z 
--- From 'Obj\gdiplus.80149785.obj'
01:000800B4 ?_createFromScan@bitmap@@SAXHHHPBUpixelFormat@gdiplus_native@@PAXPAPAV1@@@Z 
01:000800E8 ?_createFromGraphics@bitmap@@SAXHHQAVgraphics@@@PAPAV1@@@Z  (Idle)
01:00080118 ?_createFromBitmapInfo@bitmap@@SAXPBUbitmapInfo@@PAXPAPAV1@@@Z 
--- From 'Obj\ImageList.3CB6D429.obj'
01:00080144 ?_createFromHBitmap@bitmap@@SAXPBUhBitmap@gui_native@@PBUhPalette@3@PAPAV1@@@Z 
--- From 'Obj\gdiplus.80149785.obj'
01:00080170 ?_createFromFile@bitmap@@SAXPB_WPAUboolean_struct@_builtIn@@PAPAV1@@@Z 
--- From 'Obj\ImageList.3CB6D429.obj'
01:0008019C ?_createFromFile@bitmap@@SAXPB_WPAPAV1@@@Z 
--- From 'Obj\gdiplus.80149785.obj'
01:000801C4 ?_createFromFileICM@bitmap@@SAXPB_WPAPAV1@@@Z  (Idle)
01:000801EC ?_createFromResource@bitmap@@SAXPBUhModule@core@@PB_WPAPAV1@@@Z 
01:00080218 ?_createFromHIcon@bitmap@@SAXPBUhIcon@gui_native@@PAPAV1@@@Z 
01:00080240 ?_createFromStream@bitmap@@SAXQAViStream_native@@@PAUboolean_struct@_builtIn@@PAPAV1@@@Z  (Idle)
01:0008026C ?_createFromStream@bitmap@@SAXQAViStream_native@@@PAPAV1@@@Z  (Idle)
01:00080294 ?_createFromStreamICM@bitmap@@SAXQAViStream_native@@@PAPAV1@@@Z  (Idle)
01:000802BC ?_createFromDirectDrawSurface@bitmap@@SAXQAViUnknown@@@PAPAV1@@@Z  (Idle)
01:000802E4 ?_createFromBinary@bitmap@@SAXQAEPAPAV1@@@Z  (Idle)
01:0008030C ?nativeBitmap@bitmap@@SGXQAV1@@PBUgpBitmap@gdiplus_native@@@Z 
01:0008031C ?nativeBitmap@bitmap@@SGPBUgpBitmap@gdiplus_native@@QAV1@@@Z 
01:00080328 ?newNative@adjustableArrowCap@@SAXQAV1@@PBUgpAdjustableArrowCap@gdiplus_native@@@Z  (Idle)
01:0008034C ?create@adjustableArrowCap@@SAXQAV1@@PANPANPAUboolean_struct@_builtIn@@@Z  (Idle)
01:000803E0 ?_height@adjustableArrowCap@@SAXQAV1@@PAPAN@Z 
01:00080450 ?height@adjustableArrowCap@@SAXQAV1@@PAN@Z 
01:000804B4 ?_width@adjustableArrowCap@@SAXQAV1@@PAPAN@Z 
01:00080524 ?width@adjustableArrowCap@@SAXQAV1@@PAN@Z 
01:00080588 ?_middleInset@adjustableArrowCap@@SAXQAV1@@PAPAN@Z 
01:000805F8 ?middleInset@adjustableArrowCap@@SAXQAV1@@PAN@Z 
01:0008065C ?fillState@adjustableArrowCap@@SGPAUboolean_struct@_builtIn@@QAV1@@@Z 
01:000806B0 ?fillState@adjustableArrowCap@@SGXQAV1@@PAUboolean_struct@_builtIn@@@Z 
01:00080704 ?isFilled@adjustableArrowCap@@SAXQAV1@@@Z 
01:00080720 ?_newNative@adjustableArrowCap@@SAXPBUgpAdjustableArrowCap@gdiplus_native@@PAPAV1@@@Z  (Idle)
01:00080748 ?_create@adjustableArrowCap@@SAXPANPANPAUboolean_struct@_builtIn@@PAPAV1@@@Z  (Idle)
01:000807D0 textureBrush?_initObject@@@QAGXQAV1@H@Z 
01:000807FC ?@create_object@textureBrush@@SGQAV1@@XZ 
01:00080818 textureBrush?_InternalFinalizer@@@QAGXQAV1@@Z 
01:00080830 stringFormat?_initObject@@@QAGXQAV1@H@Z 
01:00080844 ?@create_object@stringFormat@@SGQAV1@@XZ 
01:00080860 stringFormat?_InternalFinalizer@@@QAGXQAV1@@Z 
01:00080900 solidBrush?_initObject@@@QAGXQAV1@H@Z 
01:0008092C ?@create_object@solidBrush@@SGQAV1@@XZ 
01:00080948 solidBrush?_InternalFinalizer@@@QAGXQAV1@@Z 
01:00080960 region?_initObject@@@QAGXQAV1@H@Z 
01:00080974 ?@create_object@region@@SGQAV1@@XZ 
01:00080990 region?_InternalFinalizer@@@QAGXQAV1@@Z 
01:00080A10 privateFontCollection?_initObject@@@QAGXQAV1@H@Z 
01:00080A38 ?@create_object@privateFontCollection@@SGQAV1@@XZ 
01:00080A54 privateFontCollection?_InternalFinalizer@@@QAGXQAV1@@Z 
01:00080A6C pen?_initObject@@@QAGXQAV1@H@Z 
01:00080A80 ?@create_object@pen@@SGQAV1@@XZ 
01:00080A9C pen?_InternalFinalizer@@@QAGXQAV1@@Z 
01:00080B3C pathGradientBrush?_initObject@@@QAGXQAV1@H@Z 
01:00080B68 ?@create_object@pathGradientBrush@@SGQAV1@@XZ 
01:00080B84 pathGradientBrush?_InternalFinalizer@@@QAGXQAV1@@Z 
01:00080E3C metafile?_initObject@@@QAGXQAV1@H@Z 
01:00080E68 ?@create_object@metafile@@SGQAV1@@XZ 
01:00080E84 metafile?_InternalFinalizer@@@QAGXQAV1@@Z 
01:00080E9C matrix?_initObject@@@QAGXQAV1@H@Z 
01:00080EB0 ?@create_object@matrix@@SGQAV1@@XZ 
01:00080ECC matrix?_InternalFinalizer@@@QAGXQAV1@@Z 
01:00080F6C linearGradientBrush?_initObject@@@QAGXQAV1@H@Z 
01:00080F98 ?@create_object@linearGradientBrush@@SGQAV1@@XZ 
01:00080FB4 linearGradientBrush?_InternalFinalizer@@@QAGXQAV1@@Z 
01:00080FFC installedFontCollection?_initObject@@@QAGXQAV1@H@Z 
01:00081024 ?@create_object@installedFontCollection@@SGQAV1@@XZ 
01:00081040 installedFontCollection?_InternalFinalizer@@@QAGXQAV1@@Z 
01:00081058 imageAttributes?_initObject@@@QAGXQAV1@H@Z 
01:0008106C ?@create_object@imageAttributes@@SGQAV1@@XZ 
01:00081088 imageAttributes?_InternalFinalizer@@@QAGXQAV1@@Z 
01:000810D8 image?_initObject@@@QAGXQAV1@H@Z 
01:000810F8 ?@create_object@image@@SGQAV1@@XZ 
01:00081114 image?_InternalFinalizer@@@QAGXQAV1@@Z 
01:00081164 icon?_initObject@@@QAGXQAV1@H@Z 
01:00081178 ?@create_object@icon@@SGQAV1@@XZ 
01:00081194 icon?_InternalFinalizer@@@QAGXQAV1@@Z 
01:000811F8 hatchBrush?_initObject@@@QAGXQAV1@H@Z 
01:00081224 ?@create_object@hatchBrush@@SGQAV1@@XZ 
01:00081240 hatchBrush?_InternalFinalizer@@@QAGXQAV1@@Z 
01:00081258 graphicsPathIterator?_initObject@@@QAGXQAV1@H@Z 
01:0008126C ?@create_object@graphicsPathIterator@@SGQAV1@@XZ 
01:00081288 graphicsPathIterator?_InternalFinalizer@@@QAGXQAV1@@Z 
01:000812D8 graphicsPath?_initObject@@@QAGXQAV1@H@Z 
01:000812EC ?@create_object@graphicsPath@@SGQAV1@@XZ 
01:00081308 graphicsPath?_InternalFinalizer@@@QAGXQAV1@@Z 
01:00081358 graphics?_initObject@@@QAGXQAV1@H@Z 
01:0008136C ?@create_object@graphics@@SGQAV1@@XZ 
01:00081388 graphics?_InternalFinalizer@@@QAGXQAV1@@Z 
01:000813D8 fontFamily?_initObject@@@QAGXQAV1@H@Z 
01:000813EC ?@create_object@fontFamily@@SGQAV1@@XZ 
01:00081408 fontFamily?_InternalFinalizer@@@QAGXQAV1@@Z 
01:00081458 fontCollection?_initObject@@@QAGXQAV1@H@Z 
01:0008146C ?@create_object@fontCollection@@SGQAV1@@XZ 
01:00081488 fontCollection?_InternalFinalizer@@@QAGXQAV1@@Z 
01:0008149C font?_initObject@@@QAGXQAV1@H@Z 
01:000814B0 ?@create_object@font@@SGQAV1@@XZ 
01:000814CC font?_InternalFinalizer@@@QAGXQAV1@@Z 
01:0008151C customLineCap?_initObject@@@QAGXQAV1@H@Z 
01:00081530 ?@create_object@customLineCap@@SGQAV1@@XZ 
01:0008154C customLineCap?_InternalFinalizer@@@QAGXQAV1@@Z 
01:0008159C color?_initObject@@@QAGXQAV1@H@Z 
01:000815B0 ?@create_object@color@@SGQAV1@@XZ 
01:000815CC color?_InternalFinalizer@@@QAGXQAV1@@Z 
01:000815E0 cachedBitmap?_initObject@@@QAGXQAV1@H@Z 
01:000815F4 ?@create_object@cachedBitmap@@SGQAV1@@XZ 
01:00081610 cachedBitmap?_InternalFinalizer@@@QAGXQAV1@@Z 
01:00081660 brush?_initObject@@@QAGXQAV1@H@Z 
01:00081674 ?@create_object@brush@@SGQAV1@@XZ 
01:00081690 brush?_InternalFinalizer@@@QAGXQAV1@@Z 
01:00081960 bitmap?_initObject@@@QAGXQAV1@H@Z 
01:0008198C ?@create_object@bitmap@@SGQAV1@@XZ 
01:000819A8 bitmap?_InternalFinalizer@@@QAGXQAV1@@Z 
01:00081AA0 adjustableArrowCap?_initObject@@@QAGXQAV1@H@Z 
01:00081ACC ?@create_object@adjustableArrowCap@@SGQAV1@@XZ 
01:00081AE8 adjustableArrowCap?_InternalFinalizer@@@QAGXQAV1@@Z 
--- From 'Obj\guiSupport.F74ABA7D.obj'
01:00081B00 ?raise_controlHasNoContainerException_explicit@guiSupport_exception@@SAXPAUprogramPoint_struct@core@@QAVcontrol@@@@Z 
01:00081B80 ?raise_couldNotChangeContainerException_explicit@guiSupport_exception@@SAXPAUprogramPoint_struct@core@@QAVcontrol@@@@Z 
01:00081C00 ?raise_controlDoesNotBelongToContainerException_explicit@guiSupport_exception@@SAXPAUprogramPoint_struct@core@@QAVcontrol@@@@Z  (Idle)
01:00081C80 ?raise_controlAlreadyExistsInContainerException_explicit@guiSupport_exception@@SAXPAUprogramPoint_struct@core@@QAVcontrol@@@@Z  (Idle)
--- From 'Obj\controls.5CEFAE16.obj'
01:00081D00 ?new@containerWindowSupport@@SAXQAV1@@QAVcontainerWindow@@@@Z 
--- From 'Obj\guiSupport.F74ABA7D.obj'
01:00081DC4 ?anonymous$o0$1$oncontainershow/2np$containerWindowSupport@1@SAXPAUanonymous$o0$1$oncontainershow/2np$containerWindowSupportc_struct@1@@Z 
01:00081DF8 ?onContainerShow@containerWindowSupport@@SAXQAV1@@QAVwindow@@@PBUlParam@@@Z 
01:00081EF4 ?createControls@containerWindowSupport@@SAXQAV1@@@Z 
01:00081F8C ?_onControlHandler@containerWindowSupport@@SAXQAV1@@PBUwindowHandle@@PAUevent_struct@vpiDomains@@AAUlResult@@@Z 
01:00082040 ?_onNativeEvent@containerWindowSupport@@SAXQAV1@@QAVwindow@@@IPBUwParam@@PBUlParam@@PAPAUnativeResponse_struct@3@@Z 
01:00082264 ?addControl@containerWindowSupport@@SAXQAV1@@QAVcontrol@@@H@Z 
01:0008229C ?_addControl@containerWindowSupport@@SAXQAV1@@QAVcontrol@@@PAH@Z 
01:00082428 ?delControl@containerWindowSupport@@SAXQAV1@@QAVcontrol@@@@Z 
01:00082604 ?delContainerControl@containerWindowSupport@@SAXQAV1@@QAVcontrol@@@@Z 
01:00082728 ?_addContainerControl@containerWindowSupport@@SAXQAV1@@QAVcontainerControl@@@PAH@Z 
01:00082774 ?_getContainerControl_nd@containerWindowSupport@@SAXQAV1@@PAPAVcontainerControl@@@@Z 
01:000827C0 ?_tryGetControl@containerWindowSupport@@SAXQAV1@@PAPAVcontrol@@@@Z 
01:000827CC ?setGroupIfFirstControl@containerWindowSupport@@SAXQAV1@@QAVcontrol@@@@Z 
01:00082824 ?setGroupIfPreviousIsContainer@containerWindowSupport@@SAXQAV1@@QAVcontrol@@@@Z 
01:00082880 ?isContainer@containerWindowSupport@@SAXQAVcontrol@@@@Z 
01:000828D8 ?preventRadioButtonBeforeContainer@containerWindowSupport@@SAXQAV1@@QAVcontrol@@@@Z 
01:00082950 ?_lookupControl_dt@containerWindowSupport@@SAXQAV1@@HPAPAVcontrol@@@@Z 
01:000829CC ?_lookupNestedControl_dt@containerWindowSupport@@SAXQAV1@@HPAPAVcontrol@@@@Z 
01:00082A60 ?getControl_nd@containerWindowSupport@@SAXQAV1@@PAPAVcontrol@@@PAH@Z 
01:00082B28 ?_getControl_nd@containerWindowSupport@@SAXQAV1@@PAPAVcontrol@@@@Z 
01:00082B4C ?_getNestedControl_nd@containerWindowSupport@@SAXQAV1@@PAPAVcontrol@@@@Z 
01:00082BA4 ?_getNestedControl_nd@containerWindowSupport@@SAXQAV1@@QAVcontrol@@@PAPAV3@@@Z 
01:00082C70 ?_tryGetPreviousControl@containerWindowSupport@@SAXQAV1@@QAVcontrol@@@PAPAV3@@@Z 
01:00082CE8 ?_tryGetNextControl@containerWindowSupport@@SAXQAV1@@QAVcontrol@@@PAPAV3@@@Z 
01:00082D4C ?_getRadioButtonGroup@containerWindowSupport@@SAXQAV1@@PAPAVradioButtonGroup@@@@Z 
01:00082DBC ?layoutDockedControls@containerWindowSupport@@SAXQAV1@@@Z 
01:00082EFC ?anonymous$o0$1$setdocking/0np$containerWindowSupport@1@SAXPAUanonymous$o0$1$setdocking/0np$containerWindowSupportc_struct@1@QAVwindow@@@@Z 
01:00082F14 ?setDocking@containerWindowSupport@@SAXQAV1@@@Z 
01:00082F94 ?dockControl@containerWindowSupport@@SAXPAUdockStyle_struct@control@@QAV3@@QAVvarM@@@PAUrct_struct@vpiDomains@@@Z 
01:00083368 ?_new@containerWindowSupport@@SAXQAVcontainerWindow@@@PAPAV1@@@Z  (Idle)
01:00083390 ?_object_facts_initializer@containerWindowSupport@@SGXQAV1@@@Z 
01:000833AC $pairMember_dt$containerWindowSupport_implement$predicate$(i,o,i)$c$_m17 
01:00083414 $pairMember_dt$containerWindowSupport_implement$predicate$(i,i,o)$c$_m17 
--- From 'Obj\controls.5CEFAE16.obj'
01:00083484 containerWindowSupport?_initObject@@@QAGXQAV1@H@Z 
--- From 'Obj\guiSupport.F74ABA7D.obj'
01:000834A4 ?@create_object@containerWindowSupport@@SGQAV1@@XZ 
--- From 'Obj\controls.5CEFAE16.obj'
01:000834C0 containerWindowSupport?_InternalFinalizer@@@QAGXQAV1@@Z 
--- From 'Obj\ImageList.3CB6D429.obj'
01:000834D0 ?new@imageList@@SAXQAV1@@PBUpositive@@1@Z  (Idle)
01:000834E4 ?new@imageList@@SAXQAV1@@PBUpositive@@1PAUpixelFormat_struct@1@@Z 
01:0008353C ?load@imageList@@SAXQAV1@@PB_WPAUpixelFormat_struct@1@@Z  (Idle)
01:000835E4 ?save@imageList@@SAXQAV1@@PB_W@Z 
01:00083634 ?saveToBinary@imageList@@SAXQAV1@@PBUbyteCount@@QAPAEAAU3@@Z 
01:0008374C ?width@imageList@@SGPBUpositive@@QAV1@@@Z 
01:000837B0 ?height@imageList@@SGPBUpositive@@QAV1@@@Z 
01:00083814 ?count@imageList@@SGPBUpositive@@QAV1@@@Z 
01:00083844 ?_getNativePixelFormat@imageList@@SAXPAUpixelformat_struct@1@PAI@Z 
01:00083898 ?_getGDIpPixelFormat@imageList@@SAXPAUpixelformat_struct@1@PAH@Z  (Idle)
01:000838F0 ?_tryLookupImage@imageList@@SAXQAV1@@PAUimageDescriptor_struct@1@PAH@Z  (Idle)
01:00083954 ?_tryLookupImageFromFile@imageList@@SAXQAV1@@PB_WPAH@Z 
01:00083984 ?_tryLookupGDIplusBitmap@imageList@@SAXQAV1@@QAVbitmap@@@PAH@Z 
01:000839B4 ?_tryLookupResourceFromHInstance@imageList@@SAXQAV1@@PBUhModule@@PBUresId@@PAH@Z 
01:000839F0 ?_tryLookupResource@imageList@@SAXQAV1@@PBUresId@@PAH@Z 
01:00083A28 ?_addImageFromfile@imageList@@SAXQAV1@@PB_WPAH@Z 
01:00083ADC ?_addGDIplusBitmap@imageList@@SAXQAV1@@QAVbitmap@@@PAH@Z 
01:00083B80 ?_addIcon@imageList@@SAXQAV1@@PBUhIcon@gui_native@@PAH@Z 
01:00083C50 ?_addResourceFromHInstance@imageList@@SAXQAV1@@PBUhModule@@PBUresId@@PAH@Z 
01:00083D4C ?_addResource@imageList@@SAXQAV1@@PBUresId@@PAH@Z 
01:00083D88 ?_addImage@imageList@@SAXQAV1@@QAVbitmap@@@PAH@Z 
01:00083F04 ?replaceImageFromfile@imageList@@SAXQAV1@@HPB_W@Z 
01:00084014 ?replaceGDIplusBitmap@imageList@@SAXQAV1@@HQAVbitmap@@@@Z 
01:00084114 ?replaceResource@imageList@@SAXQAV1@@HPBUresId@@@Z 
01:00084150 ?replaceResourceFromHInstance@imageList@@SAXQAV1@@PBUhModule@@HPBUresId@@@Z 
01:000842A4 ?replaceImage@imageList@@SAXQAV1@@HQAVbitmap@@@@Z 
01:0008443C ?draw@imageList@@SAXQAV1@@QAVwindowGDI@@@HPAUpnt_struct@vpiDomains@@@Z 
01:00084494 ?drawNativeDC@imageList@@SAXQAV1@@PBUhandle@@HPAUpnt_struct@vpiDomains@@@Z 
01:000844EC ?dispose@imageList@@SAXQAV1@@@Z 
01:00084514 ?finalize@imageList@@SGXQAV1@@@Z 
01:0008452C ?checkBoolResult_explicit@imageList@@SAXPAUprogramPoint_struct@core@@PBUbooleanInt@@@Z 
01:00084550 ?_new@imageList@@SAXPBUpositive@@0PAPAV1@@@Z  (Idle)
01:0008457C ?_new@imageList@@SAXPBUpositive@@0PAUpixelFormat_struct@1@PAPAV1@@@Z  (Idle)
01:000845AC ?_load@imageList@@SAXPB_WPAUpixelFormat_struct@1@PAPAV1@@@Z  (Idle)
01:000845D8 ?native@imageList@@SGPBUhImageList@gui_0@QAV1@@@Z 
01:000845E4 ?pixelFormat@imageList@@SGPAUpixelFormat_struct@1@QAV1@@@Z 
01:000845F8 imageList?_initObject@@@QAGXQAV1@H@Z 
01:0008460C ?@create_object@imageList@@SGQAV1@@XZ 
01:00084628 imageList?_InternalFinalizer@@@QAGXQAV1@@Z 
--- From 'Obj\toolTip.7F7B3527.obj'
01:00084670 ?new@trackingTooltip@@SAXQAV1@@@Z  (Idle)
01:00084688 ?endAllTrackingTooltips@trackingTooltip@@SAXXZ  (Idle)
01:00084690 ?_new@trackingTooltip@@SAXPAPAV1@@@Z  (Idle)
01:000846B4 ?new@controlTooltip@@SAXQAV1@@@Z  (Idle)
01:000846CC ?default@controlTooltip@@SGQAV1@@XZ 
01:00084740 ?_new@controlTooltip@@SAXPAPAV1@@@Z 
01:00084768 ?new@areaTooltip@@SAXQAV1@@QAVcontrol@@@X@Z  (Idle)
01:0008487C ?anonymous$o0$1$new/2np$areaTooltip@1@SAXPAUanonymous$o0$1$new/2np$areaTooltipc_struct@1@QAVwindow@@@@Z 
01:00084894 ?onMouseEnter@areaTooltip@@SAXQAV1@@QAVwindow@@@PAUpnt_struct@vpiDomains@@PBUwParam@@@Z 
01:000848D8 ?onMouseLeave@areaTooltip@@SAXQAV1@@QAVwindow@@@@Z 
01:00084974 ?_anonymous$o0$1$onmousehover/3np$areaTooltip@1@SAXPAUanonymous$o0$1$onmousehover/3np$areaTooltipc_struct@1@PAPB_W@Z 
01:00084988 ?onMouseHover@areaTooltip@@SAXQAV1@@QAVwindow@@@PAUpnt_struct@vpiDomains@@PBUwparam@@@Z 
01:00084BC0 ?_displacePnt@areaTooltip@@SAXPAUpnt_struct@vpiDomains@@HHPAPAU23@@Z 
01:00084C08 ?_distance@areaTooltip@@SAXPAUpnt_struct@vpiDomains@@0AAUpositive@@@Z  (Idle)
01:00084C70 ?pntInside@areaTooltip@@SAXPAUpnt_struct@vpiDomains@@PAUrct_struct@3@@Z  (Idle)
01:00084CD0 ?killTooltip@areaTooltip@@SAXQAV1@@@Z 
01:00084CF0 ?_msgCtlHandler@areaTooltip@@SAXQAV1@@QAVwindow@@@IPBUwParam@@PBUlParam@@PAPAUnativeResponse_struct@3@@Z 
01:00084F3C ?disable@areaTooltip@@SAXQAV1@@@Z 
01:00084FB8 ?enable@areaTooltip@@SAXQAV1@@@Z 
01:00084FCC ?_new@areaTooltip@@SAXQAVcontrol@@@XPAPAV1@@@Z  (Idle)
01:00084FF8 ?_object_facts_initializer@areaTooltip@@SGXQAV1@@@Z 
01:000852A8 trackingTooltip?_initObject@@@QAGXQAV1@H@Z 
01:000852CC ?@create_object@trackingTooltip@@SGQAV1@@XZ 
01:000852E8 trackingTooltip?_InternalFinalizer@@@QAGXQAV1@@Z 
01:00085590 controlTooltip?_initObject@@@QAGXQAV1@H@Z 
01:000855B4 ?@create_object@controlTooltip@@SGQAV1@@XZ 
01:000855D0 controlTooltip?_InternalFinalizer@@@QAGXQAV1@@Z 
01:000858B8 areaTooltip?_initObject@@@QAGXQAV1@H@Z 
01:000858EC ?@create_object@areaTooltip@@SGQAV1@@XZ 
01:00085908 areaTooltip?_InternalFinalizer@@@QAGXQAV1@@Z 
--- From 'Obj\vpiToolbar.E9E27E84.obj'
01:00085920 ?pictureGetSize@vpiToolbar@@SAXPAUbitmapId_struct@vpiDomains@@AAUpositive@@1@Z  (Idle)
01:00085958 ?toolbar_set_flagMouseDown@vpiToolbar@@SAXPBUwindowHandle@@@Z  (Idle)
01:000859A4 ?toolbar_release_flagMouseDown@vpiToolbar@@SAXXZ  (Idle)
01:000859D8 ?tooltip_firstTimeTimerHandler@vpiToolbar@@SAXPBUwindowHandle@@@Z  (Idle)
01:00085A00 ?tooltip_ShowTimerHandler@vpiToolbar@@SAXPBUwindowHandle@@@Z  (Idle)
01:00085D88 ?tooltip_HideTimerHandler@vpiToolbar@@SAXPBUwindowHandle@@H@Z  (Idle)
01:00085E88 ?_tooltip_handler@vpiToolbar@@SAXPBUwindowHandle@@PAUevent_struct@vpiDomains@@AAUlResult@@@Z 
01:00085FDC ?tooltip_create@vpiToolbar@@SAXPBUwindowHandle@@@Z  (Idle)
01:000860B4 ?tooltip_register@vpiToolbar@@SAXPBUwindowHandle@@PAUrct_struct@vpiDomains@@PB_W@Z  (Idle)
01:000861E4 ?tooltip_clean_up@vpiToolbar@@SAXPBUwindowHandle@@@Z  (Idle)
01:00086300 ?tooltip_validate_rect@vpiToolbar@@SAXPAUrct_struct@vpiDomains@@0PAPAU23@@Z 
01:000863B0 ?_tooltip_validate@vpiToolbar@@SAXHHPAH@Z 
01:000863D8 ?tooltip_set_usage@vpiToolbar@@SAXXZ  (Idle)
01:00086434 ?tooltip_stop_usage@vpiToolbar@@SAXXZ  (Idle)
01:00086478 ?tooltip_check_first_time@vpiToolbar@@SAXXZ  (Idle)
01:000864A0 ?tooltip_check_first_time@vpiToolbar@@SAXPBUwindowHandle@@@Z  (Idle)
01:00086524 ?tooltip_check_mousemove@vpiToolbar@@SAXPBUwindowHandle@@PAUpnt_struct@vpiDomains@@@Z  (Idle)
01:000865EC ?tooltip_check_mousetimer@vpiToolbar@@SAXPBUwindowHandle@@@Z  (Idle)
01:000867AC ?tooltip_mouse_in_TB@vpiToolbar@@SAXPBUwindowHandle@@PAPAUpnt_struct@vpiDomains@@@Z  (Idle)
01:00086888 ?hide_tooltip@vpiToolbar@@SAXPBUwindowHandle@@@Z  (Idle)
01:0008697C ?tooltip_hide@vpiToolbar@@SAXXZ  (Idle)
01:00086A64 ?tooltip_change_if_not_current@vpiToolbar@@SAXPBUwindowHandle@@@Z  (Idle)
01:00086B18 ?tooltip_change_if_not_current@vpiToolbar@@SAXPBUwindowHandle@@PAUrct_struct@vpiDomains@@PB_WPAUpnt_struct@4@@Z 
01:00086C2C ?tooltip_set_first_time_timer@vpiToolbar@@SAXPBUwindowHandle@@@Z 
01:00086C84 ?tooltip_kill_first_time_timer@vpiToolbar@@SAXXZ 
01:00086CE4 ?tooltip_set_show@vpiToolbar@@SAXPBUwindowHandle@@@Z 
01:00086D40 ?tooltip_try_show@vpiToolbar@@SAXPBUwindowHandle@@PBUbooleanInt@@@Z  (Idle)
01:00086E7C ?safeTimerKill@vpiToolbar@@SAXPBUtimerId@@@Z 
01:00086EC8 ?tooltip_kill_show_timer@vpiToolbar@@SAXXZ 
01:00086F28 ?tooltip_set_hide_timer@vpiToolbar@@SAXPBUwindowHandle@@@Z 
01:00086F88 ?tooltip_kill_hide_timer@vpiToolbar@@SAXXZ 
01:00086FE8 ?tooltip_get_color@vpiToolbar@@SAXAAU2@0@Z  (Idle)
01:00087028 ?_tooltip_child_handler@vpiToolbar@@SAXPBUwindowHandle@@PAUevent_struct@vpiDomains@@AAUlResult@@@Z 
01:000871AC ?get_flag@vpiToolbar@@SAXPBUbooleanInt@@AAUwsflag@@@Z  (Idle)
01:000871DC ?buttonColors@vpiToolbar@@SAXAAUcolor@@00@Z  (Idle)
01:00087214 ?getAddOrnamentationByStyle@vpiToolbar@@SAXPAUstyle_struct@1@AAUbooleanInt@@@Z  (Idle)
01:0008725C ?split_control_text@vpiToolbar@@SAXPB_WPAPB_W1@Z  (Idle)
01:000872D4 ?set_ctrl_to_tb_win1@vpiToolbar@@SAXPBUwindowHandle@@@Z  (Idle)
01:00087360 ?multiple_rows@vpiToolbar@@SAXPAUstyle_struct@1@@Z  (Idle)
01:00087388 ?horizontal@vpiToolbar@@SAXPAUstyle_struct@1@@Z  (Idle)
01:00087410 ?toolbar_retract_controls@vpiToolbar@@SAXPBUwindowHandle@@@Z  (Idle)
01:000874DC ?set_new_VPITBarAttr@vpiToolbar@@SAXPAUstyle_struct@1@HPBUwindowHandle@@@Z  (Idle)
01:0008761C ?remove_VPITBarAttr@vpiToolbar@@SAXPAUstyle_struct@1@PBUwindowHandle@@@Z  (Idle)
01:000877DC ?give_flags_and_title@vpiToolbar@@SAXPAUstyle_struct@1@PAPAU?$__list_struct@Uwsflag@@@@PAPB_W@Z  (Idle)
01:0008781C ?resendToParentWindow@vpiToolbar@@SAXPBUwindowHandle@@PBUmenuTag@@PAUvalue_struct@1@@Z 
01:00087BD8 ?set_ctrl_to_tb_win@vpiToolbar@@SAXPBUwindowHandle@@0@Z  (Idle)
01:0008834C ?create_listcontrols@vpiToolbar@@SAXPBUwindowHandle@@@Z  (Idle)
01:0008849C ?get_inits_for_twin@vpiToolbar@@SAXPBUwindowHandle@@PAHPAHPAHPAH@Z  (Idle)
01:0008851C ?get_inits@vpiToolbar@@SAXPBUwindowHandle@@PAUstyle_struct@1@HHPAHPAH@Z  (Idle)
01:0008871C ?tbar_Invalidate@vpiToolbar@@SAXPBUwindowHandle@@PAUstyle_struct@1@HHPAUrct_struct@vpiDomains@@@Z  (Idle)
01:000887D0 ?_createToolbarFont@vpiToolbar@@SAXPBUfontFamily@@PAU?$__list_struct@Ufs@@@@PBUpositive@@AAUfont@@@Z  (Idle)
01:00088850 ?getLeftOffset@vpiToolbar@@SAXPAUstyle_struct@1@PAH@Z  (Idle)
01:00088874 ?getTopOffset@vpiToolbar@@SAXPAUstyle_struct@1@PAH@Z  (Idle)
01:000888C8 ?getBottomOffset@vpiToolbar@@SAXPAUstyle_struct@1@PAH@Z  (Idle)
01:0008891C ?rightBottom@vpiToolbar@@SAXPBUwindowHandle@@PAUstyle_struct@1@HHHPAHPAH@Z  (Idle)
01:00088D34 ?build_control_database8@vpiToolbar@@SAXPBUwindowHandle@@PAUstyle_struct@1@PAU?$__list_struct@Ucontrol@@@@HHHPAHPAH@Z  (Idle)
01:00089D58 ?build_control_database@vpiToolbar@@SAXPBUwindowHandle@@PAUstyle_struct@1@PAU?$__list_struct@Ucontrol@@@@PAHPAH@Z  (Idle)
01:00089DB4 ?getControlSize@vpiToolbar@@SAXPBUwindowHandle@@PAUcontrol_struct@1@PAHPAH@Z  (Idle)
01:00089F18 ?getMaxControlSize6@vpiToolbar@@SAXPBUwindowHandle@@PAU?$__list_struct@Ucontrol@@@@HHPAHPAH@Z  (Idle)
01:00089FA4 ?getMaxControlSize@vpiToolbar@@SAXPBUwindowHandle@@PAU?$__list_struct@Ucontrol@@@@PAHPAH@Z  (Idle)
01:00089FFC ?drawButtonFrame@vpiToolbar@@SAXPBUwindowHandle@@PAUrct_struct@vpiDomains@@PBUcolor@@2@Z  (Idle)
01:0008A1BC ?drawButtonFrame_raised@vpiToolbar@@SAXPBUwindowHandle@@PAUrct_struct@vpiDomains@@@Z  (Idle)
01:0008A1F4 ?drawButtonFrame_sunken@vpiToolbar@@SAXPBUwindowHandle@@PAUrct_struct@vpiDomains@@@Z  (Idle)
01:0008A22C ?drawButtonFrame_none@vpiToolbar@@SAXPBUwindowHandle@@PAUrct_struct@vpiDomains@@@Z  (Idle)
01:0008A264 ?toolbar_if_draw_frame@vpiToolbar@@SAXPBUwindowHandle@@PAUrct_struct@vpiDomains@@PBUbooleanInt@@2@Z  (Idle)
01:0008A2D8 ?imagePosition@vpiToolbar@@SAXPAUrct_struct@vpiDomains@@PBUpicture@@HPAPAUpnt_struct@3@@Z  (Idle)
01:0008A36C ?drawImage_released@vpiToolbar@@SAXPBUwindowHandle@@PAUbitmapId_struct@vpiDomains@@PAUrct_struct@4@@Z  (Idle)
01:0008A3BC ?drawImage_pressed@vpiToolbar@@SAXPBUwindowHandle@@PAUbitmapId_struct@vpiDomains@@PAUrct_struct@4@@Z  (Idle)
01:0008A4EC ?drawImage_monocolor@vpiToolbar@@SAXPBUwindowHandle@@PBUpicture@@PAUrct_struct@vpiDomains@@HPBU6@@Z  (Idle)
01:0008A600 ?drawImage_gray@vpiToolbar@@SAXPBUwindowHandle@@PAUbitmapId_struct@vpiDomains@@PAUrct_struct@4@@Z  (Idle)
01:0008A678 ?drawButton@vpiToolbar@@SAXPBUwindowHandle@@PAUrct_struct@vpiDomains@@PAUbitmapId_struct@4@PBUbooleanInt@@3@Z  (Idle)
01:0008A718 ?drawTextControl@vpiToolbar@@SAXPBUwindowHandle@@HHHH@Z  (Idle)
01:0008A934 ?show_text@vpiToolbar@@SAXPBUwindowHandle@@PAUrct_struct@vpiDomains@@PBUfs@@PBUfontFamily@@PBUpositive@@PBUcolor@@PB_W@Z  (Idle)
01:0008AA60 ?show_toolbar_controls@vpiToolbar@@SAXPBUwindowHandle@@@Z  (Idle)
01:0008ACB4 ?set_button_released@vpiToolbar@@SAXPBUwindowHandle@@@Z  (Idle)
01:0008AD40 ?eraseFrame@vpiToolbar@@SAXPBUwindowHandle@@PAUrct_struct@vpiDomains@@PBUbooleanInt@@@Z  (Idle)
01:0008AD58 ?test_not_leave_ctrl@vpiToolbar@@SAXPBUwindowHandle@@PBUmenuTag@@PAUpnt_struct@vpiDomains@@@Z 
01:0008AF5C ?test_enter_ctrl@vpiToolbar@@SAXPBUwindowHandle@@PAUpnt_struct@vpiDomains@@PBUbooleanInt@@@Z  (Idle)
01:0008B088 ?restore_pressed_button@vpiToolbar@@SAXPBUwindowHandle@@PBUmenuTag@@PBUbooleanInt@@2@Z 
01:0008B250 ?show_status_text@vpiToolbar@@SAXPBUwindowHandle@@PB_W@Z 
01:0008B3C0 ?restore_initial_status_text@vpiToolbar@@SAXPBUwindowHandle@@@Z 
01:0008B498 ?_get_win_with_context@vpiToolbar@@SAXPBUwindowHandle@@AAU2@@Z 
01:0008B5D0 ?set_flagMouseDown@vpiToolbar@@SAXPBUwindowHandle@@PAUcontrol_style_struct@1@H@Z  (Idle)
01:0008B5F0 ?isTopToolbarExists@vpiToolbar@@SAXPBUwindowHandle@@@Z  (Idle)
01:0008B680 ?drawOrnamentation@vpiToolbar@@SAXPBUwindowHandle@@PAUstyle_struct@1@HH@Z  (Idle)
01:0008BA48 ?tb_rect@vpiToolbar@@SAXPBUwindowHandle@@PAUstyle_struct@1@HHPAPAUrct_struct@vpiDomains@@@Z  (Idle)
01:0008BD80 ?_tb_handler@vpiToolbar@@SAXPBUwindowHandle@@PAUevent_struct@vpiDomains@@AAUlResult@@@Z 
01:0008D260 ?_is_call_user_func@vpiToolbar@@SAXHPAUcontrol_style_struct@1@PAPAUboolean_struct@_builtIn@@@Z 
01:0008D298 ?call_user_func@vpiToolbar@@SAXPBUwindowHandle@@PBUmenuTag@@PAUboolean_struct@_builtIn@@@Z 
01:0008D4F8 ?_no_handler@vpiToolbar@@SAXPBUwindowHandle@@PAUevent_struct@vpiDomains@@AAUlResult@@@Z 
--- From 'Obj\Toolbars.B027D95B.obj'
01:0008D504 ?_create@vpiToolbar@@SAXPAUstyle_struct@1@PBUwindowHandle@@PAU?$__list_struct@Ucontrol@@@@AAU4@@Z 
--- From 'Obj\vpiToolbar.E9E27E84.obj'
01:0008D524 ?_create@vpiToolbar@@SAXPAUstyle_struct@1@PBUwindowHandle@@PAU?$__list_struct@Ucontrol@@@@XAAU4@@Z 
01:0008D558 ?_create@vpiToolbar@@SAXPAUstyle_struct@1@PBUwindowHandle@@PAU?$__list_struct@Ucontrol@@@@XPBUbooleanInt@@AAU4@@Z 
01:0008D740 ?getPressedButton@vpiToolbar@@SAXPBUwindowHandle@@HAAUmenuTag@@@Z  (Idle)
01:0008D7D8 ?setPressedButton@vpiToolbar@@SAXPBUwindowHandle@@HPBUmenuTag@@@Z 
01:0008D8D0 ?mesRedirect@vpiToolbar@@SAXPBUwindowHandle@@0@Z  (Idle)
01:0008DA78 ?noAction@vpiToolbar@@SAXPBUwindowHandle@@PBUmenuTag@@PAUvalue_struct@1@@Z  (Idle)
01:0008DA80 ?reload@vpiToolbar@@SAXPBUwindowHandle@@PAU?$__list_struct@Ucontrol@@@@@Z  (Idle)
--- From 'Obj\TaskWindow.3D15576A.obj'
01:0008DCF0 ?resize@vpiToolbar@@SAXPBUwindowHandle@@@Z 
--- From 'Obj\vpiToolbar.E9E27E84.obj'
01:0008DD80 ?remove@vpiToolbar@@SAXPBUwindowHandle@@@Z  (Idle)
01:0008DE94 ?_setTextValue@vpiToolbar@@SAXPBUwindowHandle@@PBUmenuTag@@PB_WPAPB_W@Z  (Idle)
01:0008E058 ?setValue@vpiToolbar@@SAXPBUwindowHandle@@PBUmenuTag@@PAUvalue_struct@1@@Z 
01:0008E620 ?getValue@vpiToolbar@@SAXPBUwindowHandle@@PBUmenuTag@@PAPAUvalue_struct@1@@Z  (Idle)
01:0008E8A8 ?getRect@vpiToolbar@@SAXPBUwindowHandle@@PAUstyle_struct@1@PAPAUrct_struct@vpiDomains@@@Z  (Idle)
01:0008E948 ?groupControls@vpiToolbar@@SAXPBUwindowHandle@@HPAU?$__list_struct@UmenuTag@@@@@Z  (Idle)
01:0008EB6C ?getToolbar_nd@vpiToolbar@@SAXPBUwindowHandle@@AAU2@@Z  (Idle)
01:0008EBC0 ?getToolbar_nd@vpiToolbar@@SAXPBUwindowHandle@@AAU2@PAPAUstyle_struct@1@PAPAU?$__list_struct@Ucontrol@@@@@Z  (Idle)
--- From 'Obj\TaskWindow.3D15576A.obj'
01:0008EC30 ?create@statusLine@@SAXPBUwindowHandle@vpiDomains@@@Z 
01:0008EC58 ?create@projectToolbar@@SAXPBUwindowHandle@vpiDomains@@@Z 
--- From 'Obj\vpi.E4453945.obj'
01:0008EC80 ?_getString@vpiCommonDialogs@@SAXPB_W00PAPB_W@Z  (Idle)
01:0008ECCC ?_getString@vpiCommonDialogs@@SAXPBUwindowHandle@vpiDomains@@PB_W11PAPB_W@Z 
01:0008EE90 ?_dlg_getstring_eh@vpiCommonDialogs@@SAXPBUwindowHandle@@PAUevent_struct@vpiDomains@@AAUlResult@@@Z 
01:0008EEF8 ?ok_getstring@vpiCommonDialogs@@SAXPBUwindowHandle@@@Z 
01:0008EF44 ?init_getstring@vpiCommonDialogs@@SAXPBUwindowHandle@@@Z 
01:0008EF78 ?_ask@vpiCommonDialogs@@SAXPB_WPAU?$__list_struct@Ustring@@@@PAH@Z  (Idle)
01:0008EFC4 ?_ask@vpiCommonDialogs@@SAXPB_W0PAU?$__list_struct@Ustring@@@@PAH@Z  (Idle)
01:0008F010 ?_ask@vpiCommonDialogs@@SAXPBUwindowHandle@vpiDomains@@PB_W1PAU?$__list_struct@Ustring@@@@PAH@Z  (Idle)
01:0008F018 ?_messageBox@vpiCommonDialogs@@SAXPB_W0HHHHPAH@Z  (Idle)
01:0008F054 ?_getFileName@vpiCommonDialogs@@SAXPB_WPAU?$__list_struct@Ustring@@@@0PAU?$__list_struct@Uinteger@@@@0PAPAU?$__list_struct@U2@@@PAHPAPB_W@Z  (Idle)
01:0008F094 ?_askLocal@vpiCommonDialogs@@SAXPBUwindowHandle@@PB_W1PAU?$__list_struct@Ustring@@@@PAH@Z 
01:0008F154 ?_dlg_ask_eh@vpiCommonDialogs@@SAXPBUwindowHandle@@PAUevent_struct@vpiDomains@@AAUlResult@@@Z 
01:0008F1EC ?_getButtonsList@vpiCommonDialogs@@SAXPAU?$__list_struct@Ustring@@@@PB_WPAHPAPAU?$__list_struct@Uwindef@@@@@Z 
01:0008F424 ?_getFirstButton@vpiCommonDialogs@@SAXPB_WPAPAUwindef_struct@vpiDomains@@@Z 
01:0008F490 ?_getSecondButton@vpiCommonDialogs@@SAXPB_WPAPAUwindef_struct@vpiDomains@@@Z 
01:0008F4FC ?_getLastButton@vpiCommonDialogs@@SAXPB_WPAPAUwindef_struct@vpiDomains@@@Z 
01:0008F568 ?_getStaticText@vpiCommonDialogs@@SAXPB_WPAPAUwindef_struct@vpiDomains@@@Z 
01:0008F5D4 ?_getAskResult@vpiCommonDialogs@@SAXHPAH@Z 
01:0008F614 ?_listSelect@vpiCommonDialogs@@SAXPB_WPAU?$__list_struct@Ustring@@@@HPAPB_WPAHAAUbooleanInt@@@Z  (Idle)
01:0008F678 ?_listSelect@vpiCommonDialogs@@SAXPBUwindowHandle@vpiDomains@@PB_WPAU?$__list_struct@Ustring@@@@HPAPB_WPAHAAUbooleanInt@@@Z 
01:0008F694 ?_listSelect@vpiCommonDialogs@@SAXPBUwindowHandle@vpiDomains@@PB_WPAU?$__list_struct@Ustring@@@@HPAPB_WPAHPBUbooleanInt@@AAU5@@Z 
01:0008F6B0 ?_listSelect@vpiCommonDialogs@@SAXPBUwindowHandle@vpiDomains@@PB_WPAU?$__list_struct@Ustring@@@@HPAPB_WPAHPBUbooleanInt@@6AAU5@@Z 
01:0008F890 ?_dlg_list_select_eh@vpiCommonDialogs@@SAXPBUwindowHandle@@PAUevent_struct@vpiDomains@@AAUlResult@@@Z 
01:0008F990 ?resizeControls@vpiCommonDialogs@@SAXPBUwindowHandle@@HH@Z 
01:0008FB04 ?storeResult_listSelect@vpiCommonDialogs@@SAXPBUwindowHandle@@@Z 
01:0008FB80 ?storeListSelectResult@vpiCommonDialogs@@SAXPBUwindowHandle@@PAU?$__list_struct@Ustring@@@@PAU?$__list_struct@Uinteger@@@@@Z 
01:0008FBEC ?storeNewValue@vpiCommonDialogs@@SAXPBUwindowHandle@@PB_W@Z 
01:0008FC24 ?_getComboFlags@vpiCommonDialogs@@SAXPBUbooleanInt@@AAUwsFlag@@@Z 
01:0008FC48 ?init_listSelect@vpiCommonDialogs@@SAXPBUwindowHandle@@@Z 
01:0008FCA0 ?note@vpiCommonDialogs@@SAXPB_W@Z  (Idle)
--- From 'Obj\gui.0D1EF882.obj'
01:0008FCB8 ?error@vpiCommonDialogs@@SAXPB_W@Z 
--- From 'Obj\vpi.E4453945.obj'
01:0008FCD0 ?_getFileName@vpiCommonDialogs@@SAXPB_WPAU?$__list_struct@Ustring@@@@0PAU?$__list_struct@Uinteger@@@@0PAPAU?$__list_struct@U2@@@PAPB_W@Z  (Idle)
01:0008FD00 ?_getFont@vpiCommonDialogs@@SAXPBUfont@vpiDomains@@AAU23@@Z  (Idle)
01:0008FD24 ?_getColor@vpiCommonDialogs@@SAXPBUcolor@vpiDomains@@AAU23@@Z  (Idle)
01:0008FD50 ?setCustomColors@vpiCommonDialogs@@SAXQAE@Z  (Idle)
01:0008FD64 ?_getCustomColors@vpiCommonDialogs@@SAXQAPAE@Z  (Idle)
01:0008FD8C ?_askBox@vpiCommonDialogs@@SAXPB_W0HHPAH@Z  (Idle)
--- From 'Obj\gui.0D1EF882.obj'
01:0008FDDC ?init@vpi@@SAXXZ 
